ARM GAS  C:\Users\86152\AppData\Local\Temp\ccWGVtEI.s 			page 1


   1              		.cpu cortex-m4
   2              		.arch armv7e-m
   3              		.fpu fpv4-sp-d16
   4              		.eabi_attribute 27, 1
   5              		.eabi_attribute 28, 1
   6              		.eabi_attribute 20, 1
   7              		.eabi_attribute 21, 1
   8              		.eabi_attribute 23, 3
   9              		.eabi_attribute 24, 1
  10              		.eabi_attribute 25, 1
  11              		.eabi_attribute 26, 1
  12              		.eabi_attribute 30, 1
  13              		.eabi_attribute 34, 1
  14              		.eabi_attribute 18, 4
  15              		.file	"chassis_task.c"
  16              		.text
  17              	.Ltext0:
  18              		.cfi_sections	.debug_frame
  19              		.section	.text.Max_4,"ax",%progbits
  20              		.align	1
  21              		.syntax unified
  22              		.thumb
  23              		.thumb_func
  25              	Max_4:
  26              	.LVL0:
  27              	.LFB180:
  28              		.file 1 "Application/chassis_task.c"
   1:Application/chassis_task.c **** #include "chassis_task.h"
   2:Application/chassis_task.c **** 
   3:Application/chassis_task.c **** uint8_t chassis_debug_mode = 1;
   4:Application/chassis_task.c **** uint32_t RC_Lost = 0;
   5:Application/chassis_task.c **** Chassis_t Chassis = {0};
   6:Application/chassis_task.c **** static uint8_t data[6];
   7:Application/chassis_task.c **** uint32_t Chassis_DWT_Count = 0;
   8:Application/chassis_task.c **** uint32_t tempTime_Sprint = 0;
   9:Application/chassis_task.c **** uint32_t time_temp = 0;
  10:Application/chassis_task.c **** float Vxy_Coef = 1.0f;
  11:Application/chassis_task.c **** float V_coef = 1.0f;
  12:Application/chassis_task.c **** uint32_t nanCount = 0;
  13:Application/chassis_task.c **** uint32_t debugvalue = 103;
  14:Application/chassis_task.c **** float preFollowTheta;
  15:Application/chassis_task.c **** float SpinningValidTheta;
  16:Application/chassis_task.c **** uint8_t use_spinningmove = 1;
  17:Application/chassis_task.c **** float SpinningValidVx;
  18:Application/chassis_task.c **** float SpinningValidVy;
  19:Application/chassis_task.c **** float TempVxTransfer;
  20:Application/chassis_task.c **** float TempVyTransfer;
  21:Application/chassis_task.c **** float TempA = 0.1f;
  22:Application/chassis_task.c **** uint32_t InPosCount = 0;
  23:Application/chassis_task.c **** uint8_t InPosFlag = 0;
  24:Application/chassis_task.c **** float TempAerialX;
  25:Application/chassis_task.c **** float TempAerialY;
  26:Application/chassis_task.c **** 
  27:Application/chassis_task.c **** uint16_t outpost_HP, sentry_HP;
  28:Application/chassis_task.c **** 
  29:Application/chassis_task.c **** float Stamp;
  30:Application/chassis_task.c **** int32_t Vx_ref = 0;
ARM GAS  C:\Users\86152\AppData\Local\Temp\ccWGVtEI.s 			page 2


  31:Application/chassis_task.c **** int32_t Vy_ref = 0;
  32:Application/chassis_task.c **** int32_t last_Vx;
  33:Application/chassis_task.c **** int32_t last_Vy;
  34:Application/chassis_task.c **** 
  35:Application/chassis_task.c **** uint8_t AMP = 50;
  36:Application/chassis_task.c **** uint16_t VR = 600;
  37:Application/chassis_task.c **** float MAX_RPM = 8000;
  38:Application/chassis_task.c **** 
  39:Application/chassis_task.c **** float Vx_k = 1000; // 最大阶跃速度比
  40:Application/chassis_task.c **** float Vy_k = 1000;
  41:Application/chassis_task.c **** float Vr_k = 300;
  42:Application/chassis_task.c **** float Vr_MAX = 150;
  43:Application/chassis_task.c **** float c[3] = {1, 1, 1};
  44:Application/chassis_task.c **** 
  45:Application/chassis_task.c **** uint8_t count_press = 0;
  46:Application/chassis_task.c **** static float dt = 0,
  47:Application/chassis_task.c ****              t = 0;
  48:Application/chassis_task.c **** float Gimbal_Position_Modification = 1.0f;
  49:Application/chassis_task.c **** 
  50:Application/chassis_task.c **** float Tempvy;
  51:Application/chassis_task.c **** float Tempvx;
  52:Application/chassis_task.c **** 
  53:Application/chassis_task.c **** float user_count_time = 0;
  54:Application/chassis_task.c **** static uint16_t Last_7_HP = 600;
  55:Application/chassis_task.c **** uint8_t walktodes = 0;
  56:Application/chassis_task.c **** uint8_t method = 0;
  57:Application/chassis_task.c **** uint8_t last_game_status = 0;
  58:Application/chassis_task.c **** uint8_t lostaim = 0;
  59:Application/chassis_task.c **** 
  60:Application/chassis_task.c **** uint16_t ReachCount = 0;
  61:Application/chassis_task.c **** uint8_t ReachFinished = 0;
  62:Application/chassis_task.c **** float ChassisMotionEst_F[36] = {
  63:Application/chassis_task.c ****     1, 0, 0, 0, 0, 0,
  64:Application/chassis_task.c ****     0, 1, 0, 0, 0, 0,
  65:Application/chassis_task.c ****     0, 0, 1, 0, 0, 0,
  66:Application/chassis_task.c ****     0, 0, 0, 1, 0, 0,
  67:Application/chassis_task.c ****     0, 0, 0, 0, 1, 0,
  68:Application/chassis_task.c ****     0, 0, 0, 0, 0, 1};
  69:Application/chassis_task.c **** float ChassisMotionEst_P[36];
  70:Application/chassis_task.c **** float ChassisMotionEst_Pinit[36] = {
  71:Application/chassis_task.c ****     1000, 0.1, 0.1, 0.1, 0.1, 0.1,
  72:Application/chassis_task.c ****     0.1, 10000, 0.1, 0.1, 0.1, 0.1,
  73:Application/chassis_task.c ****     0.1, 0.1, 10000, 0.1, 0.1, 0.1,
  74:Application/chassis_task.c ****     0.1, 0.1, 0.1, 1000, 0.1, 0.1,
  75:Application/chassis_task.c ****     0.1, 0.1, 0.1, 0.1, 10000, 0.1,
  76:Application/chassis_task.c ****     0.1, 0.1, 0.1, 0.1, 0.1, 10000};
  77:Application/chassis_task.c **** float ChassisMotionEst_Sigma[2] = {100, 100};
  78:Application/chassis_task.c **** float ChassisMotionEst_Q[36] = {
  79:Application/chassis_task.c ****     10, 0, 0, 0, 0, 0,
  80:Application/chassis_task.c ****     0, 1000, 0, 0, 0, 0,
  81:Application/chassis_task.c ****     0, 0, 10, 0, 0, 0,
  82:Application/chassis_task.c ****     0, 0, 0, 10, 0, 0,
  83:Application/chassis_task.c ****     0, 0, 0, 0, 1000, 0,
  84:Application/chassis_task.c ****     0, 0, 0, 0, 0, 10};
  85:Application/chassis_task.c **** float ChassisMotionEst_R[16] = {
  86:Application/chassis_task.c ****     100000, 0, 0, 0,
  87:Application/chassis_task.c ****     0, 100, 0, 0,
ARM GAS  C:\Users\86152\AppData\Local\Temp\ccWGVtEI.s 			page 3


  88:Application/chassis_task.c ****     0, 0, 100000, 0,
  89:Application/chassis_task.c ****     0, 0, 0, 100};
  90:Application/chassis_task.c **** float ChassisMotionEst_H[24] = {
  91:Application/chassis_task.c ****     0, 1, 0, 0, 0, 0,
  92:Application/chassis_task.c ****     0, 0, 1, 0, 0, 0,
  93:Application/chassis_task.c ****     0, 0, 0, 0, 1, 0,
  94:Application/chassis_task.c ****     0, 0, 0, 0, 0, 1};
  95:Application/chassis_task.c **** float ChiSquare;
  96:Application/chassis_task.c **** float xhat_data_obsv[6];
  97:Application/chassis_task.c **** 
  98:Application/chassis_task.c **** uint8_t aimassist_online = 0;
  99:Application/chassis_task.c **** uint32_t aimssistLoseCount = 0;
 100:Application/chassis_task.c **** 
 101:Application/chassis_task.c **** static void Chassis_Get_Theta(void);     // 获取底盘与云台偏角
 102:Application/chassis_task.c **** static void Chassis_Set_Mode(void);      // 设置底盘运动模式
 103:Application/chassis_task.c **** static void Chassis_Get_CtrlValue(void); // 处理来自摇杆与键盘的控制数据
 104:Application/chassis_task.c **** static void Chassis_Set_Control(void);   // 底盘运动解算以及PID计算
 105:Application/chassis_task.c **** static void Send_Chassis_Current(void);  // 发送底盘电机控制电流
 106:Application/chassis_task.c **** static float Max_4(float num1, float num2, float num3, float num4);
 107:Application/chassis_task.c **** static void abs_control(void);
 108:Application/chassis_task.c **** static void Chassis_Power_Limit(void);
 109:Application/chassis_task.c **** static void Chassis_Power_Exp(void); // 计算可能的底盘功率
 110:Application/chassis_task.c **** static void Velocity_MAXLimit(void); // 最大速度限制
 111:Application/chassis_task.c **** static void ChassisMotionEst_Init(void);
 112:Application/chassis_task.c **** static void ChassisMotionEst_Update(float dt);
 113:Application/chassis_task.c **** 
 114:Application/chassis_task.c **** void Chassis_Init(void)
 115:Application/chassis_task.c **** {
 116:Application/chassis_task.c ****     Chassis.VelocityRatio = VELOCITY_RATIO;
 117:Application/chassis_task.c **** 
 118:Application/chassis_task.c ****     Chassis.rcStickRotateRatio = 0;
 119:Application/chassis_task.c **** 
 120:Application/chassis_task.c ****     Chassis.GravityCenter_Adjustment = GRAVUTYCENTER_ADJUSTMENT;
 121:Application/chassis_task.c **** 
 122:Application/chassis_task.c ****     Chassis.PowerControl.Power_correction_gain = POWER_GAIN;
 123:Application/chassis_task.c ****     Chassis.PowerControl.LowVoltage_Gain = LOWVOLTAGE_GAIN;
 124:Application/chassis_task.c **** 
 125:Application/chassis_task.c ****     TD_Init(&Chassis.ChassisVxTD, 1000, 0.01f);
 126:Application/chassis_task.c ****     TD_Init(&Chassis.ChassisVyTD, 1000, 0.01f);
 127:Application/chassis_task.c **** 
 128:Application/chassis_task.c ****     Chassis.TotalTheta = (Gimbal.YawMotor.total_angle - Gimbal.YawMotor.zero_offset) * ENCODERCOEF 
 129:Application/chassis_task.c **** 
 130:Application/chassis_task.c ****     Chassis.Theta = loop_float_constrain((Chassis.TotalTheta + Gimbal.YawMotor.offset_angle * ENCOD
 131:Application/chassis_task.c **** 
 132:Application/chassis_task.c ****     Chassis.YawCorrectionScale = 0;
 133:Application/chassis_task.c **** 
 134:Application/chassis_task.c ****     // 电机速度环PID计算
 135:Application/chassis_task.c ****     for (uint8_t i = 0; i < 4; i++)
 136:Application/chassis_task.c ****     {
 137:Application/chassis_task.c ****         PID_Init(
 138:Application/chassis_task.c ****             &Chassis.ChassisMotor[i].PID_Velocity, 16384, 16384, 0, 15, 30, 0, 500, 100, 0.005, 0, 
 139:Application/chassis_task.c ****         Chassis.ChassisMotor[i].Max_Out = 12000.0f;
 140:Application/chassis_task.c ****     }
 141:Application/chassis_task.c ****     // 底盘跟随云台PID初始化
 142:Application/chassis_task.c ****     PID_Init(&Chassis.RotateFollow, 300, 100, 0, 8, 0, 0, 0,
 143:Application/chassis_task.c ****              0, 0, 0, 1,
 144:Application/chassis_task.c ****              Integral_Limit | Derivative_On_Measurement | OutputFilter | DerivativeFilter);
ARM GAS  C:\Users\86152\AppData\Local\Temp\ccWGVtEI.s 			page 4


 145:Application/chassis_task.c **** 
 146:Application/chassis_task.c ****     PID_Init(&Chassis.SpinningValid, 50, 30, 0, 0.1, 0, 0, 0,
 147:Application/chassis_task.c ****              0, 0, 0, 1,
 148:Application/chassis_task.c ****              Integral_Limit | Derivative_On_Measurement | OutputFilter | DerivativeFilter);
 149:Application/chassis_task.c **** 
 150:Application/chassis_task.c ****     TD_Init(&Chassis.SpinningTD, 100000, 0.001);
 151:Application/chassis_task.c **** 
 152:Application/chassis_task.c ****     Matrix_Init(&Chassis.ChassisMotionEst.H, 4, 6, (float *)Chassis.ChassisMotionEst.H_data);
 153:Application/chassis_task.c ****     Matrix_Init(&Chassis.ChassisMotionEst.HT, 6, 4, (float *)Chassis.ChassisMotionEst.HT_data);
 154:Application/chassis_task.c ****     ChassisMotionEst_Init();
 155:Application/chassis_task.c ****     Chassis.IsSpining = 0;
 156:Application/chassis_task.c **** }
 157:Application/chassis_task.c **** 
 158:Application/chassis_task.c **** static void ChassisMotionEst_Init(void)
 159:Application/chassis_task.c **** {
 160:Application/chassis_task.c ****     // Chassis.ChassisMotionEst.UseAutoAdjustment = TRUE;
 161:Application/chassis_task.c ****     Kalman_Filter_Init(&Chassis.ChassisMotionEst, 6, 0, 4);
 162:Application/chassis_task.c ****     Chassis.ChassisMotionEst.MeasurementMap[0] = 2;
 163:Application/chassis_task.c ****     Chassis.ChassisMotionEst.MeasurementMap[1] = 3;
 164:Application/chassis_task.c ****     Chassis.ChassisMotionEst.MeasurementMap[2] = 5;
 165:Application/chassis_task.c ****     Chassis.ChassisMotionEst.MeasurementMap[3] = 6;
 166:Application/chassis_task.c ****     Chassis.ChassisMotionEst.MeasurementDegree[0] = 1;
 167:Application/chassis_task.c ****     Chassis.ChassisMotionEst.MeasurementDegree[1] = 1;
 168:Application/chassis_task.c ****     Chassis.ChassisMotionEst.MeasurementDegree[2] = 1;
 169:Application/chassis_task.c ****     Chassis.ChassisMotionEst.MeasurementDegree[3] = 1;
 170:Application/chassis_task.c ****     // Chassis.ChassisMotionEst.MatR_DiagonalElements[0] = 100;
 171:Application/chassis_task.c ****     // Chassis.ChassisMotionEst.MatR_DiagonalElements[1] = 100;
 172:Application/chassis_task.c ****     // Chassis.ChassisMotionEst.MatR_DiagonalElements[2] = 100;
 173:Application/chassis_task.c ****     // Chassis.ChassisMotionEst.MatR_DiagonalElements[3] = 100;
 174:Application/chassis_task.c ****     memcpy(Chassis.ChassisMotionEst.F_data, ChassisMotionEst_F, sizeof(ChassisMotionEst_F));
 175:Application/chassis_task.c ****     memcpy(Chassis.ChassisMotionEst.P_data, ChassisMotionEst_Pinit, sizeof(ChassisMotionEst_Pinit))
 176:Application/chassis_task.c ****     memcpy(Chassis.ChassisMotionEst.Q_data, ChassisMotionEst_Q, sizeof(ChassisMotionEst_Q));
 177:Application/chassis_task.c ****     memcpy(Chassis.ChassisMotionEst.R_data, ChassisMotionEst_R, sizeof(ChassisMotionEst_R));
 178:Application/chassis_task.c ****     memcpy(Chassis.ChassisMotionEst.H_data, ChassisMotionEst_H, sizeof(ChassisMotionEst_H));
 179:Application/chassis_task.c ****     // Chassis.ChassisMotionEst.User_Func0_f = ChassisMotionEst_Tuning;
 180:Application/chassis_task.c ****     // Chassis.ChassisMotionEst.User_Func3_f = ChassisMotionEst_ChiSquare_Test;
 181:Application/chassis_task.c **** }
 182:Application/chassis_task.c **** 
 183:Application/chassis_task.c **** void Chassis_Control(void)
 184:Application/chassis_task.c **** {
 185:Application/chassis_task.c ****     dt = DWT_GetDeltaT(&Chassis_DWT_Count);
 186:Application/chassis_task.c ****     t += dt;
 187:Application/chassis_task.c ****     ChassisMotionEst_Update(dt);
 188:Application/chassis_task.c ****     // 获取底盘与云台偏角
 189:Application/chassis_task.c ****     Chassis_Get_Theta();
 190:Application/chassis_task.c ****     // 设置底盘运动模式
 191:Application/chassis_task.c ****     Chassis_Set_Mode();
 192:Application/chassis_task.c ****     // 处理来自摇杆与键盘的控制数据
 193:Application/chassis_task.c ****     Chassis_Get_CtrlValue();
 194:Application/chassis_task.c ****     // 底盘运动解算以及PID计算
 195:Application/chassis_task.c ****     Chassis_Set_Control();
 196:Application/chassis_task.c ****     // 发送底盘电机控制电流
 197:Application/chassis_task.c ****     Send_Chassis_Current();
 198:Application/chassis_task.c ****     // 发送云台手数据
 199:Application/chassis_task.c ****     SendAerialData(&hcan2, &TempAerialX, &TempAerialY, &map_interactivity.commd_keyboard);
 200:Application/chassis_task.c **** }
 201:Application/chassis_task.c **** 
ARM GAS  C:\Users\86152\AppData\Local\Temp\ccWGVtEI.s 			page 5


 202:Application/chassis_task.c **** static void Chassis_Get_Theta(void)
 203:Application/chassis_task.c **** {
 204:Application/chassis_task.c ****     // 底盘与云台偏角获取
 205:Application/chassis_task.c ****     Chassis.TotalTheta = (Gimbal.YawMotor.total_angle - Gimbal.YawMotor.zero_offset) * ENCODERCOEF 
 206:Application/chassis_task.c **** 
 207:Application/chassis_task.c ****     Chassis.Theta = loop_float_constrain((Chassis.TotalTheta +
 208:Application/chassis_task.c ****                                           Gimbal.YawMotor.offset_angle * ENCODERCOEF * YAW_REDUCTIO
 209:Application/chassis_task.c ****                                          -180, 180);
 210:Application/chassis_task.c **** 
 211:Application/chassis_task.c ****     if (is_TOE_Error(GIMBAL_YAW_MOTOR_TOE))
 212:Application/chassis_task.c ****     {
 213:Application/chassis_task.c ****         Chassis.TotalTheta = 0;
 214:Application/chassis_task.c ****         Chassis.Theta = 0;
 215:Application/chassis_task.c ****     }
 216:Application/chassis_task.c **** 
 217:Application/chassis_task.c ****     Chassis.FollowTheta = float_deadband(Chassis.Theta, -0.005f, 0.005f);
 218:Application/chassis_task.c ****     Insert_thetaFrame(Chassis.thetaFrame, Chassis.FollowTheta, INS_GetTimeline());
 219:Application/chassis_task.c **** }
 220:Application/chassis_task.c **** 
 221:Application/chassis_task.c **** static void Chassis_Get_CtrlValue(void)
 222:Application/chassis_task.c **** {
 223:Application/chassis_task.c ****     static float Temp_Vx, Temp_Vy; // 速度的期望值
 224:Application/chassis_task.c ****     static float tempVal;
 225:Application/chassis_task.c ****     static float RC = 0.000001f;
 226:Application/chassis_task.c **** 
 227:Application/chassis_task.c ****     // 功率限制与实际值不符时
 228:Application/chassis_task.c ****     if (robot_state.chassis_power_limit >= 10240) // 数据包体积的最大值
 229:Application/chassis_task.c ****         robot_state.chassis_power_limit /= 256;
 230:Application/chassis_task.c ****     // 功率限幅
 231:Application/chassis_task.c ****     if (robot_state.chassis_power_limit > 120) // 数据包的体积的最小值
 232:Application/chassis_task.c ****         robot_state.chassis_power_limit = 120;
 233:Application/chassis_task.c ****     // 功率最低限制
 234:Application/chassis_task.c ****     if (robot_state.chassis_power_limit == 0)
 235:Application/chassis_task.c ****         robot_state.chassis_power_limit = 45;
 236:Application/chassis_task.c **** 
 237:Application/chassis_task.c ****     if (robot_state.chassis_power_limit != 0)
 238:Application/chassis_task.c ****         Chassis.VelocityRatio = float_constrain(robot_state.chassis_power_limit / 10.0f + 2, 3, 7);
 239:Application/chassis_task.c **** 
 240:Application/chassis_task.c ****     Temp_Vx = 0;
 241:Application/chassis_task.c ****     Temp_Vy = 0;
 242:Application/chassis_task.c ****     Temp_Vx += remote_control.ch3;
 243:Application/chassis_task.c ****     Temp_Vy += remote_control.ch4 == -660 ? 0 : remote_control.ch4; // ch4 != -660 ?
 244:Application/chassis_task.c **** 
 245:Application/chassis_task.c ****     if (remote_control.switch_left == Switch_Up)
 246:Application/chassis_task.c ****     {
 247:Application/chassis_task.c ****         Temp_Vx *= 2;
 248:Application/chassis_task.c ****         Temp_Vy *= 2;
 249:Application/chassis_task.c ****     }
 250:Application/chassis_task.c **** 
 251:Application/chassis_task.c ****     if (fabsf(Temp_Vx) > 1e-3f) // 上升部分 1e-3f ~~ 0
 252:Application/chassis_task.c ****     {
 253:Application/chassis_task.c ****         if (Chassis.Vx * Temp_Vx < 0)
 254:Application/chassis_task.c ****             Chassis.Vx = 0;
 255:Application/chassis_task.c **** 
 256:Application/chassis_task.c ****         tempVal = (Temp_Vx - Chassis.Vx) / (RC + dt);
 257:Application/chassis_task.c ****         if (tempVal > Vx_k)
 258:Application/chassis_task.c ****             tempVal = Vx_k;
ARM GAS  C:\Users\86152\AppData\Local\Temp\ccWGVtEI.s 			page 6


 259:Application/chassis_task.c ****         else if (tempVal < -Vx_k)
 260:Application/chassis_task.c ****             tempVal = -Vx_k;
 261:Application/chassis_task.c ****         Chassis.Vx += tempVal * dt;
 262:Application/chassis_task.c ****     }
 263:Application/chassis_task.c ****     else
 264:Application/chassis_task.c ****     {
 265:Application/chassis_task.c ****         tempVal = (Temp_Vx - Chassis.Vx) / (0.01f + dt);
 266:Application/chassis_task.c ****         Chassis.Vx += tempVal * dt;
 267:Application/chassis_task.c ****     }
 268:Application/chassis_task.c **** 
 269:Application/chassis_task.c ****     if (fabsf(Temp_Vy) > 1e-3f)
 270:Application/chassis_task.c ****     {
 271:Application/chassis_task.c ****         if (Chassis.Vy * Temp_Vy < 0)
 272:Application/chassis_task.c ****             Chassis.Vy = 0;
 273:Application/chassis_task.c ****         tempVal = (Temp_Vy - Chassis.Vy) / (RC + dt);
 274:Application/chassis_task.c ****         if (tempVal > Vy_k)
 275:Application/chassis_task.c ****             tempVal = Vy_k;
 276:Application/chassis_task.c ****         else if (tempVal < -Vy_k)
 277:Application/chassis_task.c ****             tempVal = -Vy_k;
 278:Application/chassis_task.c ****         Chassis.Vy += tempVal * dt;
 279:Application/chassis_task.c ****     }
 280:Application/chassis_task.c ****     else
 281:Application/chassis_task.c ****     {
 282:Application/chassis_task.c ****         tempVal = (Temp_Vy - Chassis.Vy) / (0.01f + dt);
 283:Application/chassis_task.c ****         Chassis.Vy += tempVal * dt;
 284:Application/chassis_task.c ****     }
 285:Application/chassis_task.c **** 
 286:Application/chassis_task.c ****     Chassis.Vx = float_constrain(Chassis.Vx, -400.0f, 400.0f);
 287:Application/chassis_task.c ****     Chassis.Vy = float_constrain(Chassis.Vy, -400.0f, 400.0f);
 288:Application/chassis_task.c **** }
 289:Application/chassis_task.c **** 
 290:Application/chassis_task.c **** static void Chassis_Set_Mode(void)
 291:Application/chassis_task.c **** {
 292:Application/chassis_task.c ****     static uint16_t LastKeyCode = 0;
 293:Application/chassis_task.c **** 
 294:Application/chassis_task.c ****     if (is_TOE_Error(CHASSIS_MOTOR1_TOE) && is_TOE_Error(CHASSIS_MOTOR2_TOE) && is_TOE_Error(CHASSI
 295:Application/chassis_task.c ****         Chassis.Mode = Silence_Mode;
 296:Application/chassis_task.c **** 
 297:Application/chassis_task.c ****     // 拨杆切换运动模式
 298:Application/chassis_task.c ****     switch (remote_control.switch_right)
 299:Application/chassis_task.c ****     {
 300:Application/chassis_task.c ****     case Switch_Up: //
 301:Application/chassis_task.c ****         Chassis.Mode = Spinning_Mode;
 302:Application/chassis_task.c ****         //		Chassis.FollowCoef = 0;
 303:Application/chassis_task.c ****         break;
 304:Application/chassis_task.c **** 
 305:Application/chassis_task.c ****     case Switch_Middle: // All from Keyboard?
 306:Application/chassis_task.c ****         Chassis.Mode = Follow_Mode;
 307:Application/chassis_task.c ****         Chassis.FollowCoef = 0;
 308:Application/chassis_task.c ****         break;
 309:Application/chassis_task.c **** 
 310:Application/chassis_task.c ****     case Switch_Down: // All from Keyboard?
 311:Application/chassis_task.c ****         Chassis.Mode = Follow_Mode;
 312:Application/chassis_task.c ****         Chassis.FollowCoef = 0;
 313:Application/chassis_task.c ****         break;
 314:Application/chassis_task.c ****     }
 315:Application/chassis_task.c ****     if ((remote_control.switch_left == Switch_Down) && (remote_control.switch_right == Switch_Up))
ARM GAS  C:\Users\86152\AppData\Local\Temp\ccWGVtEI.s 			page 7


 316:Application/chassis_task.c ****     {
 317:Application/chassis_task.c ****         Chassis.Mode = Debug_Mode;
 318:Application/chassis_task.c ****     }
 319:Application/chassis_task.c **** 
 320:Application/chassis_task.c ****     AerialKeyBoardCmd();
 321:Application/chassis_task.c **** 
 322:Application/chassis_task.c ****     last_game_status = game_status.game_progress;
 323:Application/chassis_task.c ****     LastKeyCode = remote_control.key_code;
 324:Application/chassis_task.c **** }
 325:Application/chassis_task.c **** 
 326:Application/chassis_task.c **** static void Chassis_Set_Control(void)
 327:Application/chassis_task.c **** {
 328:Application/chassis_task.c ****     static float tempVr, posX100, posY100;
 329:Application/chassis_task.c ****     static float SpiningDistance, spinnig_center0_temp, spinnig_center1_temp, move_ratio;
 330:Application/chassis_task.c ****     static uint32_t center_count, edge_count, data_novalid_count, reach_count;
 331:Application/chassis_task.c ****     static uint8_t thetaFrameNum, is_velocity;
 332:Application/chassis_task.c ****     static uint8_t reach_num = 0;
 333:Application/chassis_task.c **** 
 334:Application/chassis_task.c ****     switch (Chassis.Mode)
 335:Application/chassis_task.c ****     {
 336:Application/chassis_task.c ****     case Follow_Mode:
 337:Application/chassis_task.c ****     FOLLOW:
 338:Application/chassis_task.c ****         if (fabsf(Chassis.FollowTheta) < 0.005f) // 判断是否正对头部
 339:Application/chassis_task.c ****             Chassis.Vr = remote_control.ch1 * Chassis.rcStickRotateRatio;
 340:Application/chassis_task.c ****         else
 341:Application/chassis_task.c ****         {
 342:Application/chassis_task.c ****             if (remote_control.switch_left == Switch_Up)
 343:Application/chassis_task.c ****                 Chassis.Vr = PID_Calculate(&Chassis.RotateFollow, Chassis.FollowTheta, 0.0f);
 344:Application/chassis_task.c ****             else
 345:Application/chassis_task.c ****             {
 346:Application/chassis_task.c ****                 Chassis.Vr = PID_Calculate(&Chassis.RotateFollow, Chassis.FollowTheta, 0.0f) +
 347:Application/chassis_task.c ****                              remote_control.ch1 * Chassis.rcStickRotateRatio;
 348:Application/chassis_task.c ****             }
 349:Application/chassis_task.c ****         }
 350:Application/chassis_task.c ****         Chassis.VxTransfer = user_cos(-Chassis.FollowTheta / RADIAN_COEF) * (Chassis.Vx + Chassis.F
 351:Application/chassis_task.c ****                              user_sin(-Chassis.FollowTheta / RADIAN_COEF) * (Chassis.Vy + Chassis.F
 352:Application/chassis_task.c ****         Chassis.VyTransfer = -user_sin(-Chassis.FollowTheta / RADIAN_COEF) * (Chassis.Vx + Chassis.
 353:Application/chassis_task.c ****                              user_cos(-Chassis.FollowTheta / RADIAN_COEF) * (Chassis.Vy + Chassis.F
 354:Application/chassis_task.c **** 
 355:Application/chassis_task.c ****         if (Chassis.Mode == Spinning_Mode)
 356:Application/chassis_task.c ****         {
 357:Application/chassis_task.c ****             Chassis.Vr *= 2;
 358:Application/chassis_task.c ****             tempTime_Sprint = USER_GetTick();
 359:Application/chassis_task.c ****         }
 360:Application/chassis_task.c ****         break;
 361:Application/chassis_task.c **** 
 362:Application/chassis_task.c ****     case Silence_Mode:
 363:Application/chassis_task.c ****         Chassis.Vr = 0;
 364:Application/chassis_task.c ****         Chassis.VxTransfer = 0;
 365:Application/chassis_task.c ****         Chassis.VyTransfer = 0;
 366:Application/chassis_task.c ****         break;
 367:Application/chassis_task.c **** 
 368:Application/chassis_task.c ****     case Spinning_Mode:
 369:Application/chassis_task.c ****         if (robot_state.robot_id <= 7) // red
 370:Application/chassis_task.c ****         {
 371:Application/chassis_task.c ****             outpost_HP = game_robot_HP.red_outpost_HP;
 372:Application/chassis_task.c ****             sentry_HP = game_robot_HP.red_7_robot_HP;
ARM GAS  C:\Users\86152\AppData\Local\Temp\ccWGVtEI.s 			page 8


 373:Application/chassis_task.c ****         }
 374:Application/chassis_task.c ****         else
 375:Application/chassis_task.c ****         {
 376:Application/chassis_task.c ****             outpost_HP = game_robot_HP.blue_outpost_HP;
 377:Application/chassis_task.c ****             sentry_HP = game_robot_HP.blue_7_robot_HP;
 378:Application/chassis_task.c ****         }
 379:Application/chassis_task.c **** 
 380:Application/chassis_task.c ****         if (use_spinningmove == 1)
 381:Application/chassis_task.c ****         {
 382:Application/chassis_task.c ****             if ((game_status.game_progress == 4) || (outpost_HP != 1500 && outpost_HP != 0))
 383:Application/chassis_task.c ****             {
 384:Application/chassis_task.c ****                 tempVr = 0.0f; // 0
 385:Application/chassis_task.c ****                 is_velocity = 1;
 386:Application/chassis_task.c ****                 Chassis.PlanX = Chassis.PlanX * 0.1 / (0.1 + dt) + Chassis.PlanX1000 / 10 * dt / (0
 387:Application/chassis_task.c ****                 Chassis.PlanY = Chassis.PlanY * 0.1 / (0.1 + dt) + Chassis.PlanY1000 / 10 * dt / (0
 388:Application/chassis_task.c ****                 Chassis.spinnig_center[0] = Chassis.PlanX;
 389:Application/chassis_task.c ****                 Chassis.spinnig_center[1] = Chassis.PlanY;
 390:Application/chassis_task.c ****                 move_ratio = 6.6f; // 2.2
 391:Application/chassis_task.c ****             }
 392:Application/chassis_task.c ****         }
 393:Application/chassis_task.c ****         else if (use_spinningmove == 2)
 394:Application/chassis_task.c ****         {
 395:Application/chassis_task.c ****             if (reach_num != 6)
 396:Application/chassis_task.c ****                 tempVr = 250.0f;
 397:Application/chassis_task.c **** 
 398:Application/chassis_task.c ****             is_velocity = 1;
 399:Application/chassis_task.c **** 
 400:Application/chassis_task.c ****             posX100 = Chassis.posX * 0.002 / (0.002 + dt) + Chassis.posX1000 / 10 * dt / (0.002 + d
 401:Application/chassis_task.c ****             posY100 = Chassis.posY * 0.002 / (0.002 + dt) + Chassis.posY1000 / 10 * dt / (0.002 + d
 402:Application/chassis_task.c **** 
 403:Application/chassis_task.c ****             move_ratio = 0.12;
 404:Application/chassis_task.c ****             switch (reach_num)
 405:Application/chassis_task.c ****             {
 406:Application/chassis_task.c ****             case 0:
 407:Application/chassis_task.c ****                 Chassis.spinnig_center[0] = -162.1f;
 408:Application/chassis_task.c ****                 Chassis.spinnig_center[1] = -223.5f;
 409:Application/chassis_task.c ****                 break;
 410:Application/chassis_task.c **** 
 411:Application/chassis_task.c ****             case 1:
 412:Application/chassis_task.c ****                 Chassis.spinnig_center[0] = -333.1f;
 413:Application/chassis_task.c ****                 Chassis.spinnig_center[1] = -301.8f;
 414:Application/chassis_task.c ****                 break;
 415:Application/chassis_task.c **** 
 416:Application/chassis_task.c ****             case 2:
 417:Application/chassis_task.c ****                 Chassis.spinnig_center[0] = -480.6f;
 418:Application/chassis_task.c ****                 Chassis.spinnig_center[1] = -301.8f;
 419:Application/chassis_task.c ****                 break;
 420:Application/chassis_task.c **** 
 421:Application/chassis_task.c ****             case 3:
 422:Application/chassis_task.c ****                 Chassis.spinnig_center[0] = -698.6f;
 423:Application/chassis_task.c ****                 Chassis.spinnig_center[1] = -301.8f;
 424:Application/chassis_task.c ****                 break;
 425:Application/chassis_task.c **** 
 426:Application/chassis_task.c ****             case 4:
 427:Application/chassis_task.c ****                 Chassis.spinnig_center[0] = -670.1f;
 428:Application/chassis_task.c ****                 Chassis.spinnig_center[1] = -104.4f;
 429:Application/chassis_task.c ****                 break;
ARM GAS  C:\Users\86152\AppData\Local\Temp\ccWGVtEI.s 			page 9


 430:Application/chassis_task.c **** 
 431:Application/chassis_task.c ****             case 5:
 432:Application/chassis_task.c ****                 Chassis.spinnig_center[0] = -415.7f;
 433:Application/chassis_task.c ****                 Chassis.spinnig_center[1] = -104.4f;
 434:Application/chassis_task.c ****                 break;
 435:Application/chassis_task.c ****             }
 436:Application/chassis_task.c ****             arm_sqrt_f32((posX100 - Chassis.spinnig_center[0]) * (posX100 - Chassis.spinnig_center[
 437:Application/chassis_task.c ****                              (posY100 - Chassis.spinnig_center[1]) * (posY100 - Chassis.spinnig_cen
 438:Application/chassis_task.c ****                          &SpiningDistance);
 439:Application/chassis_task.c **** 
 440:Application/chassis_task.c ****             if (SpiningDistance < 300.0f)
 441:Application/chassis_task.c ****                 reach_count++;
 442:Application/chassis_task.c ****             else
 443:Application/chassis_task.c ****                 reach_count = 0;
 444:Application/chassis_task.c **** 
 445:Application/chassis_task.c ****             if (reach_count > 2000)
 446:Application/chassis_task.c ****             {
 447:Application/chassis_task.c ****                 if (reach_num == 0)
 448:Application/chassis_task.c ****                 {
 449:Application/chassis_task.c ****                     reach_num = 1;
 450:Application/chassis_task.c ****                     reach_count = 0;
 451:Application/chassis_task.c ****                 }
 452:Application/chassis_task.c ****                 else if (reach_num == 1)
 453:Application/chassis_task.c ****                 {
 454:Application/chassis_task.c ****                     reach_num = 2;
 455:Application/chassis_task.c ****                     reach_count = 0;
 456:Application/chassis_task.c ****                 }
 457:Application/chassis_task.c ****                 else if (reach_num == 2)
 458:Application/chassis_task.c ****                 {
 459:Application/chassis_task.c ****                     reach_num = 3;
 460:Application/chassis_task.c ****                     reach_count = 0;
 461:Application/chassis_task.c ****                 }
 462:Application/chassis_task.c ****                 else if (reach_num == 3)
 463:Application/chassis_task.c ****                 {
 464:Application/chassis_task.c ****                     reach_num = 4;
 465:Application/chassis_task.c ****                     reach_count = 0;
 466:Application/chassis_task.c ****                 }
 467:Application/chassis_task.c ****                 else if (reach_num == 4)
 468:Application/chassis_task.c ****                 {
 469:Application/chassis_task.c ****                     reach_num = 5;
 470:Application/chassis_task.c ****                     reach_count = 0;
 471:Application/chassis_task.c ****                 }
 472:Application/chassis_task.c ****                 else if (reach_num == 5)
 473:Application/chassis_task.c ****                 {
 474:Application/chassis_task.c ****                     reach_num = 6;
 475:Application/chassis_task.c ****                     reach_count = 0;
 476:Application/chassis_task.c ****                 }
 477:Application/chassis_task.c ****             }
 478:Application/chassis_task.c **** 
 479:Application/chassis_task.c ****             if (reach_num == 6)
 480:Application/chassis_task.c ****             {
 481:Application/chassis_task.c ****                 tempVr = 450.0f;
 482:Application/chassis_task.c ****                 spinnig_center0_temp = -415.7f;
 483:Application/chassis_task.c ****                 spinnig_center1_temp = -99.4f;
 484:Application/chassis_task.c **** 
 485:Application/chassis_task.c ****                 Chassis.spinnig_center[0] = spinnig_center0_temp - 40.0f * arm_sin_f32(t * pi / 2) 
 486:Application/chassis_task.c ****                 Chassis.spinnig_center[1] = spinnig_center1_temp;
ARM GAS  C:\Users\86152\AppData\Local\Temp\ccWGVtEI.s 			page 10


 487:Application/chassis_task.c ****                 move_ratio = 0.35;
 488:Application/chassis_task.c ****             }
 489:Application/chassis_task.c ****         }
 490:Application/chassis_task.c ****         else
 491:Application/chassis_task.c ****         {
 492:Application/chassis_task.c ****             if (outpost_HP < 200 || sentry_HP != 1000)
 493:Application/chassis_task.c ****             {
 494:Application/chassis_task.c ****                 arm_sqrt_f32((Chassis.posX1000 - Chassis.spinnig_center[0]) * (Chassis.posX1000 - C
 495:Application/chassis_task.c ****                                  (Chassis.posY1000 - Chassis.spinnig_center[1]) * (Chassis.posY1000
 496:Application/chassis_task.c ****                              &SpiningDistance);
 497:Application/chassis_task.c **** 
 498:Application/chassis_task.c ****                 if (SpiningDistance < 600.0f)
 499:Application/chassis_task.c ****                     center_count++;
 500:Application/chassis_task.c ****                 else
 501:Application/chassis_task.c ****                     center_count = 0;
 502:Application/chassis_task.c **** 
 503:Application/chassis_task.c ****                 if (center_count > 2500 && SpiningDistance < 300.0f)
 504:Application/chassis_task.c ****                 {
 505:Application/chassis_task.c ****                     tempVr = 700.0f;
 506:Application/chassis_task.c ****                     is_velocity = 0;
 507:Application/chassis_task.c ****                 }
 508:Application/chassis_task.c ****                 else if (SpiningDistance < 1500.0f)
 509:Application/chassis_task.c ****                 {
 510:Application/chassis_task.c ****                     tempVr = 450.0f;
 511:Application/chassis_task.c ****                     is_velocity = 1;
 512:Application/chassis_task.c ****                 }
 513:Application/chassis_task.c **** 
 514:Application/chassis_task.c ****                 if (SpiningDistance > 1500.0f && SpiningDistance < 5000.0f)
 515:Application/chassis_task.c ****                     edge_count++;
 516:Application/chassis_task.c ****                 else
 517:Application/chassis_task.c ****                     edge_count = 0;
 518:Application/chassis_task.c **** 
 519:Application/chassis_task.c ****                 if (edge_count > 2000)
 520:Application/chassis_task.c ****                 {
 521:Application/chassis_task.c ****                     tempVr = 450.0f;
 522:Application/chassis_task.c ****                     is_velocity = 1;
 523:Application/chassis_task.c ****                     Chassis.spinnig_center[0] = Chassis.posX;
 524:Application/chassis_task.c ****                     Chassis.spinnig_center[1] = Chassis.posY;
 525:Application/chassis_task.c ****                 }
 526:Application/chassis_task.c **** 
 527:Application/chassis_task.c ****                 if (SpiningDistance > 10000.0f)
 528:Application/chassis_task.c ****                     data_novalid_count++;
 529:Application/chassis_task.c ****                 else
 530:Application/chassis_task.c ****                     data_novalid_count = 0;
 531:Application/chassis_task.c **** 
 532:Application/chassis_task.c ****                 if (data_novalid_count > 500)
 533:Application/chassis_task.c ****                 {
 534:Application/chassis_task.c ****                     tempVr = 700.0f;
 535:Application/chassis_task.c ****                     is_velocity = 0;
 536:Application/chassis_task.c ****                 }
 537:Application/chassis_task.c ****             }
 538:Application/chassis_task.c ****             else
 539:Application/chassis_task.c ****             {
 540:Application/chassis_task.c ****                 tempVr = 150.0f;
 541:Application/chassis_task.c ****                 is_velocity = 1;
 542:Application/chassis_task.c ****             }
 543:Application/chassis_task.c ****         }
ARM GAS  C:\Users\86152\AppData\Local\Temp\ccWGVtEI.s 			page 11


 544:Application/chassis_task.c **** 
 545:Application/chassis_task.c ****         // Chassis.posX1000 = int16_deadband(Chassis.posX1000, -50, 50);
 546:Application/chassis_task.c ****         // Chassis.posY1000 = int16_deadband(Chassis.posY1000, -50, 50);
 547:Application/chassis_task.c ****         Chassis.posX = Chassis.posX * 0.002 / (0.002 + dt) + Chassis.posX1000 / 10.0f * dt / (0.002
 548:Application/chassis_task.c ****         Chassis.posY = Chassis.posY * 0.002 / (0.002 + dt) + Chassis.posY1000 / 10.0f * dt / (0.002
 549:Application/chassis_task.c ****         Chassis.posZ = Chassis.posZ1000 / 1000.0f;
 550:Application/chassis_task.c **** 
 551:Application/chassis_task.c ****         if ((fabs(Chassis.posX - Chassis.PlanX) <= 15) && (fabs(Chassis.posY - Chassis.PlanY) <= 15
 552:Application/chassis_task.c ****         {
 553:Application/chassis_task.c ****             InPosCount++;
 554:Application/chassis_task.c ****             if (InPosCount >= 500)
 555:Application/chassis_task.c ****             {
 556:Application/chassis_task.c ****                 InPosFlag = 1;
 557:Application/chassis_task.c ****                 InPosCount = 500;
 558:Application/chassis_task.c ****             }
 559:Application/chassis_task.c ****         }
 560:Application/chassis_task.c ****         else
 561:Application/chassis_task.c ****         {
 562:Application/chassis_task.c ****             InPosCount = 0;
 563:Application/chassis_task.c ****             InPosFlag = 0;
 564:Application/chassis_task.c ****         }
 565:Application/chassis_task.c **** 
 566:Application/chassis_task.c ****         Chassis.Vr = Chassis.Vr * 0.2f / (0.2f + dt) + tempVr * dt / (0.2f + dt);
 567:Application/chassis_task.c ****         Chassis.Vr = float_constrain(Chassis.Vr, 0.0f, 1000.0f);
 568:Application/chassis_task.c **** 
 569:Application/chassis_task.c ****         SpinningValidVx = PID_Calculate(&Chassis.SpinningValid, Chassis.posX, Chassis.spinnig_cente
 570:Application/chassis_task.c ****         SpinningValidVy = PID_Calculate(&Chassis.SpinningValid, Chassis.posY, Chassis.spinnig_cente
 571:Application/chassis_task.c **** 
 572:Application/chassis_task.c ****         thetaFrameNum = Find_thetaFrame(Chassis.thetaFrame, (uint32_t)(INS_GetTimeline() - debugval
 573:Application/chassis_task.c ****         preFollowTheta = Chassis.thetaFrame[thetaFrameNum].FollowTheta / RADIAN_COEF;
 574:Application/chassis_task.c ****         SpinningValidTheta = STD_RADIAN(-preFollowTheta + Chassis.posZ);
 575:Application/chassis_task.c **** 
 576:Application/chassis_task.c ****         Chassis.VxTransfer = user_cos(SpinningValidTheta) * (Chassis.Vx + SpinningValidVx * 10.0f *
 577:Application/chassis_task.c ****                              user_sin(SpinningValidTheta) * (Chassis.Vy + SpinningValidVy * 10.0f *
 578:Application/chassis_task.c ****         Chassis.VyTransfer = -user_sin(SpinningValidTheta) * (Chassis.Vx + SpinningValidVx * 10.0f 
 579:Application/chassis_task.c ****                              user_cos(SpinningValidTheta) * (Chassis.Vy + SpinningValidVy * 10.0f *
 580:Application/chassis_task.c **** 
 581:Application/chassis_task.c ****         Chassis.VxTransfer *= move_ratio;
 582:Application/chassis_task.c ****         Chassis.VyTransfer *= move_ratio;
 583:Application/chassis_task.c ****         break;
 584:Application/chassis_task.c **** 
 585:Application/chassis_task.c ****     case Side_Mode:
 586:Application/chassis_task.c ****         Chassis.Vr = 0;
 587:Application/chassis_task.c ****         Chassis.FollowTheta = 0.0f;
 588:Application/chassis_task.c ****         Chassis.VxTransfer = user_cos(-Chassis.FollowTheta / RADIAN_COEF) * Chassis.Vx +
 589:Application/chassis_task.c ****                              user_sin(-Chassis.FollowTheta / RADIAN_COEF) * Chassis.Vy;
 590:Application/chassis_task.c ****         Chassis.VyTransfer = -user_sin(-Chassis.FollowTheta / RADIAN_COEF) * Chassis.Vx +
 591:Application/chassis_task.c ****                              user_cos(-Chassis.FollowTheta / RADIAN_COEF) * Chassis.Vy;
 592:Application/chassis_task.c ****         break;
 593:Application/chassis_task.c ****     case Count_Mode:
 594:Application/chassis_task.c ****         // if (game_status.game_progress == 4)
 595:Application/chassis_task.c ****         // {
 596:Application/chassis_task.c ****         // if (Last_game_status != 4 && game_status.game_progress == 4 && method != 1 && method != 
 597:Application/chassis_task.c ****         // {
 598:Application/chassis_task.c ****         //     walktodes = 1;
 599:Application/chassis_task.c ****         //     method = 4;
 600:Application/chassis_task.c ****         // }
ARM GAS  C:\Users\86152\AppData\Local\Temp\ccWGVtEI.s 			page 12


 601:Application/chassis_task.c **** 
 602:Application/chassis_task.c ****         //                if ((method == 1 || method == 2 || method == 3 || method == 4) && walktod
 603:Application/chassis_task.c ****         //                {
 604:Application/chassis_task.c ****         //                    Chassis.Vr = 0;
 605:Application/chassis_task.c ****         //                    Chassis.VyTransfer = PID_Calculate(&MiniPC_CtrlFrame.PID_Follow, Chas
 606:Application/chassis_task.c ****         //                }
 607:Application/chassis_task.c **** 
 608:Application/chassis_task.c ****         //                if (!walktodes)
 609:Application/chassis_task.c ****         //                    Chassis.Vr = 0;
 610:Application/chassis_task.c **** 
 611:Application/chassis_task.c ****         //                if (fabsf(Chassis.Position[1] - 304.0f) < 5.0f)
 612:Application/chassis_task.c ****         //                    ReachCount++;
 613:Application/chassis_task.c ****         user_count_time += dt;
 614:Application/chassis_task.c ****         //        if (aimassist_online == 1 && lostaim == 0)
 615:Application/chassis_task.c ****         //        {
 616:Application/chassis_task.c ****         aimssistLoseCount = 0;
 617:Application/chassis_task.c ****         if (ReachFinished == 0)
 618:Application/chassis_task.c ****         {
 619:Application/chassis_task.c ****             Chassis.FollowCoef = 1;
 620:Application/chassis_task.c ****             if (Chassis.geto_des == 0)
 621:Application/chassis_task.c ****             {
 622:Application/chassis_task.c ****                 if (Chassis.IsSpining)
 623:Application/chassis_task.c ****                 {
 624:Application/chassis_task.c ****                     // tempVr = 220.0f;
 625:Application/chassis_task.c ****                     Chassis.Vr = 220.0f;
 626:Application/chassis_task.c ****                 }
 627:Application/chassis_task.c ****                 else
 628:Application/chassis_task.c ****                 {
 629:Application/chassis_task.c ****                     Chassis.Vr = 0.0f;
 630:Application/chassis_task.c ****                 }
 631:Application/chassis_task.c ****             }
 632:Application/chassis_task.c ****             if (Chassis.geto_des == 1)
 633:Application/chassis_task.c ****             {
 634:Application/chassis_task.c ****                 ReachCount++;
 635:Application/chassis_task.c ****             }
 636:Application/chassis_task.c ****             if (ReachCount > 9)
 637:Application/chassis_task.c ****             {
 638:Application/chassis_task.c ****                 ReachFinished = 1;
 639:Application/chassis_task.c ****                 ReachCount = 0;
 640:Application/chassis_task.c ****             }
 641:Application/chassis_task.c ****         }
 642:Application/chassis_task.c ****         else // ReachFinished == 1
 643:Application/chassis_task.c ****         {
 644:Application/chassis_task.c ****             Chassis.FollowCoef = 0;
 645:Application/chassis_task.c ****             if (Chassis.geto_des == 1)
 646:Application/chassis_task.c ****             {
 647:Application/chassis_task.c ****                 Chassis.Vr = 750.0f;
 648:Application/chassis_task.c ****             }
 649:Application/chassis_task.c ****             else // Chassis.geto_des == 0
 650:Application/chassis_task.c ****             {
 651:Application/chassis_task.c ****                 ReachCount++;
 652:Application/chassis_task.c ****             }
 653:Application/chassis_task.c ****             if (ReachCount > 5)
 654:Application/chassis_task.c ****             {
 655:Application/chassis_task.c ****                 ReachFinished = 0;
 656:Application/chassis_task.c ****                 // Chassis.Vr = 0;
 657:Application/chassis_task.c ****                 ReachCount = 0;
ARM GAS  C:\Users\86152\AppData\Local\Temp\ccWGVtEI.s 			page 13


 658:Application/chassis_task.c ****             }
 659:Application/chassis_task.c ****         }
 660:Application/chassis_task.c ****         //        }
 661:Application/chassis_task.c ****         //        else
 662:Application/chassis_task.c ****         //        {
 663:Application/chassis_task.c ****         //            aimssistLoseCount++;
 664:Application/chassis_task.c ****         //			  Chassis.FollowCoef = 0;
 665:Application/chassis_task.c ****         //        }
 666:Application/chassis_task.c **** 
 667:Application/chassis_task.c ****         //        if (aimssistLoseCount > 10000)
 668:Application/chassis_task.c ****         //        {
 669:Application/chassis_task.c ****         //            tempVr = 650.0f;
 670:Application/chassis_task.c ****         //            Chassis.Vr = TD_Calculate(&Chassis.SpinningTD, tempVr);
 671:Application/chassis_task.c ****         //            lostaim = 1;
 672:Application/chassis_task.c ****         //			Chassis.FollowCoef = 0;
 673:Application/chassis_task.c ****         //    }
 674:Application/chassis_task.c **** 
 675:Application/chassis_task.c ****         Chassis.FollowXVelocity = (Chassis.FollowXVelocity1000 / 10.0f) * dt / (dt + 0.005f) + Chas
 676:Application/chassis_task.c ****         Chassis.FollowXVelocity = float_constrain(Chassis.FollowXVelocity, -20.25f, 20.25f);
 677:Application/chassis_task.c ****         Chassis.FollowYVelocity = (Chassis.FollowYVelocity1000 / 10.0f) * dt / (dt + 0.005f) + Chas
 678:Application/chassis_task.c ****         Chassis.FollowYVelocity = float_constrain(Chassis.FollowYVelocity, -20.25f, 20.25f);
 679:Application/chassis_task.c ****         Chassis.VxTransfer = user_cos(-Chassis.FollowTheta / RADIAN_COEF) * (Chassis.Vx + Chassis.F
 680:Application/chassis_task.c ****                              user_sin(-Chassis.FollowTheta / RADIAN_COEF) * (Chassis.Vy + Chassis.F
 681:Application/chassis_task.c ****         Chassis.VyTransfer = -user_sin(-Chassis.FollowTheta / RADIAN_COEF) * (Chassis.Vx + Chassis.
 682:Application/chassis_task.c ****                              user_cos(-Chassis.FollowTheta / RADIAN_COEF) * (Chassis.Vy + Chassis.F
 683:Application/chassis_task.c ****         last_game_status = game_status.game_progress;
 684:Application/chassis_task.c ****         break;
 685:Application/chassis_task.c ****     }
 686:Application/chassis_task.c ****     if (Chassis.Mode != Count_Mode)
 687:Application/chassis_task.c ****         user_count_time = 0.0f;
 688:Application/chassis_task.c **** 
 689:Application/chassis_task.c ****     if (is_TOE_Error(GIMBAL_YAW_MOTOR_TOE)) // 如果YAW轴电机掉线（云台无法旋转），
 690:Application/chassis_task.c ****         Chassis.Vr = remote_control.ch1 * Chassis.rcStickRotateRatio;
 691:Application/chassis_task.c **** 
 692:Application/chassis_task.c ****     // Chassis.posX1000 = int16_deadband(Chassis.posX1000, -100, 100);
 693:Application/chassis_task.c ****     // Chassis.posY1000 = int16_deadband(Chassis.posY1000, -100, 100);
 694:Application/chassis_task.c ****     // Chassis.posX = Chassis.posX * 0.002 / (0.002 + dt) + Chassis.posX1000 / 10 * dt / (0.002 + d
 695:Application/chassis_task.c ****     // Chassis.posY = Chassis.posY * 0.002 / (0.002 + dt) + Chassis.posY1000 / 10 * dt / (0.002 + d
 696:Application/chassis_task.c ****     // Chassis.posZ = Chassis.posZ1000 / 1000.0f;
 697:Application/chassis_task.c ****     // float SpinningValidVx = PID_Calculate(&Chassis.SpinningValid, Chassis.posX, 0.0f);
 698:Application/chassis_task.c ****     // float SpinningValidVy = PID_Calculate(&Chassis.SpinningValid, Chassis.posY, 0.0f);
 699:Application/chassis_task.c **** 
 700:Application/chassis_task.c ****     // thetaFrameNum = Find_thetaFrame(Chassis.thetaFrame, (uint32_t)(INS_GetTimeline() - debugvalu
 701:Application/chassis_task.c ****     // preFollowTheta = Chassis.thetaFrame[thetaFrameNum].FollowTheta / RADIAN_COEF;
 702:Application/chassis_task.c ****     // SpinningValidTheta = STD_RADIAN(-preFollowTheta + Chassis.posZ);
 703:Application/chassis_task.c **** 
 704:Application/chassis_task.c ****     // Chassis.VxTransfer = user_cos(SpinningValidTheta) * (Chassis.Vx + SpinningValidVx * 10.0f * 
 705:Application/chassis_task.c ****     //                      user_sin(SpinningValidTheta) * (Chassis.Vy + SpinningValidVy * 10.0f * 
 706:Application/chassis_task.c ****     // Chassis.VyTransfer = -user_sin(SpinningValidTheta) * (Chassis.Vx + SpinningValidVx * 10.0f *
 707:Application/chassis_task.c ****     //                      user_cos(SpinningValidTheta) * (Chassis.Vy + SpinningValidVy * 10.0f * 
 708:Application/chassis_task.c **** 
 709:Application/chassis_task.c ****     Chassis.V1 = -(-Chassis.VxTransfer - Chassis.VyTransfer) * Chassis.VelocityRatio + Gimbal_Posit
 710:Application/chassis_task.c ****     Chassis.V2 = -(Chassis.VxTransfer - Chassis.VyTransfer) * Chassis.VelocityRatio + Gimbal_Positi
 711:Application/chassis_task.c ****     Chassis.V3 = -(Chassis.VxTransfer + Chassis.VyTransfer) * Chassis.VelocityRatio + Chassis.Vr * 
 712:Application/chassis_task.c ****     Chassis.V4 = -(-Chassis.VxTransfer + Chassis.VyTransfer) * Chassis.VelocityRatio + Chassis.Vr *
 713:Application/chassis_task.c **** 
 714:Application/chassis_task.c ****     // 云台重心不一样的修正
ARM GAS  C:\Users\86152\AppData\Local\Temp\ccWGVtEI.s 			page 14


 715:Application/chassis_task.c ****     Chassis.V3 *= Chassis.GravityCenter_Adjustment;
 716:Application/chassis_task.c ****     Chassis.V4 *= Chassis.GravityCenter_Adjustment;
 717:Application/chassis_task.c **** 
 718:Application/chassis_task.c ****     Velocity_MAXLimit();
 719:Application/chassis_task.c **** 
 720:Application/chassis_task.c ****     Motor_Speed_Calculate(&Chassis.ChassisMotor[0], Chassis.ChassisMotor[0].Velocity_RPM, Chassis.V
 721:Application/chassis_task.c ****     Motor_Speed_Calculate(&Chassis.ChassisMotor[1], Chassis.ChassisMotor[1].Velocity_RPM, Chassis.V
 722:Application/chassis_task.c ****     Motor_Speed_Calculate(&Chassis.ChassisMotor[2], Chassis.ChassisMotor[2].Velocity_RPM, Chassis.V
 723:Application/chassis_task.c ****     Motor_Speed_Calculate(&Chassis.ChassisMotor[3], Chassis.ChassisMotor[3].Velocity_RPM, Chassis.V
 724:Application/chassis_task.c **** 
 725:Application/chassis_task.c ****     if (!isnormal(Chassis.ChassisMotor[0].Output))
 726:Application/chassis_task.c ****     {
 727:Application/chassis_task.c ****         Chassis.ChassisMotor[0].Output = 0.0f;
 728:Application/chassis_task.c ****         nanCount++;
 729:Application/chassis_task.c ****     }
 730:Application/chassis_task.c ****     if (!isnormal(Chassis.ChassisMotor[1].Output))
 731:Application/chassis_task.c ****     {
 732:Application/chassis_task.c ****         Chassis.ChassisMotor[1].Output = 0.0f;
 733:Application/chassis_task.c ****         nanCount++;
 734:Application/chassis_task.c ****     }
 735:Application/chassis_task.c ****     if (!isnormal(Chassis.ChassisMotor[2].Output))
 736:Application/chassis_task.c ****     {
 737:Application/chassis_task.c ****         Chassis.ChassisMotor[2].Output = 0.0f;
 738:Application/chassis_task.c ****         nanCount++;
 739:Application/chassis_task.c ****     }
 740:Application/chassis_task.c ****     if (!isnormal(Chassis.ChassisMotor[3].Output))
 741:Application/chassis_task.c ****     {
 742:Application/chassis_task.c ****         Chassis.ChassisMotor[3].Output = 0.0f;
 743:Application/chassis_task.c ****         nanCount++;
 744:Application/chassis_task.c ****     }
 745:Application/chassis_task.c **** 
 746:Application/chassis_task.c ****     if (Chassis.Vx != 0 || Chassis.Vy != 0)
 747:Application/chassis_task.c ****         time_temp = USER_GetTick();
 748:Application/chassis_task.c **** 
 749:Application/chassis_task.c ****     Chassis_Power_Exp(); // 计算可能的底盘功率
 750:Application/chassis_task.c ****                          // 功率限制
 751:Application/chassis_task.c ****     Chassis_Power_Limit();
 752:Application/chassis_task.c **** }
 753:Application/chassis_task.c **** 
 754:Application/chassis_task.c **** static void Send_Chassis_Current(void) /*发送底盘电机控制电流*/
 755:Application/chassis_task.c **** {
 756:Application/chassis_task.c ****     static uint32_t count = 0;
 757:Application/chassis_task.c ****     // 发送裁判系统功率部分给电容板
 758:Application/chassis_task.c ****     //    Send_Power_Data(&hcan1, power_heat_data_t.chassis_power_buffer, robot_state.chassis_power
 759:Application/chassis_task.c **** 
 760:Application/chassis_task.c ****     if (is_TOE_Error(RC_TOE) && is_TOE_Error(VTM_TOE)) // RC——遥控器接收器  VTM——图
 761:Application/chassis_task.c ****     {
 762:Application/chassis_task.c ****         if (Send_Motor_Current_1_4(&hcan1, 0, 0, 0, 0) == HAL_OK)
 763:Application/chassis_task.c ****             HAL_IWDG_Refresh(&hiwdg);
 764:Application/chassis_task.c ****         ;
 765:Application/chassis_task.c ****     }
 766:Application/chassis_task.c ****     else
 767:Application/chassis_task.c ****     {
 768:Application/chassis_task.c ****         // if (Send_Motor_Current_1_4(&hcan1,
 769:Application/chassis_task.c ****         //                            Chassis.ChassisMotor[0].Output, Chassis.ChassisMotor[1].Outpu
 770:Application/chassis_task.c ****         //                            Chassis.ChassisMotor[2].Output, Chassis.ChassisMotor[3].Outpu
 771:Application/chassis_task.c ****         if (Send_Motor_Current_1_4(&hcan1, 0, 0, 0, 0) == HAL_OK)
ARM GAS  C:\Users\86152\AppData\Local\Temp\ccWGVtEI.s 			page 15


 772:Application/chassis_task.c ****             HAL_IWDG_Refresh(&hiwdg);
 773:Application/chassis_task.c ****         ;
 774:Application/chassis_task.c ****     }
 775:Application/chassis_task.c ****     // 计算实际底盘功率
 776:Application/chassis_task.c ****     Chassis.PowerControl.Power_Calculation_Clipping = 0;
 777:Application/chassis_task.c ****     for (uint8_t i = 0; i < 4; i++)
 778:Application/chassis_task.c ****     {
 779:Application/chassis_task.c ****         Chassis.PowerControl.Power_Calculation_Clipping += ina226[0].Bus_Voltage * fabsf(Chassis.Ch
 780:Application/chassis_task.c ****     }
 781:Application/chassis_task.c ****     Chassis.PowerControl.Power_Calculation_Clipping *= 0.0000001732f;
 782:Application/chassis_task.c **** 
 783:Application/chassis_task.c ****     if (JudgeRxValid || count % 100 == 0)
 784:Application/chassis_task.c ****     {
 785:Application/chassis_task.c ****         Send_JudgeRxData(&hcan2, JudgeRxData);
 786:Application/chassis_task.c ****         JudgeRxValid = 0;
 787:Application/chassis_task.c ****     }
 788:Application/chassis_task.c **** 
 789:Application/chassis_task.c ****     count++;
 790:Application/chassis_task.c **** }
 791:Application/chassis_task.c **** 
 792:Application/chassis_task.c **** static void ChassisMotionEst_Update(float dt)
 793:Application/chassis_task.c **** {
 794:Application/chassis_task.c ****     static float sigmaSqrt[2];
 795:Application/chassis_task.c ****     /*
 796:Application/chassis_task.c ****      0  1  2  3  4  5
 797:Application/chassis_task.c ****      6  7  8  9 10 11
 798:Application/chassis_task.c ****     12 13 14 15 16 17
 799:Application/chassis_task.c ****     18 19 20 21 22 23
 800:Application/chassis_task.c ****     24 25 26 27 28 29
 801:Application/chassis_task.c ****     30 31 32 33 34 35
 802:Application/chassis_task.c ****     */
 803:Application/chassis_task.c ****     for (uint8_t i = 0; i < 2; i++)
 804:Application/chassis_task.c ****         sigmaSqrt[i] = ChassisMotionEst_Sigma[i] * ChassisMotionEst_Sigma[i];
 805:Application/chassis_task.c **** 
 806:Application/chassis_task.c ****     Chassis.ChassisMotionEst.F_data[1] = dt;
 807:Application/chassis_task.c ****     Chassis.ChassisMotionEst.F_data[2] = dt * dt * 0.5f;
 808:Application/chassis_task.c ****     Chassis.ChassisMotionEst.F_data[8] = dt;
 809:Application/chassis_task.c ****     Chassis.ChassisMotionEst.F_data[22] = dt;
 810:Application/chassis_task.c ****     Chassis.ChassisMotionEst.F_data[23] = dt * dt * 0.5f;
 811:Application/chassis_task.c ****     Chassis.ChassisMotionEst.F_data[29] = dt;
 812:Application/chassis_task.c **** 
 813:Application/chassis_task.c ****     ChassisMotionEst_Q[0] = dt * dt * dt * dt * dt * dt / 36.0f * sigmaSqrt[X];
 814:Application/chassis_task.c ****     ChassisMotionEst_Q[1] = dt * dt * dt * dt * dt / 12.0f * sigmaSqrt[X];
 815:Application/chassis_task.c ****     ChassisMotionEst_Q[2] = dt * dt * dt * dt / 6.0f * sigmaSqrt[X];
 816:Application/chassis_task.c ****     ChassisMotionEst_Q[6] = dt * dt * dt * dt * dt / 12.0f * sigmaSqrt[X];
 817:Application/chassis_task.c ****     ChassisMotionEst_Q[7] = dt * dt * dt * dt / 4.0f * sigmaSqrt[X];
 818:Application/chassis_task.c ****     ChassisMotionEst_Q[8] = dt * dt * dt / 2.0f * sigmaSqrt[X];
 819:Application/chassis_task.c ****     ChassisMotionEst_Q[12] = dt * dt * dt * dt / 6.0f * sigmaSqrt[X];
 820:Application/chassis_task.c ****     ChassisMotionEst_Q[13] = dt * dt * dt / 2.0f * sigmaSqrt[X];
 821:Application/chassis_task.c ****     ChassisMotionEst_Q[14] = dt * dt * sigmaSqrt[X];
 822:Application/chassis_task.c **** 
 823:Application/chassis_task.c ****     ChassisMotionEst_Q[21] = dt * dt * dt * dt * dt * dt / 36.0f * sigmaSqrt[Y];
 824:Application/chassis_task.c ****     ChassisMotionEst_Q[22] = dt * dt * dt * dt * dt / 12.0f * sigmaSqrt[Y];
 825:Application/chassis_task.c ****     ChassisMotionEst_Q[23] = dt * dt * dt * dt / 6.0f * sigmaSqrt[Y];
 826:Application/chassis_task.c ****     ChassisMotionEst_Q[27] = dt * dt * dt * dt * dt / 12.0f * sigmaSqrt[Y];
 827:Application/chassis_task.c ****     ChassisMotionEst_Q[28] = dt * dt * dt * dt / 4.0f * sigmaSqrt[Y];
 828:Application/chassis_task.c ****     ChassisMotionEst_Q[29] = dt * dt * dt / 2.0f * sigmaSqrt[Y];
ARM GAS  C:\Users\86152\AppData\Local\Temp\ccWGVtEI.s 			page 16


 829:Application/chassis_task.c ****     ChassisMotionEst_Q[33] = dt * dt * dt * dt / 6.0f * sigmaSqrt[Y];
 830:Application/chassis_task.c ****     ChassisMotionEst_Q[34] = dt * dt * dt / 2.0f * sigmaSqrt[Y];
 831:Application/chassis_task.c ****     ChassisMotionEst_Q[35] = dt * dt * sigmaSqrt[Y];
 832:Application/chassis_task.c **** 
 833:Application/chassis_task.c ****     Chassis.V1_is = ((Chassis.ChassisMotor[0].Velocity_RPM) * 2 * pi / 60) * wheel_radius / 10 / 14
 834:Application/chassis_task.c ****     Chassis.V2_is = ((Chassis.ChassisMotor[1].Velocity_RPM) * 2 * pi / 60) * wheel_radius / 10 / 14
 835:Application/chassis_task.c ****     Chassis.V3_is = ((Chassis.ChassisMotor[2].Velocity_RPM) * 2 * pi / 60) * wheel_radius / 10 / 14
 836:Application/chassis_task.c ****     Chassis.V4_is = ((Chassis.ChassisMotor[3].Velocity_RPM) * 2 * pi / 60) * wheel_radius / 10 / 14
 837:Application/chassis_task.c **** 
 838:Application/chassis_task.c ****     Chassis.Vx_is = (Chassis.V2_is + Chassis.V3_is - Chassis.V1_is - Chassis.V4_is) * Kx;
 839:Application/chassis_task.c ****     Chassis.Vy_is = (Chassis.V1_is + Chassis.V2_is - Chassis.V3_is - Chassis.V4_is) * Ky;
 840:Application/chassis_task.c **** 
 841:Application/chassis_task.c ****     // Chassis.VxTransfer_is = Chassis.Vx_is * cosf(-Chassis.FollowTheta / RADIAN_COEF) + Chassis.V
 842:Application/chassis_task.c ****     // Chassis.VyTransfer_is = Chassis.Vy_is * cosf(-Chassis.FollowTheta / RADIAN_COEF) - Chassis.V
 843:Application/chassis_task.c **** 
 844:Application/chassis_task.c ****     Chassis.ChassisMotionEst.MeasuredVector[0] = Chassis.Vx_is;
 845:Application/chassis_task.c ****     Chassis.ChassisMotionEst.MeasuredVector[1] = BMI088.Accel[0] * 100.0f;
 846:Application/chassis_task.c ****     Chassis.ChassisMotionEst.MeasuredVector[2] = Chassis.Vy_is;
 847:Application/chassis_task.c ****     Chassis.ChassisMotionEst.MeasuredVector[3] = BMI088.Accel[1] * 100.0f;
 848:Application/chassis_task.c **** 
 849:Application/chassis_task.c ****     Kalman_Filter_Update(&Chassis.ChassisMotionEst);
 850:Application/chassis_task.c **** 
 851:Application/chassis_task.c ****     for (uint8_t i = 0; i < Chassis.ChassisMotionEst.xhatSize; i++)
 852:Application/chassis_task.c ****     {
 853:Application/chassis_task.c ****         if (!isnormal(Chassis.ChassisMotionEst.xhat_data[i]))
 854:Application/chassis_task.c ****             Chassis.ChassisMotionEst.xhat_data[i] = 0;
 855:Application/chassis_task.c ****         if (!isnormal(Chassis.ChassisMotionEst.FilteredValue[i]))
 856:Application/chassis_task.c ****             Chassis.ChassisMotionEst.FilteredValue[i] = 0;
 857:Application/chassis_task.c ****     }
 858:Application/chassis_task.c **** 
 859:Application/chassis_task.c ****     for (uint8_t i = 0; i < 2; i++)
 860:Application/chassis_task.c ****     {
 861:Application/chassis_task.c ****         Chassis.Position[i] = Chassis.ChassisMotionEst.FilteredValue[i * 3];
 862:Application/chassis_task.c ****         Chassis.Velocity[i] = Chassis.ChassisMotionEst.FilteredValue[i * 3 + 1];
 863:Application/chassis_task.c ****         Chassis.Accel[i] = Chassis.ChassisMotionEst.FilteredValue[i * 3 + 2];
 864:Application/chassis_task.c ****     }
 865:Application/chassis_task.c **** 
 866:Application/chassis_task.c ****     Chassis.V_Position[0] += Chassis.Vx_is * dt;
 867:Application/chassis_task.c ****     Chassis.V_Position[1] += Chassis.Vy_is * dt;
 868:Application/chassis_task.c **** }
 869:Application/chassis_task.c **** 
 870:Application/chassis_task.c **** static float Max_4(float num1, float num2, float num3, float num4)
 871:Application/chassis_task.c **** {
  29              		.loc 1 871 1 view -0
  30              		.cfi_startproc
  31              		@ args = 0, pretend = 0, frame = 0
  32              		@ frame_needed = 0, uses_anonymous_args = 0
  33              		@ link register save eliminated.
 872:Application/chassis_task.c ****     static float max_num = 0;
  34              		.loc 1 872 5 view .LVU1
 873:Application/chassis_task.c **** 
 874:Application/chassis_task.c ****     max_num = fabsf(num1);
  35              		.loc 1 874 5 view .LVU2
  36              		.loc 1 874 15 is_stmt 0 view .LVU3
  37 0000 B0EEC00A 		vabs.f32	s0, s0
  38              	.LVL1:
  39              		.loc 1 874 13 view .LVU4
ARM GAS  C:\Users\86152\AppData\Local\Temp\ccWGVtEI.s 			page 17


  40 0004 134B     		ldr	r3, .L11
  41 0006 83ED000A 		vstr.32	s0, [r3]
 875:Application/chassis_task.c ****     if (fabsf(num2) > max_num)
  42              		.loc 1 875 5 is_stmt 1 view .LVU5
  43              		.loc 1 875 9 is_stmt 0 view .LVU6
  44 000a F0EEE00A 		vabs.f32	s1, s1
  45              	.LVL2:
  46              		.loc 1 875 8 view .LVU7
  47 000e B4EEE00A 		vcmpe.f32	s0, s1
  48 0012 F1EE10FA 		vmrs	APSR_nzcv, FPSCR
  49 0016 01D5     		bpl	.L2
 876:Application/chassis_task.c ****         max_num = fabsf(num2);
  50              		.loc 1 876 9 is_stmt 1 view .LVU8
  51              		.loc 1 876 17 is_stmt 0 view .LVU9
  52 0018 C3ED000A 		vstr.32	s1, [r3]
  53              	.L2:
 877:Application/chassis_task.c ****     if (fabsf(num3) > max_num)
  54              		.loc 1 877 5 is_stmt 1 view .LVU10
  55              		.loc 1 877 9 is_stmt 0 view .LVU11
  56 001c B0EEC11A 		vabs.f32	s2, s2
  57              	.LVL3:
  58              		.loc 1 877 21 view .LVU12
  59 0020 0C4B     		ldr	r3, .L11
  60 0022 D3ED007A 		vldr.32	s15, [r3]
  61              		.loc 1 877 8 view .LVU13
  62 0026 B4EEE71A 		vcmpe.f32	s2, s15
  63 002a F1EE10FA 		vmrs	APSR_nzcv, FPSCR
  64 002e 01DD     		ble	.L4
 878:Application/chassis_task.c ****         max_num = fabsf(num3);
  65              		.loc 1 878 9 is_stmt 1 view .LVU14
  66              		.loc 1 878 17 is_stmt 0 view .LVU15
  67 0030 83ED001A 		vstr.32	s2, [r3]
  68              	.L4:
 879:Application/chassis_task.c ****     if (fabsf(num4) > max_num)
  69              		.loc 1 879 5 is_stmt 1 view .LVU16
  70              		.loc 1 879 9 is_stmt 0 view .LVU17
  71 0034 F0EEE11A 		vabs.f32	s3, s3
  72              	.LVL4:
  73              		.loc 1 879 21 view .LVU18
  74 0038 064B     		ldr	r3, .L11
  75 003a D3ED007A 		vldr.32	s15, [r3]
  76              		.loc 1 879 8 view .LVU19
  77 003e F4EEE71A 		vcmpe.f32	s3, s15
  78 0042 F1EE10FA 		vmrs	APSR_nzcv, FPSCR
  79 0046 01DD     		ble	.L6
 880:Application/chassis_task.c ****         max_num = fabsf(num4);
  80              		.loc 1 880 9 is_stmt 1 view .LVU20
  81              		.loc 1 880 17 is_stmt 0 view .LVU21
  82 0048 C3ED001A 		vstr.32	s3, [r3]
  83              	.L6:
 881:Application/chassis_task.c **** 
 882:Application/chassis_task.c ****     return max_num;
  84              		.loc 1 882 5 is_stmt 1 view .LVU22
 883:Application/chassis_task.c **** }
  85              		.loc 1 883 1 is_stmt 0 view .LVU23
  86 004c 014B     		ldr	r3, .L11
  87 004e 93ED000A 		vldr.32	s0, [r3]
ARM GAS  C:\Users\86152\AppData\Local\Temp\ccWGVtEI.s 			page 18


  88 0052 7047     		bx	lr
  89              	.L12:
  90              		.align	2
  91              	.L11:
  92 0054 00000000 		.word	.LANCHOR0
  93              		.cfi_endproc
  94              	.LFE180:
  96              		.section	.text.Velocity_MAXLimit,"ax",%progbits
  97              		.align	1
  98              		.syntax unified
  99              		.thumb
 100              		.thumb_func
 102              	Velocity_MAXLimit:
 103              	.LFB183:
 884:Application/chassis_task.c **** 
 885:Application/chassis_task.c **** void Chassis_Power_Limit(void)
 886:Application/chassis_task.c **** {
 887:Application/chassis_task.c ****     static float coef[4] = {1, 1, 1, 1};
 888:Application/chassis_task.c **** 
 889:Application/chassis_task.c ****     // 电容电压小于14.5V时
 890:Application/chassis_task.c ****     if (ina226[0].Bus_Voltage < 14.5f)
 891:Application/chassis_task.c ****     {
 892:Application/chassis_task.c ****         Chassis.PowerControl.Power_Limit = Chassis.PowerControl.LowVoltage_Gain * robot_state.chass
 893:Application/chassis_task.c ****     }
 894:Application/chassis_task.c ****     else
 895:Application/chassis_task.c ****     {
 896:Application/chassis_task.c ****         // 计算修正后的功率限制
 897:Application/chassis_task.c ****         Chassis.PowerControl.Power_Limit = Chassis.PowerControl.Power_correction_gain * robot_state
 898:Application/chassis_task.c **** 
 899:Application/chassis_task.c ****         // 缓冲能量充足时，可放宽限制
 900:Application/chassis_task.c ****         if (power_heat_data_t.chassis_power_buffer > 30)
 901:Application/chassis_task.c ****             Chassis.PowerControl.Power_Limit = 1.5f * Chassis.PowerControl.Power_correction_gain * 
 902:Application/chassis_task.c ****     }
 903:Application/chassis_task.c **** 
 904:Application/chassis_task.c ****     // 底盘功率大于功率限制时
 905:Application/chassis_task.c ****     if (Chassis.PowerControl.Power_Calculation > Chassis.PowerControl.Power_Limit)
 906:Application/chassis_task.c ****     {
 907:Application/chassis_task.c ****         Chassis.PowerControl.PowerScale = Chassis.PowerControl.Power_Limit / Chassis.PowerControl.P
 908:Application/chassis_task.c ****         if (Chassis.Mode == Spinning_Mode)
 909:Application/chassis_task.c ****             Chassis.PowerControl.PowerScale = Chassis.PowerControl.PowerScale * 0.95;
 910:Application/chassis_task.c ****     }
 911:Application/chassis_task.c ****     else
 912:Application/chassis_task.c ****         Chassis.PowerControl.PowerScale = 1.0f;
 913:Application/chassis_task.c **** 
 914:Application/chassis_task.c ****     // 急停时无功率限制
 915:Application/chassis_task.c ****     if ((USER_GetTick() - time_temp < 500 && USER_GetTick() - time_temp > 5) || (USER_GetTick() - t
 916:Application/chassis_task.c ****         Chassis.PowerControl.PowerScale = 1.0f;
 917:Application/chassis_task.c **** 
 918:Application/chassis_task.c ****     for (uint8_t i = 0; i < 4; i++)
 919:Application/chassis_task.c ****     {
 920:Application/chassis_task.c ****         Chassis.ChassisMotor[i].Output *= Chassis.PowerControl.PowerScale * coef[i];
 921:Application/chassis_task.c ****     }
 922:Application/chassis_task.c **** }
 923:Application/chassis_task.c **** 
 924:Application/chassis_task.c **** // 计算可能底盘功率
 925:Application/chassis_task.c **** static void Chassis_Power_Exp(void)
 926:Application/chassis_task.c **** {
ARM GAS  C:\Users\86152\AppData\Local\Temp\ccWGVtEI.s 			page 19


 927:Application/chassis_task.c ****     if (is_TOE_Error(CAP_TOE))         // CAP是电容
 928:Application/chassis_task.c ****         ina226[0].Bus_Voltage = 24.0f; // 电容掉线，默认为24v;
 929:Application/chassis_task.c **** 
 930:Application/chassis_task.c ****     Chassis.PowerControl.Power_Calculation = 0;
 931:Application/chassis_task.c ****     for (uint8_t i = 0; i < 4; i++)
 932:Application/chassis_task.c ****     {
 933:Application/chassis_task.c ****         Chassis.PowerControl.Power_Calculation += ina226[0].Bus_Voltage * fabsf(Chassis.ChassisMoto
 934:Application/chassis_task.c ****     }
 935:Application/chassis_task.c ****     Chassis.PowerControl.Power_Calculation *= 0.0000001732f;
 936:Application/chassis_task.c ****     if (!isnormal(Chassis.PowerControl.Power_Calculation))
 937:Application/chassis_task.c ****         Chassis.PowerControl.Power_Calculation = 0.0f;
 938:Application/chassis_task.c **** }
 939:Application/chassis_task.c **** 
 940:Application/chassis_task.c **** static void Velocity_MAXLimit(void)
 941:Application/chassis_task.c **** {
 104              		.loc 1 941 1 is_stmt 1 view -0
 105              		.cfi_startproc
 106              		@ args = 0, pretend = 0, frame = 0
 107              		@ frame_needed = 0, uses_anonymous_args = 0
 108 0000 10B5     		push	{r4, lr}
 109              	.LCFI0:
 110              		.cfi_def_cfa_offset 8
 111              		.cfi_offset 4, -8
 112              		.cfi_offset 14, -4
 942:Application/chassis_task.c ****     static float TempMaxVelocity;
 113              		.loc 1 942 5 view .LVU25
 943:Application/chassis_task.c ****     if (Max_4(fabsf(Chassis.V1), fabsf(Chassis.V2), fabsf(Chassis.V3), fabsf(Chassis.V4)) > MAX_RPM
 114              		.loc 1 943 5 view .LVU26
 115              		.loc 1 943 28 is_stmt 0 view .LVU27
 116 0002 284B     		ldr	r3, .L19
 117 0004 93ED550A 		vldr.32	s0, [r3, #340]
 118              		.loc 1 943 47 view .LVU28
 119 0008 D3ED560A 		vldr.32	s1, [r3, #344]
 120              		.loc 1 943 66 view .LVU29
 121 000c 93ED571A 		vldr.32	s2, [r3, #348]
 122              		.loc 1 943 85 view .LVU30
 123 0010 D3ED581A 		vldr.32	s3, [r3, #352]
 124              		.loc 1 943 9 view .LVU31
 125 0014 F0EEE11A 		vabs.f32	s3, s3
 126 0018 B0EEC11A 		vabs.f32	s2, s2
 127 001c F0EEE00A 		vabs.f32	s1, s1
 128 0020 B0EEC00A 		vabs.f32	s0, s0
 129 0024 FFF7FEFF 		bl	Max_4
 130              	.LVL5:
 131              		.loc 1 943 91 view .LVU32
 132 0028 1F4B     		ldr	r3, .L19+4
 133 002a D3ED007A 		vldr.32	s15, [r3]
 134              		.loc 1 943 8 view .LVU33
 135 002e B4EEE70A 		vcmpe.f32	s0, s15
 136 0032 F1EE10FA 		vmrs	APSR_nzcv, FPSCR
 137 0036 00DC     		bgt	.L18
 138              	.L13:
 944:Application/chassis_task.c ****     {
 945:Application/chassis_task.c ****         TempMaxVelocity = Max_4(fabsf(Chassis.V1), fabsf(Chassis.V2), fabsf(Chassis.V3), fabsf(Chas
 946:Application/chassis_task.c ****         Chassis.V1 *= MAX_RPM / TempMaxVelocity;
 947:Application/chassis_task.c ****         Chassis.V2 *= MAX_RPM / TempMaxVelocity;
 948:Application/chassis_task.c ****         Chassis.V3 *= MAX_RPM / TempMaxVelocity;
ARM GAS  C:\Users\86152\AppData\Local\Temp\ccWGVtEI.s 			page 20


 949:Application/chassis_task.c ****         Chassis.V4 *= MAX_RPM / TempMaxVelocity;
 950:Application/chassis_task.c ****     }
 951:Application/chassis_task.c **** }
 139              		.loc 1 951 1 view .LVU34
 140 0038 10BD     		pop	{r4, pc}
 141              	.L18:
 945:Application/chassis_task.c ****         Chassis.V1 *= MAX_RPM / TempMaxVelocity;
 142              		.loc 1 945 9 is_stmt 1 view .LVU35
 945:Application/chassis_task.c ****         Chassis.V1 *= MAX_RPM / TempMaxVelocity;
 143              		.loc 1 945 46 is_stmt 0 view .LVU36
 144 003a 1A4C     		ldr	r4, .L19
 145 003c 94ED550A 		vldr.32	s0, [r4, #340]
 945:Application/chassis_task.c ****         Chassis.V1 *= MAX_RPM / TempMaxVelocity;
 146              		.loc 1 945 65 view .LVU37
 147 0040 D4ED560A 		vldr.32	s1, [r4, #344]
 945:Application/chassis_task.c ****         Chassis.V1 *= MAX_RPM / TempMaxVelocity;
 148              		.loc 1 945 84 view .LVU38
 149 0044 94ED571A 		vldr.32	s2, [r4, #348]
 945:Application/chassis_task.c ****         Chassis.V1 *= MAX_RPM / TempMaxVelocity;
 150              		.loc 1 945 103 view .LVU39
 151 0048 D4ED581A 		vldr.32	s3, [r4, #352]
 945:Application/chassis_task.c ****         Chassis.V1 *= MAX_RPM / TempMaxVelocity;
 152              		.loc 1 945 27 view .LVU40
 153 004c F0EEE11A 		vabs.f32	s3, s3
 154 0050 B0EEC11A 		vabs.f32	s2, s2
 155 0054 F0EEE00A 		vabs.f32	s1, s1
 156 0058 B0EEC00A 		vabs.f32	s0, s0
 157 005c FFF7FEFF 		bl	Max_4
 158              	.LVL6:
 945:Application/chassis_task.c ****         Chassis.V1 *= MAX_RPM / TempMaxVelocity;
 159              		.loc 1 945 25 view .LVU41
 160 0060 124B     		ldr	r3, .L19+8
 161 0062 83ED000A 		vstr.32	s0, [r3]
 946:Application/chassis_task.c ****         Chassis.V2 *= MAX_RPM / TempMaxVelocity;
 162              		.loc 1 946 9 is_stmt 1 view .LVU42
 946:Application/chassis_task.c ****         Chassis.V2 *= MAX_RPM / TempMaxVelocity;
 163              		.loc 1 946 31 is_stmt 0 view .LVU43
 164 0066 104B     		ldr	r3, .L19+4
 165 0068 93ED007A 		vldr.32	s14, [r3]
 166 006c C7EE007A 		vdiv.f32	s15, s14, s0
 946:Application/chassis_task.c ****         Chassis.V2 *= MAX_RPM / TempMaxVelocity;
 167              		.loc 1 946 20 view .LVU44
 168 0070 94ED557A 		vldr.32	s14, [r4, #340]
 169 0074 27EE277A 		vmul.f32	s14, s14, s15
 170 0078 84ED557A 		vstr.32	s14, [r4, #340]
 947:Application/chassis_task.c ****         Chassis.V3 *= MAX_RPM / TempMaxVelocity;
 171              		.loc 1 947 9 is_stmt 1 view .LVU45
 947:Application/chassis_task.c ****         Chassis.V3 *= MAX_RPM / TempMaxVelocity;
 172              		.loc 1 947 20 is_stmt 0 view .LVU46
 173 007c 94ED567A 		vldr.32	s14, [r4, #344]
 174 0080 27EE277A 		vmul.f32	s14, s14, s15
 175 0084 84ED567A 		vstr.32	s14, [r4, #344]
 948:Application/chassis_task.c ****         Chassis.V4 *= MAX_RPM / TempMaxVelocity;
 176              		.loc 1 948 9 is_stmt 1 view .LVU47
 948:Application/chassis_task.c ****         Chassis.V4 *= MAX_RPM / TempMaxVelocity;
 177              		.loc 1 948 20 is_stmt 0 view .LVU48
 178 0088 94ED577A 		vldr.32	s14, [r4, #348]
ARM GAS  C:\Users\86152\AppData\Local\Temp\ccWGVtEI.s 			page 21


 179 008c 27EE277A 		vmul.f32	s14, s14, s15
 180 0090 84ED577A 		vstr.32	s14, [r4, #348]
 949:Application/chassis_task.c ****     }
 181              		.loc 1 949 9 is_stmt 1 view .LVU49
 949:Application/chassis_task.c ****     }
 182              		.loc 1 949 20 is_stmt 0 view .LVU50
 183 0094 94ED587A 		vldr.32	s14, [r4, #352]
 184 0098 67EE277A 		vmul.f32	s15, s14, s15
 185 009c C4ED587A 		vstr.32	s15, [r4, #352]
 186              		.loc 1 951 1 view .LVU51
 187 00a0 CAE7     		b	.L13
 188              	.L20:
 189 00a2 00BF     		.align	2
 190              	.L19:
 191 00a4 00000000 		.word	Chassis
 192 00a8 00000000 		.word	.LANCHOR1
 193 00ac 00000000 		.word	.LANCHOR2
 194              		.cfi_endproc
 195              	.LFE183:
 197              		.section	.text.ChassisMotionEst_Init,"ax",%progbits
 198              		.align	1
 199              		.syntax unified
 200              		.thumb
 201              		.thumb_func
 203              	ChassisMotionEst_Init:
 204              	.LFB172:
 159:Application/chassis_task.c ****     // Chassis.ChassisMotionEst.UseAutoAdjustment = TRUE;
 205              		.loc 1 159 1 is_stmt 1 view -0
 206              		.cfi_startproc
 207              		@ args = 0, pretend = 0, frame = 0
 208              		@ frame_needed = 0, uses_anonymous_args = 0
 209 0000 38B5     		push	{r3, r4, r5, lr}
 210              	.LCFI1:
 211              		.cfi_def_cfa_offset 16
 212              		.cfi_offset 3, -16
 213              		.cfi_offset 4, -12
 214              		.cfi_offset 5, -8
 215              		.cfi_offset 14, -4
 161:Application/chassis_task.c ****     Chassis.ChassisMotionEst.MeasurementMap[0] = 2;
 216              		.loc 1 161 5 view .LVU53
 217 0002 244C     		ldr	r4, .L24
 218 0004 0423     		movs	r3, #4
 219 0006 0022     		movs	r2, #0
 220 0008 0621     		movs	r1, #6
 221 000a 2046     		mov	r0, r4
 222 000c FFF7FEFF 		bl	Kalman_Filter_Init
 223              	.LVL7:
 162:Application/chassis_task.c ****     Chassis.ChassisMotionEst.MeasurementMap[1] = 3;
 224              		.loc 1 162 5 view .LVU54
 162:Application/chassis_task.c ****     Chassis.ChassisMotionEst.MeasurementMap[1] = 3;
 225              		.loc 1 162 29 is_stmt 0 view .LVU55
 226 0010 6369     		ldr	r3, [r4, #20]
 162:Application/chassis_task.c ****     Chassis.ChassisMotionEst.MeasurementMap[1] = 3;
 227              		.loc 1 162 48 view .LVU56
 228 0012 0222     		movs	r2, #2
 229 0014 1A70     		strb	r2, [r3]
 163:Application/chassis_task.c ****     Chassis.ChassisMotionEst.MeasurementMap[2] = 5;
ARM GAS  C:\Users\86152\AppData\Local\Temp\ccWGVtEI.s 			page 22


 230              		.loc 1 163 5 is_stmt 1 view .LVU57
 163:Application/chassis_task.c ****     Chassis.ChassisMotionEst.MeasurementMap[2] = 5;
 231              		.loc 1 163 29 is_stmt 0 view .LVU58
 232 0016 6369     		ldr	r3, [r4, #20]
 163:Application/chassis_task.c ****     Chassis.ChassisMotionEst.MeasurementMap[2] = 5;
 233              		.loc 1 163 48 view .LVU59
 234 0018 0322     		movs	r2, #3
 235 001a 5A70     		strb	r2, [r3, #1]
 164:Application/chassis_task.c ****     Chassis.ChassisMotionEst.MeasurementMap[3] = 6;
 236              		.loc 1 164 5 is_stmt 1 view .LVU60
 164:Application/chassis_task.c ****     Chassis.ChassisMotionEst.MeasurementMap[3] = 6;
 237              		.loc 1 164 29 is_stmt 0 view .LVU61
 238 001c 6369     		ldr	r3, [r4, #20]
 164:Application/chassis_task.c ****     Chassis.ChassisMotionEst.MeasurementMap[3] = 6;
 239              		.loc 1 164 48 view .LVU62
 240 001e 0522     		movs	r2, #5
 241 0020 9A70     		strb	r2, [r3, #2]
 165:Application/chassis_task.c ****     Chassis.ChassisMotionEst.MeasurementDegree[0] = 1;
 242              		.loc 1 165 5 is_stmt 1 view .LVU63
 165:Application/chassis_task.c ****     Chassis.ChassisMotionEst.MeasurementDegree[0] = 1;
 243              		.loc 1 165 29 is_stmt 0 view .LVU64
 244 0022 6369     		ldr	r3, [r4, #20]
 165:Application/chassis_task.c ****     Chassis.ChassisMotionEst.MeasurementDegree[0] = 1;
 245              		.loc 1 165 48 view .LVU65
 246 0024 0622     		movs	r2, #6
 247 0026 DA70     		strb	r2, [r3, #3]
 166:Application/chassis_task.c ****     Chassis.ChassisMotionEst.MeasurementDegree[1] = 1;
 248              		.loc 1 166 5 is_stmt 1 view .LVU66
 166:Application/chassis_task.c ****     Chassis.ChassisMotionEst.MeasurementDegree[1] = 1;
 249              		.loc 1 166 29 is_stmt 0 view .LVU67
 250 0028 A269     		ldr	r2, [r4, #24]
 166:Application/chassis_task.c ****     Chassis.ChassisMotionEst.MeasurementDegree[1] = 1;
 251              		.loc 1 166 51 view .LVU68
 252 002a 4FF07E53 		mov	r3, #1065353216
 253 002e 1360     		str	r3, [r2]	@ float
 167:Application/chassis_task.c ****     Chassis.ChassisMotionEst.MeasurementDegree[2] = 1;
 254              		.loc 1 167 5 is_stmt 1 view .LVU69
 167:Application/chassis_task.c ****     Chassis.ChassisMotionEst.MeasurementDegree[2] = 1;
 255              		.loc 1 167 29 is_stmt 0 view .LVU70
 256 0030 A269     		ldr	r2, [r4, #24]
 167:Application/chassis_task.c ****     Chassis.ChassisMotionEst.MeasurementDegree[2] = 1;
 257              		.loc 1 167 51 view .LVU71
 258 0032 5360     		str	r3, [r2, #4]	@ float
 168:Application/chassis_task.c ****     Chassis.ChassisMotionEst.MeasurementDegree[3] = 1;
 259              		.loc 1 168 5 is_stmt 1 view .LVU72
 168:Application/chassis_task.c ****     Chassis.ChassisMotionEst.MeasurementDegree[3] = 1;
 260              		.loc 1 168 29 is_stmt 0 view .LVU73
 261 0034 A269     		ldr	r2, [r4, #24]
 168:Application/chassis_task.c ****     Chassis.ChassisMotionEst.MeasurementDegree[3] = 1;
 262              		.loc 1 168 51 view .LVU74
 263 0036 9360     		str	r3, [r2, #8]	@ float
 169:Application/chassis_task.c ****     // Chassis.ChassisMotionEst.MatR_DiagonalElements[0] = 100;
 264              		.loc 1 169 5 is_stmt 1 view .LVU75
 169:Application/chassis_task.c ****     // Chassis.ChassisMotionEst.MatR_DiagonalElements[0] = 100;
 265              		.loc 1 169 29 is_stmt 0 view .LVU76
 266 0038 A269     		ldr	r2, [r4, #24]
 169:Application/chassis_task.c ****     // Chassis.ChassisMotionEst.MatR_DiagonalElements[0] = 100;
ARM GAS  C:\Users\86152\AppData\Local\Temp\ccWGVtEI.s 			page 23


 267              		.loc 1 169 51 view .LVU77
 268 003a D360     		str	r3, [r2, #12]	@ float
 174:Application/chassis_task.c ****     memcpy(Chassis.ChassisMotionEst.P_data, ChassisMotionEst_Pinit, sizeof(ChassisMotionEst_Pinit))
 269              		.loc 1 174 5 is_stmt 1 view .LVU78
 270 003c 9025     		movs	r5, #144
 271 003e 2A46     		mov	r2, r5
 272 0040 1549     		ldr	r1, .L24+4
 273 0042 D4F80001 		ldr	r0, [r4, #256]
 274 0046 FFF7FEFF 		bl	memcpy
 275              	.LVL8:
 175:Application/chassis_task.c ****     memcpy(Chassis.ChassisMotionEst.Q_data, ChassisMotionEst_Q, sizeof(ChassisMotionEst_Q));
 276              		.loc 1 175 5 view .LVU79
 277 004a 2A46     		mov	r2, r5
 278 004c 1349     		ldr	r1, .L24+8
 279 004e D4F8F800 		ldr	r0, [r4, #248]
 280 0052 FFF7FEFF 		bl	memcpy
 281              	.LVL9:
 176:Application/chassis_task.c ****     memcpy(Chassis.ChassisMotionEst.R_data, ChassisMotionEst_R, sizeof(ChassisMotionEst_R));
 282              		.loc 1 176 5 view .LVU80
 283 0056 2A46     		mov	r2, r5
 284 0058 1149     		ldr	r1, .L24+12
 285 005a D4F81401 		ldr	r0, [r4, #276]
 162:Application/chassis_task.c ****     Chassis.ChassisMotionEst.MeasurementMap[1] = 3;
 286              		.loc 1 162 29 is_stmt 0 view .LVU81
 287 005e 203C     		subs	r4, r4, #32
 176:Application/chassis_task.c ****     memcpy(Chassis.ChassisMotionEst.R_data, ChassisMotionEst_R, sizeof(ChassisMotionEst_R));
 288              		.loc 1 176 5 view .LVU82
 289 0060 FFF7FEFF 		bl	memcpy
 290              	.LVL10:
 177:Application/chassis_task.c ****     memcpy(Chassis.ChassisMotionEst.H_data, ChassisMotionEst_H, sizeof(ChassisMotionEst_H));
 291              		.loc 1 177 5 is_stmt 1 view .LVU83
 292 0064 0F4D     		ldr	r5, .L24+16
 293 0066 D4F83841 		ldr	r4, [r4, #312]
 294 006a 05F1400E 		add	lr, r5, #64
 295              	.L22:
 296 006e AC46     		mov	ip, r5
 297 0070 BCE80F00 		ldmia	ip!, {r0, r1, r2, r3}
 298 0074 2060     		str	r0, [r4]	@ unaligned
 299 0076 6160     		str	r1, [r4, #4]	@ unaligned
 300 0078 A260     		str	r2, [r4, #8]	@ unaligned
 301 007a E360     		str	r3, [r4, #12]	@ unaligned
 302 007c 6546     		mov	r5, ip
 303 007e 1034     		adds	r4, r4, #16
 304 0080 F445     		cmp	ip, lr
 305 0082 F4D1     		bne	.L22
 178:Application/chassis_task.c ****     // Chassis.ChassisMotionEst.User_Func0_f = ChassisMotionEst_Tuning;
 306              		.loc 1 178 5 view .LVU84
 307 0084 6022     		movs	r2, #96
 308 0086 0849     		ldr	r1, .L24+20
 309 0088 084B     		ldr	r3, .L24+24
 310 008a D3F82C01 		ldr	r0, [r3, #300]
 311 008e FFF7FEFF 		bl	memcpy
 312              	.LVL11:
 181:Application/chassis_task.c **** 
 313              		.loc 1 181 1 is_stmt 0 view .LVU85
 314 0092 38BD     		pop	{r3, r4, r5, pc}
 315              	.L25:
ARM GAS  C:\Users\86152\AppData\Local\Temp\ccWGVtEI.s 			page 24


 316              		.align	2
 317              	.L24:
 318 0094 20000000 		.word	Chassis+32
 319 0098 00000000 		.word	.LANCHOR3
 320 009c 00000000 		.word	.LANCHOR4
 321 00a0 00000000 		.word	.LANCHOR5
 322 00a4 00000000 		.word	.LANCHOR6
 323 00a8 00000000 		.word	.LANCHOR7
 324 00ac 00000000 		.word	Chassis
 325              		.cfi_endproc
 326              	.LFE172:
 328              		.section	.text.ChassisMotionEst_Update,"ax",%progbits
 329              		.align	1
 330              		.syntax unified
 331              		.thumb
 332              		.thumb_func
 334              	ChassisMotionEst_Update:
 335              	.LVL12:
 336              	.LFB179:
 793:Application/chassis_task.c ****     static float sigmaSqrt[2];
 337              		.loc 1 793 1 is_stmt 1 view -0
 338              		.cfi_startproc
 339              		@ args = 0, pretend = 0, frame = 0
 340              		@ frame_needed = 0, uses_anonymous_args = 0
 793:Application/chassis_task.c ****     static float sigmaSqrt[2];
 341              		.loc 1 793 1 is_stmt 0 view .LVU87
 342 0000 08B5     		push	{r3, lr}
 343              	.LCFI2:
 344              		.cfi_def_cfa_offset 8
 345              		.cfi_offset 3, -8
 346              		.cfi_offset 14, -4
 347 0002 2DED028B 		vpush.64	{d8}
 348              	.LCFI3:
 349              		.cfi_def_cfa_offset 16
 350              		.cfi_offset 80, -16
 351              		.cfi_offset 81, -12
 352 0006 B0EE408A 		vmov.f32	s16, s0
 794:Application/chassis_task.c ****     /*
 353              		.loc 1 794 5 is_stmt 1 view .LVU88
 803:Application/chassis_task.c ****         sigmaSqrt[i] = ChassisMotionEst_Sigma[i] * ChassisMotionEst_Sigma[i];
 354              		.loc 1 803 5 view .LVU89
 355              	.LBB6:
 803:Application/chassis_task.c ****         sigmaSqrt[i] = ChassisMotionEst_Sigma[i] * ChassisMotionEst_Sigma[i];
 356              		.loc 1 803 10 view .LVU90
 357              	.LVL13:
 803:Application/chassis_task.c ****         sigmaSqrt[i] = ChassisMotionEst_Sigma[i] * ChassisMotionEst_Sigma[i];
 358              		.loc 1 803 18 is_stmt 0 view .LVU91
 359 000a 0023     		movs	r3, #0
 803:Application/chassis_task.c ****         sigmaSqrt[i] = ChassisMotionEst_Sigma[i] * ChassisMotionEst_Sigma[i];
 360              		.loc 1 803 5 view .LVU92
 361 000c 0DE0     		b	.L27
 362              	.LVL14:
 363              	.L28:
 804:Application/chassis_task.c **** 
 364              		.loc 1 804 9 is_stmt 1 discriminator 3 view .LVU93
 804:Application/chassis_task.c **** 
 365              		.loc 1 804 46 is_stmt 0 discriminator 3 view .LVU94
ARM GAS  C:\Users\86152\AppData\Local\Temp\ccWGVtEI.s 			page 25


 366 000e C54A     		ldr	r2, .L37
 367 0010 02EB8302 		add	r2, r2, r3, lsl #2
 368 0014 D2ED007A 		vldr.32	s15, [r2]
 804:Application/chassis_task.c **** 
 369              		.loc 1 804 50 discriminator 3 view .LVU95
 370 0018 67EEA77A 		vmul.f32	s15, s15, s15
 804:Application/chassis_task.c **** 
 371              		.loc 1 804 22 discriminator 3 view .LVU96
 372 001c C24A     		ldr	r2, .L37+4
 373 001e 02EB8302 		add	r2, r2, r3, lsl #2
 374 0022 C2ED007A 		vstr.32	s15, [r2]
 803:Application/chassis_task.c ****         sigmaSqrt[i] = ChassisMotionEst_Sigma[i] * ChassisMotionEst_Sigma[i];
 375              		.loc 1 803 32 is_stmt 1 discriminator 3 view .LVU97
 803:Application/chassis_task.c ****         sigmaSqrt[i] = ChassisMotionEst_Sigma[i] * ChassisMotionEst_Sigma[i];
 376              		.loc 1 803 33 is_stmt 0 discriminator 3 view .LVU98
 377 0026 0133     		adds	r3, r3, #1
 378              	.LVL15:
 803:Application/chassis_task.c ****         sigmaSqrt[i] = ChassisMotionEst_Sigma[i] * ChassisMotionEst_Sigma[i];
 379              		.loc 1 803 33 discriminator 3 view .LVU99
 380 0028 DBB2     		uxtb	r3, r3
 381              	.LVL16:
 382              	.L27:
 803:Application/chassis_task.c ****         sigmaSqrt[i] = ChassisMotionEst_Sigma[i] * ChassisMotionEst_Sigma[i];
 383              		.loc 1 803 25 is_stmt 1 discriminator 1 view .LVU100
 803:Application/chassis_task.c ****         sigmaSqrt[i] = ChassisMotionEst_Sigma[i] * ChassisMotionEst_Sigma[i];
 384              		.loc 1 803 5 is_stmt 0 discriminator 1 view .LVU101
 385 002a 012B     		cmp	r3, #1
 386 002c EFD9     		bls	.L28
 387              	.LBE6:
 806:Application/chassis_task.c ****     Chassis.ChassisMotionEst.F_data[2] = dt * dt * 0.5f;
 388              		.loc 1 806 5 is_stmt 1 view .LVU102
 806:Application/chassis_task.c ****     Chassis.ChassisMotionEst.F_data[2] = dt * dt * 0.5f;
 389              		.loc 1 806 29 is_stmt 0 view .LVU103
 390 002e BF48     		ldr	r0, .L37+8
 391 0030 D0F82031 		ldr	r3, [r0, #288]
 392              	.LVL17:
 806:Application/chassis_task.c ****     Chassis.ChassisMotionEst.F_data[2] = dt * dt * 0.5f;
 393              		.loc 1 806 40 view .LVU104
 394 0034 83ED018A 		vstr.32	s16, [r3, #4]
 807:Application/chassis_task.c ****     Chassis.ChassisMotionEst.F_data[8] = dt;
 395              		.loc 1 807 5 is_stmt 1 view .LVU105
 807:Application/chassis_task.c ****     Chassis.ChassisMotionEst.F_data[8] = dt;
 396              		.loc 1 807 45 is_stmt 0 view .LVU106
 397 0038 68EE085A 		vmul.f32	s11, s16, s16
 807:Application/chassis_task.c ****     Chassis.ChassisMotionEst.F_data[8] = dt;
 398              		.loc 1 807 29 view .LVU107
 399 003c D0F82031 		ldr	r3, [r0, #288]
 807:Application/chassis_task.c ****     Chassis.ChassisMotionEst.F_data[8] = dt;
 400              		.loc 1 807 50 view .LVU108
 401 0040 F6EE007A 		vmov.f32	s15, #5.0e-1
 402 0044 25EEA77A 		vmul.f32	s14, s11, s15
 807:Application/chassis_task.c ****     Chassis.ChassisMotionEst.F_data[8] = dt;
 403              		.loc 1 807 40 view .LVU109
 404 0048 83ED027A 		vstr.32	s14, [r3, #8]
 808:Application/chassis_task.c ****     Chassis.ChassisMotionEst.F_data[22] = dt;
 405              		.loc 1 808 5 is_stmt 1 view .LVU110
 808:Application/chassis_task.c ****     Chassis.ChassisMotionEst.F_data[22] = dt;
ARM GAS  C:\Users\86152\AppData\Local\Temp\ccWGVtEI.s 			page 26


 406              		.loc 1 808 29 is_stmt 0 view .LVU111
 407 004c D0F82031 		ldr	r3, [r0, #288]
 808:Application/chassis_task.c ****     Chassis.ChassisMotionEst.F_data[22] = dt;
 408              		.loc 1 808 40 view .LVU112
 409 0050 83ED088A 		vstr.32	s16, [r3, #32]
 809:Application/chassis_task.c ****     Chassis.ChassisMotionEst.F_data[23] = dt * dt * 0.5f;
 410              		.loc 1 809 5 is_stmt 1 view .LVU113
 809:Application/chassis_task.c ****     Chassis.ChassisMotionEst.F_data[23] = dt * dt * 0.5f;
 411              		.loc 1 809 29 is_stmt 0 view .LVU114
 412 0054 D0F82031 		ldr	r3, [r0, #288]
 809:Application/chassis_task.c ****     Chassis.ChassisMotionEst.F_data[23] = dt * dt * 0.5f;
 413              		.loc 1 809 41 view .LVU115
 414 0058 83ED168A 		vstr.32	s16, [r3, #88]
 810:Application/chassis_task.c ****     Chassis.ChassisMotionEst.F_data[29] = dt;
 415              		.loc 1 810 5 is_stmt 1 view .LVU116
 810:Application/chassis_task.c ****     Chassis.ChassisMotionEst.F_data[29] = dt;
 416              		.loc 1 810 29 is_stmt 0 view .LVU117
 417 005c D0F82031 		ldr	r3, [r0, #288]
 810:Application/chassis_task.c ****     Chassis.ChassisMotionEst.F_data[29] = dt;
 418              		.loc 1 810 41 view .LVU118
 419 0060 83ED177A 		vstr.32	s14, [r3, #92]
 811:Application/chassis_task.c **** 
 420              		.loc 1 811 5 is_stmt 1 view .LVU119
 811:Application/chassis_task.c **** 
 421              		.loc 1 811 29 is_stmt 0 view .LVU120
 422 0064 D0F82031 		ldr	r3, [r0, #288]
 811:Application/chassis_task.c **** 
 423              		.loc 1 811 41 view .LVU121
 424 0068 83ED1D8A 		vstr.32	s16, [r3, #116]
 813:Application/chassis_task.c ****     ChassisMotionEst_Q[1] = dt * dt * dt * dt * dt / 12.0f * sigmaSqrt[X];
 425              		.loc 1 813 5 is_stmt 1 view .LVU122
 813:Application/chassis_task.c ****     ChassisMotionEst_Q[1] = dt * dt * dt * dt * dt / 12.0f * sigmaSqrt[X];
 426              		.loc 1 813 37 is_stmt 0 view .LVU123
 427 006c 25EE887A 		vmul.f32	s14, s11, s16
 813:Application/chassis_task.c ****     ChassisMotionEst_Q[1] = dt * dt * dt * dt * dt / 12.0f * sigmaSqrt[X];
 428              		.loc 1 813 42 view .LVU124
 429 0070 67EE086A 		vmul.f32	s13, s14, s16
 813:Application/chassis_task.c ****     ChassisMotionEst_Q[1] = dt * dt * dt * dt * dt / 12.0f * sigmaSqrt[X];
 430              		.loc 1 813 47 view .LVU125
 431 0074 26EE885A 		vmul.f32	s10, s13, s16
 813:Application/chassis_task.c ****     ChassisMotionEst_Q[1] = dt * dt * dt * dt * dt / 12.0f * sigmaSqrt[X];
 432              		.loc 1 813 52 view .LVU126
 433 0078 65EE084A 		vmul.f32	s9, s10, s16
 813:Application/chassis_task.c ****     ChassisMotionEst_Q[1] = dt * dt * dt * dt * dt / 12.0f * sigmaSqrt[X];
 434              		.loc 1 813 57 view .LVU127
 435 007c 9FEDAC6A 		vldr.32	s12, .L37+12
 436 0080 C4EE863A 		vdiv.f32	s7, s9, s12
 813:Application/chassis_task.c ****     ChassisMotionEst_Q[1] = dt * dt * dt * dt * dt / 12.0f * sigmaSqrt[X];
 437              		.loc 1 813 76 view .LVU128
 438 0084 A84A     		ldr	r2, .L37+4
 439 0086 92ED006A 		vldr.32	s12, [r2]
 813:Application/chassis_task.c ****     ChassisMotionEst_Q[1] = dt * dt * dt * dt * dt / 12.0f * sigmaSqrt[X];
 440              		.loc 1 813 65 view .LVU129
 441 008a 63EE864A 		vmul.f32	s9, s7, s12
 813:Application/chassis_task.c ****     ChassisMotionEst_Q[1] = dt * dt * dt * dt * dt / 12.0f * sigmaSqrt[X];
 442              		.loc 1 813 27 view .LVU130
 443 008e A94B     		ldr	r3, .L37+16
ARM GAS  C:\Users\86152\AppData\Local\Temp\ccWGVtEI.s 			page 27


 444 0090 C3ED004A 		vstr.32	s9, [r3]
 814:Application/chassis_task.c ****     ChassisMotionEst_Q[2] = dt * dt * dt * dt / 6.0f * sigmaSqrt[X];
 445              		.loc 1 814 5 is_stmt 1 view .LVU131
 814:Application/chassis_task.c ****     ChassisMotionEst_Q[2] = dt * dt * dt * dt / 6.0f * sigmaSqrt[X];
 446              		.loc 1 814 52 is_stmt 0 view .LVU132
 447 0094 F2EE084A 		vmov.f32	s9, #1.2e+1
 448 0098 85EE244A 		vdiv.f32	s8, s10, s9
 814:Application/chassis_task.c ****     ChassisMotionEst_Q[2] = dt * dt * dt * dt / 6.0f * sigmaSqrt[X];
 449              		.loc 1 814 60 view .LVU133
 450 009c 26EE045A 		vmul.f32	s10, s12, s8
 814:Application/chassis_task.c ****     ChassisMotionEst_Q[2] = dt * dt * dt * dt / 6.0f * sigmaSqrt[X];
 451              		.loc 1 814 27 view .LVU134
 452 00a0 83ED015A 		vstr.32	s10, [r3, #4]
 815:Application/chassis_task.c ****     ChassisMotionEst_Q[6] = dt * dt * dt * dt * dt / 12.0f * sigmaSqrt[X];
 453              		.loc 1 815 5 is_stmt 1 view .LVU135
 815:Application/chassis_task.c ****     ChassisMotionEst_Q[6] = dt * dt * dt * dt * dt / 12.0f * sigmaSqrt[X];
 454              		.loc 1 815 47 is_stmt 0 view .LVU136
 455 00a4 B1EE083A 		vmov.f32	s6, #6.0e+0
 456 00a8 C6EE834A 		vdiv.f32	s9, s13, s6
 815:Application/chassis_task.c ****     ChassisMotionEst_Q[6] = dt * dt * dt * dt * dt / 12.0f * sigmaSqrt[X];
 457              		.loc 1 815 54 view .LVU137
 458 00ac 26EE243A 		vmul.f32	s6, s12, s9
 815:Application/chassis_task.c ****     ChassisMotionEst_Q[6] = dt * dt * dt * dt * dt / 12.0f * sigmaSqrt[X];
 459              		.loc 1 815 27 view .LVU138
 460 00b0 83ED023A 		vstr.32	s6, [r3, #8]
 816:Application/chassis_task.c ****     ChassisMotionEst_Q[7] = dt * dt * dt * dt / 4.0f * sigmaSqrt[X];
 461              		.loc 1 816 5 is_stmt 1 view .LVU139
 816:Application/chassis_task.c ****     ChassisMotionEst_Q[7] = dt * dt * dt * dt / 4.0f * sigmaSqrt[X];
 462              		.loc 1 816 27 is_stmt 0 view .LVU140
 463 00b4 83ED065A 		vstr.32	s10, [r3, #24]
 817:Application/chassis_task.c ****     ChassisMotionEst_Q[8] = dt * dt * dt / 2.0f * sigmaSqrt[X];
 464              		.loc 1 817 5 is_stmt 1 view .LVU141
 817:Application/chassis_task.c ****     ChassisMotionEst_Q[8] = dt * dt * dt / 2.0f * sigmaSqrt[X];
 465              		.loc 1 817 47 is_stmt 0 view .LVU142
 466 00b8 B5EE005A 		vmov.f32	s10, #2.5e-1
 467 00bc 66EE856A 		vmul.f32	s13, s13, s10
 817:Application/chassis_task.c ****     ChassisMotionEst_Q[8] = dt * dt * dt / 2.0f * sigmaSqrt[X];
 468              		.loc 1 817 54 view .LVU143
 469 00c0 66EE262A 		vmul.f32	s5, s12, s13
 817:Application/chassis_task.c ****     ChassisMotionEst_Q[8] = dt * dt * dt / 2.0f * sigmaSqrt[X];
 470              		.loc 1 817 27 view .LVU144
 471 00c4 C3ED072A 		vstr.32	s5, [r3, #28]
 818:Application/chassis_task.c ****     ChassisMotionEst_Q[12] = dt * dt * dt * dt / 6.0f * sigmaSqrt[X];
 472              		.loc 1 818 5 is_stmt 1 view .LVU145
 818:Application/chassis_task.c ****     ChassisMotionEst_Q[12] = dt * dt * dt * dt / 6.0f * sigmaSqrt[X];
 473              		.loc 1 818 42 is_stmt 0 view .LVU146
 474 00c8 27EE277A 		vmul.f32	s14, s14, s15
 818:Application/chassis_task.c ****     ChassisMotionEst_Q[12] = dt * dt * dt * dt / 6.0f * sigmaSqrt[X];
 475              		.loc 1 818 49 view .LVU147
 476 00cc 66EE077A 		vmul.f32	s15, s12, s14
 818:Application/chassis_task.c ****     ChassisMotionEst_Q[12] = dt * dt * dt * dt / 6.0f * sigmaSqrt[X];
 477              		.loc 1 818 27 view .LVU148
 478 00d0 C3ED087A 		vstr.32	s15, [r3, #32]
 819:Application/chassis_task.c ****     ChassisMotionEst_Q[13] = dt * dt * dt / 2.0f * sigmaSqrt[X];
 479              		.loc 1 819 5 is_stmt 1 view .LVU149
 819:Application/chassis_task.c ****     ChassisMotionEst_Q[13] = dt * dt * dt / 2.0f * sigmaSqrt[X];
 480              		.loc 1 819 28 is_stmt 0 view .LVU150
ARM GAS  C:\Users\86152\AppData\Local\Temp\ccWGVtEI.s 			page 28


 481 00d4 83ED0C3A 		vstr.32	s6, [r3, #48]
 820:Application/chassis_task.c ****     ChassisMotionEst_Q[14] = dt * dt * sigmaSqrt[X];
 482              		.loc 1 820 5 is_stmt 1 view .LVU151
 820:Application/chassis_task.c ****     ChassisMotionEst_Q[14] = dt * dt * sigmaSqrt[X];
 483              		.loc 1 820 28 is_stmt 0 view .LVU152
 484 00d8 C3ED0D7A 		vstr.32	s15, [r3, #52]
 821:Application/chassis_task.c **** 
 485              		.loc 1 821 5 is_stmt 1 view .LVU153
 821:Application/chassis_task.c **** 
 486              		.loc 1 821 38 is_stmt 0 view .LVU154
 487 00dc 25EE866A 		vmul.f32	s12, s11, s12
 821:Application/chassis_task.c **** 
 488              		.loc 1 821 28 view .LVU155
 489 00e0 83ED0E6A 		vstr.32	s12, [r3, #56]
 823:Application/chassis_task.c ****     ChassisMotionEst_Q[22] = dt * dt * dt * dt * dt / 12.0f * sigmaSqrt[Y];
 490              		.loc 1 823 5 is_stmt 1 view .LVU156
 823:Application/chassis_task.c ****     ChassisMotionEst_Q[22] = dt * dt * dt * dt * dt / 12.0f * sigmaSqrt[Y];
 491              		.loc 1 823 77 is_stmt 0 view .LVU157
 492 00e4 D2ED017A 		vldr.32	s15, [r2, #4]
 823:Application/chassis_task.c ****     ChassisMotionEst_Q[22] = dt * dt * dt * dt * dt / 12.0f * sigmaSqrt[Y];
 493              		.loc 1 823 66 view .LVU158
 494 00e8 63EEA73A 		vmul.f32	s7, s7, s15
 823:Application/chassis_task.c ****     ChassisMotionEst_Q[22] = dt * dt * dt * dt * dt / 12.0f * sigmaSqrt[Y];
 495              		.loc 1 823 28 view .LVU159
 496 00ec C3ED153A 		vstr.32	s7, [r3, #84]
 824:Application/chassis_task.c ****     ChassisMotionEst_Q[23] = dt * dt * dt * dt / 6.0f * sigmaSqrt[Y];
 497              		.loc 1 824 5 is_stmt 1 view .LVU160
 824:Application/chassis_task.c ****     ChassisMotionEst_Q[23] = dt * dt * dt * dt / 6.0f * sigmaSqrt[Y];
 498              		.loc 1 824 61 is_stmt 0 view .LVU161
 499 00f0 24EE274A 		vmul.f32	s8, s8, s15
 824:Application/chassis_task.c ****     ChassisMotionEst_Q[23] = dt * dt * dt * dt / 6.0f * sigmaSqrt[Y];
 500              		.loc 1 824 28 view .LVU162
 501 00f4 83ED164A 		vstr.32	s8, [r3, #88]
 825:Application/chassis_task.c ****     ChassisMotionEst_Q[27] = dt * dt * dt * dt * dt / 12.0f * sigmaSqrt[Y];
 502              		.loc 1 825 5 is_stmt 1 view .LVU163
 825:Application/chassis_task.c ****     ChassisMotionEst_Q[27] = dt * dt * dt * dt * dt / 12.0f * sigmaSqrt[Y];
 503              		.loc 1 825 55 is_stmt 0 view .LVU164
 504 00f8 24EEA76A 		vmul.f32	s12, s9, s15
 825:Application/chassis_task.c ****     ChassisMotionEst_Q[27] = dt * dt * dt * dt * dt / 12.0f * sigmaSqrt[Y];
 505              		.loc 1 825 28 view .LVU165
 506 00fc 83ED176A 		vstr.32	s12, [r3, #92]
 826:Application/chassis_task.c ****     ChassisMotionEst_Q[28] = dt * dt * dt * dt / 4.0f * sigmaSqrt[Y];
 507              		.loc 1 826 5 is_stmt 1 view .LVU166
 826:Application/chassis_task.c ****     ChassisMotionEst_Q[28] = dt * dt * dt * dt / 4.0f * sigmaSqrt[Y];
 508              		.loc 1 826 28 is_stmt 0 view .LVU167
 509 0100 83ED1B4A 		vstr.32	s8, [r3, #108]
 827:Application/chassis_task.c ****     ChassisMotionEst_Q[29] = dt * dt * dt / 2.0f * sigmaSqrt[Y];
 510              		.loc 1 827 5 is_stmt 1 view .LVU168
 827:Application/chassis_task.c ****     ChassisMotionEst_Q[29] = dt * dt * dt / 2.0f * sigmaSqrt[Y];
 511              		.loc 1 827 55 is_stmt 0 view .LVU169
 512 0104 66EEA76A 		vmul.f32	s13, s13, s15
 827:Application/chassis_task.c ****     ChassisMotionEst_Q[29] = dt * dt * dt / 2.0f * sigmaSqrt[Y];
 513              		.loc 1 827 28 view .LVU170
 514 0108 C3ED1C6A 		vstr.32	s13, [r3, #112]
 828:Application/chassis_task.c ****     ChassisMotionEst_Q[33] = dt * dt * dt * dt / 6.0f * sigmaSqrt[Y];
 515              		.loc 1 828 5 is_stmt 1 view .LVU171
 828:Application/chassis_task.c ****     ChassisMotionEst_Q[33] = dt * dt * dt * dt / 6.0f * sigmaSqrt[Y];
ARM GAS  C:\Users\86152\AppData\Local\Temp\ccWGVtEI.s 			page 29


 516              		.loc 1 828 50 is_stmt 0 view .LVU172
 517 010c 27EE277A 		vmul.f32	s14, s14, s15
 828:Application/chassis_task.c ****     ChassisMotionEst_Q[33] = dt * dt * dt * dt / 6.0f * sigmaSqrt[Y];
 518              		.loc 1 828 28 view .LVU173
 519 0110 83ED1D7A 		vstr.32	s14, [r3, #116]
 829:Application/chassis_task.c ****     ChassisMotionEst_Q[34] = dt * dt * dt / 2.0f * sigmaSqrt[Y];
 520              		.loc 1 829 5 is_stmt 1 view .LVU174
 829:Application/chassis_task.c ****     ChassisMotionEst_Q[34] = dt * dt * dt / 2.0f * sigmaSqrt[Y];
 521              		.loc 1 829 28 is_stmt 0 view .LVU175
 522 0114 83ED216A 		vstr.32	s12, [r3, #132]
 830:Application/chassis_task.c ****     ChassisMotionEst_Q[35] = dt * dt * sigmaSqrt[Y];
 523              		.loc 1 830 5 is_stmt 1 view .LVU176
 830:Application/chassis_task.c ****     ChassisMotionEst_Q[35] = dt * dt * sigmaSqrt[Y];
 524              		.loc 1 830 28 is_stmt 0 view .LVU177
 525 0118 83ED227A 		vstr.32	s14, [r3, #136]
 831:Application/chassis_task.c **** 
 526              		.loc 1 831 5 is_stmt 1 view .LVU178
 831:Application/chassis_task.c **** 
 527              		.loc 1 831 38 is_stmt 0 view .LVU179
 528 011c 65EEA75A 		vmul.f32	s11, s11, s15
 831:Application/chassis_task.c **** 
 529              		.loc 1 831 28 view .LVU180
 530 0120 C3ED235A 		vstr.32	s11, [r3, #140]
 833:Application/chassis_task.c ****     Chassis.V2_is = ((Chassis.ChassisMotor[1].Velocity_RPM) * 2 * pi / 60) * wheel_radius / 10 / 14
 531              		.loc 1 833 5 is_stmt 1 view .LVU181
 833:Application/chassis_task.c ****     Chassis.V2_is = ((Chassis.ChassisMotor[1].Velocity_RPM) * 2 * pi / 60) * wheel_radius / 10 / 14
 532              		.loc 1 833 46 is_stmt 0 view .LVU182
 533 0124 90ED907A 		vldr.32	s14, [r0, #576]
 833:Application/chassis_task.c ****     Chassis.V2_is = ((Chassis.ChassisMotor[1].Velocity_RPM) * 2 * pi / 60) * wheel_radius / 10 / 14
 534              		.loc 1 833 61 view .LVU183
 535 0128 37EE077A 		vadd.f32	s14, s14, s14
 833:Application/chassis_task.c ****     Chassis.V2_is = ((Chassis.ChassisMotor[1].Velocity_RPM) * 2 * pi / 60) * wheel_radius / 10 / 14
 536              		.loc 1 833 65 view .LVU184
 537 012c DFED823A 		vldr.32	s7, .L37+20
 538 0130 67EE236A 		vmul.f32	s13, s14, s7
 833:Application/chassis_task.c ****     Chassis.V2_is = ((Chassis.ChassisMotor[1].Velocity_RPM) * 2 * pi / 60) * wheel_radius / 10 / 14
 539              		.loc 1 833 70 view .LVU185
 540 0134 9FED814A 		vldr.32	s8, .L37+24
 541 0138 C6EE847A 		vdiv.f32	s15, s13, s8
 833:Application/chassis_task.c ****     Chassis.V2_is = ((Chassis.ChassisMotor[1].Velocity_RPM) * 2 * pi / 60) * wheel_radius / 10 / 14
 542              		.loc 1 833 76 view .LVU186
 543 013c DFED804A 		vldr.32	s9, .L37+28
 544 0140 67EEA47A 		vmul.f32	s15, s15, s9
 833:Application/chassis_task.c ****     Chassis.V2_is = ((Chassis.ChassisMotor[1].Velocity_RPM) * 2 * pi / 60) * wheel_radius / 10 / 14
 545              		.loc 1 833 91 view .LVU187
 546 0144 F2EE045A 		vmov.f32	s11, #1.0e+1
 547 0148 87EEA57A 		vdiv.f32	s14, s15, s11
 833:Application/chassis_task.c ****     Chassis.V2_is = ((Chassis.ChassisMotor[1].Velocity_RPM) * 2 * pi / 60) * wheel_radius / 10 / 14
 548              		.loc 1 833 96 view .LVU188
 549 014c B2EE0C6A 		vmov.f32	s12, #1.4e+1
 550 0150 C7EE067A 		vdiv.f32	s15, s14, s12
 833:Application/chassis_task.c ****     Chassis.V2_is = ((Chassis.ChassisMotor[1].Velocity_RPM) * 2 * pi / 60) * wheel_radius / 10 / 14
 551              		.loc 1 833 19 view .LVU189
 552 0154 C0ED617A 		vstr.32	s15, [r0, #388]
 834:Application/chassis_task.c ****     Chassis.V3_is = ((Chassis.ChassisMotor[2].Velocity_RPM) * 2 * pi / 60) * wheel_radius / 10 / 14
 553              		.loc 1 834 5 is_stmt 1 view .LVU190
 834:Application/chassis_task.c ****     Chassis.V3_is = ((Chassis.ChassisMotor[2].Velocity_RPM) * 2 * pi / 60) * wheel_radius / 10 / 14
ARM GAS  C:\Users\86152\AppData\Local\Temp\ccWGVtEI.s 			page 30


 554              		.loc 1 834 46 is_stmt 0 view .LVU191
 555 0158 00F5E563 		add	r3, r0, #1832
 556 015c D3ED006A 		vldr.32	s13, [r3]
 834:Application/chassis_task.c ****     Chassis.V3_is = ((Chassis.ChassisMotor[2].Velocity_RPM) * 2 * pi / 60) * wheel_radius / 10 / 14
 557              		.loc 1 834 61 view .LVU192
 558 0160 76EEA66A 		vadd.f32	s13, s13, s13
 834:Application/chassis_task.c ****     Chassis.V3_is = ((Chassis.ChassisMotor[2].Velocity_RPM) * 2 * pi / 60) * wheel_radius / 10 / 14
 559              		.loc 1 834 65 view .LVU193
 560 0164 66EEA36A 		vmul.f32	s13, s13, s7
 834:Application/chassis_task.c ****     Chassis.V3_is = ((Chassis.ChassisMotor[2].Velocity_RPM) * 2 * pi / 60) * wheel_radius / 10 / 14
 561              		.loc 1 834 70 view .LVU194
 562 0168 86EE847A 		vdiv.f32	s14, s13, s8
 834:Application/chassis_task.c ****     Chassis.V3_is = ((Chassis.ChassisMotor[2].Velocity_RPM) * 2 * pi / 60) * wheel_radius / 10 / 14
 563              		.loc 1 834 76 view .LVU195
 564 016c 27EE247A 		vmul.f32	s14, s14, s9
 834:Application/chassis_task.c ****     Chassis.V3_is = ((Chassis.ChassisMotor[2].Velocity_RPM) * 2 * pi / 60) * wheel_radius / 10 / 14
 565              		.loc 1 834 91 view .LVU196
 566 0170 C7EE256A 		vdiv.f32	s13, s14, s11
 834:Application/chassis_task.c ****     Chassis.V3_is = ((Chassis.ChassisMotor[2].Velocity_RPM) * 2 * pi / 60) * wheel_radius / 10 / 14
 567              		.loc 1 834 96 view .LVU197
 568 0174 C6EE862A 		vdiv.f32	s5, s13, s12
 834:Application/chassis_task.c ****     Chassis.V3_is = ((Chassis.ChassisMotor[2].Velocity_RPM) * 2 * pi / 60) * wheel_radius / 10 / 14
 569              		.loc 1 834 19 view .LVU198
 570 0178 C0ED622A 		vstr.32	s5, [r0, #392]
 835:Application/chassis_task.c ****     Chassis.V4_is = ((Chassis.ChassisMotor[3].Velocity_RPM) * 2 * pi / 60) * wheel_radius / 10 / 14
 571              		.loc 1 835 5 is_stmt 1 view .LVU199
 835:Application/chassis_task.c ****     Chassis.V4_is = ((Chassis.ChassisMotor[3].Velocity_RPM) * 2 * pi / 60) * wheel_radius / 10 / 14
 572              		.loc 1 835 46 is_stmt 0 view .LVU200
 573 017c 00F54163 		add	r3, r0, #3088
 574 0180 D3ED006A 		vldr.32	s13, [r3]
 835:Application/chassis_task.c ****     Chassis.V4_is = ((Chassis.ChassisMotor[3].Velocity_RPM) * 2 * pi / 60) * wheel_radius / 10 / 14
 575              		.loc 1 835 61 view .LVU201
 576 0184 76EEA66A 		vadd.f32	s13, s13, s13
 835:Application/chassis_task.c ****     Chassis.V4_is = ((Chassis.ChassisMotor[3].Velocity_RPM) * 2 * pi / 60) * wheel_radius / 10 / 14
 577              		.loc 1 835 65 view .LVU202
 578 0188 66EEA36A 		vmul.f32	s13, s13, s7
 835:Application/chassis_task.c ****     Chassis.V4_is = ((Chassis.ChassisMotor[3].Velocity_RPM) * 2 * pi / 60) * wheel_radius / 10 / 14
 579              		.loc 1 835 70 view .LVU203
 580 018c 86EE847A 		vdiv.f32	s14, s13, s8
 835:Application/chassis_task.c ****     Chassis.V4_is = ((Chassis.ChassisMotor[3].Velocity_RPM) * 2 * pi / 60) * wheel_radius / 10 / 14
 581              		.loc 1 835 76 view .LVU204
 582 0190 27EE247A 		vmul.f32	s14, s14, s9
 835:Application/chassis_task.c ****     Chassis.V4_is = ((Chassis.ChassisMotor[3].Velocity_RPM) * 2 * pi / 60) * wheel_radius / 10 / 14
 583              		.loc 1 835 91 view .LVU205
 584 0194 C7EE256A 		vdiv.f32	s13, s14, s11
 835:Application/chassis_task.c ****     Chassis.V4_is = ((Chassis.ChassisMotor[3].Velocity_RPM) * 2 * pi / 60) * wheel_radius / 10 / 14
 585              		.loc 1 835 96 view .LVU206
 586 0198 86EE863A 		vdiv.f32	s6, s13, s12
 835:Application/chassis_task.c ****     Chassis.V4_is = ((Chassis.ChassisMotor[3].Velocity_RPM) * 2 * pi / 60) * wheel_radius / 10 / 14
 587              		.loc 1 835 19 view .LVU207
 588 019c 80ED633A 		vstr.32	s6, [r0, #396]
 836:Application/chassis_task.c **** 
 589              		.loc 1 836 5 is_stmt 1 view .LVU208
 836:Application/chassis_task.c **** 
 590              		.loc 1 836 46 is_stmt 0 view .LVU209
 591 01a0 00F58053 		add	r3, r0, #4096
 592 01a4 93ED3E7A 		vldr.32	s14, [r3, #248]
ARM GAS  C:\Users\86152\AppData\Local\Temp\ccWGVtEI.s 			page 31


 836:Application/chassis_task.c **** 
 593              		.loc 1 836 61 view .LVU210
 594 01a8 37EE077A 		vadd.f32	s14, s14, s14
 836:Application/chassis_task.c **** 
 595              		.loc 1 836 65 view .LVU211
 596 01ac 27EE237A 		vmul.f32	s14, s14, s7
 836:Application/chassis_task.c **** 
 597              		.loc 1 836 70 view .LVU212
 598 01b0 C7EE046A 		vdiv.f32	s13, s14, s8
 836:Application/chassis_task.c **** 
 599              		.loc 1 836 76 view .LVU213
 600 01b4 66EEA44A 		vmul.f32	s9, s13, s9
 836:Application/chassis_task.c **** 
 601              		.loc 1 836 91 view .LVU214
 602 01b8 84EEA57A 		vdiv.f32	s14, s9, s11
 836:Application/chassis_task.c **** 
 603              		.loc 1 836 96 view .LVU215
 604 01bc C7EE066A 		vdiv.f32	s13, s14, s12
 836:Application/chassis_task.c **** 
 605              		.loc 1 836 19 view .LVU216
 606 01c0 C0ED646A 		vstr.32	s13, [r0, #400]
 838:Application/chassis_task.c ****     Chassis.Vy_is = (Chassis.V1_is + Chassis.V2_is - Chassis.V3_is - Chassis.V4_is) * Ky;
 607              		.loc 1 838 5 is_stmt 1 view .LVU217
 838:Application/chassis_task.c ****     Chassis.Vy_is = (Chassis.V1_is + Chassis.V2_is - Chassis.V3_is - Chassis.V4_is) * Ky;
 608              		.loc 1 838 36 is_stmt 0 view .LVU218
 609 01c4 32EE837A 		vadd.f32	s14, s5, s6
 838:Application/chassis_task.c ****     Chassis.Vy_is = (Chassis.V1_is + Chassis.V2_is - Chassis.V3_is - Chassis.V4_is) * Ky;
 610              		.loc 1 838 52 view .LVU219
 611 01c8 37EE677A 		vsub.f32	s14, s14, s15
 838:Application/chassis_task.c ****     Chassis.Vy_is = (Chassis.V1_is + Chassis.V2_is - Chassis.V3_is - Chassis.V4_is) * Ky;
 612              		.loc 1 838 68 view .LVU220
 613 01cc 37EE667A 		vsub.f32	s14, s14, s13
 838:Application/chassis_task.c ****     Chassis.Vy_is = (Chassis.V1_is + Chassis.V2_is - Chassis.V3_is - Chassis.V4_is) * Ky;
 614              		.loc 1 838 85 view .LVU221
 615 01d0 27EE057A 		vmul.f32	s14, s14, s10
 838:Application/chassis_task.c ****     Chassis.Vy_is = (Chassis.V1_is + Chassis.V2_is - Chassis.V3_is - Chassis.V4_is) * Ky;
 616              		.loc 1 838 19 view .LVU222
 617 01d4 80ED657A 		vstr.32	s14, [r0, #404]
 839:Application/chassis_task.c **** 
 618              		.loc 1 839 5 is_stmt 1 view .LVU223
 839:Application/chassis_task.c **** 
 619              		.loc 1 839 36 is_stmt 0 view .LVU224
 620 01d8 77EEA27A 		vadd.f32	s15, s15, s5
 839:Application/chassis_task.c **** 
 621              		.loc 1 839 52 view .LVU225
 622 01dc 77EEC37A 		vsub.f32	s15, s15, s6
 839:Application/chassis_task.c **** 
 623              		.loc 1 839 68 view .LVU226
 624 01e0 77EEE67A 		vsub.f32	s15, s15, s13
 839:Application/chassis_task.c **** 
 625              		.loc 1 839 85 view .LVU227
 626 01e4 67EE857A 		vmul.f32	s15, s15, s10
 839:Application/chassis_task.c **** 
 627              		.loc 1 839 19 view .LVU228
 628 01e8 C0ED667A 		vstr.32	s15, [r0, #408]
 844:Application/chassis_task.c ****     Chassis.ChassisMotionEst.MeasuredVector[1] = BMI088.Accel[0] * 100.0f;
 629              		.loc 1 844 5 is_stmt 1 view .LVU229
ARM GAS  C:\Users\86152\AppData\Local\Temp\ccWGVtEI.s 			page 32


 844:Application/chassis_task.c ****     Chassis.ChassisMotionEst.MeasuredVector[1] = BMI088.Accel[0] * 100.0f;
 630              		.loc 1 844 29 is_stmt 0 view .LVU230
 631 01ec 436A     		ldr	r3, [r0, #36]
 844:Application/chassis_task.c ****     Chassis.ChassisMotionEst.MeasuredVector[1] = BMI088.Accel[0] * 100.0f;
 632              		.loc 1 844 48 view .LVU231
 633 01ee 83ED007A 		vstr.32	s14, [r3]
 845:Application/chassis_task.c ****     Chassis.ChassisMotionEst.MeasuredVector[2] = Chassis.Vy_is;
 634              		.loc 1 845 5 is_stmt 1 view .LVU232
 845:Application/chassis_task.c ****     Chassis.ChassisMotionEst.MeasuredVector[2] = Chassis.Vy_is;
 635              		.loc 1 845 62 is_stmt 0 view .LVU233
 636 01f2 544B     		ldr	r3, .L37+32
 637 01f4 93ED007A 		vldr.32	s14, [r3]
 845:Application/chassis_task.c ****     Chassis.ChassisMotionEst.MeasuredVector[2] = Chassis.Vy_is;
 638              		.loc 1 845 29 view .LVU234
 639 01f8 426A     		ldr	r2, [r0, #36]
 845:Application/chassis_task.c ****     Chassis.ChassisMotionEst.MeasuredVector[2] = Chassis.Vy_is;
 640              		.loc 1 845 66 view .LVU235
 641 01fa DFED536A 		vldr.32	s13, .L37+36
 642 01fe 27EE267A 		vmul.f32	s14, s14, s13
 845:Application/chassis_task.c ****     Chassis.ChassisMotionEst.MeasuredVector[2] = Chassis.Vy_is;
 643              		.loc 1 845 48 view .LVU236
 644 0202 82ED017A 		vstr.32	s14, [r2, #4]
 846:Application/chassis_task.c ****     Chassis.ChassisMotionEst.MeasuredVector[3] = BMI088.Accel[1] * 100.0f;
 645              		.loc 1 846 5 is_stmt 1 view .LVU237
 846:Application/chassis_task.c ****     Chassis.ChassisMotionEst.MeasuredVector[3] = BMI088.Accel[1] * 100.0f;
 646              		.loc 1 846 29 is_stmt 0 view .LVU238
 647 0206 426A     		ldr	r2, [r0, #36]
 846:Application/chassis_task.c ****     Chassis.ChassisMotionEst.MeasuredVector[3] = BMI088.Accel[1] * 100.0f;
 648              		.loc 1 846 57 view .LVU239
 649 0208 D0F89811 		ldr	r1, [r0, #408]	@ float
 846:Application/chassis_task.c ****     Chassis.ChassisMotionEst.MeasuredVector[3] = BMI088.Accel[1] * 100.0f;
 650              		.loc 1 846 48 view .LVU240
 651 020c 9160     		str	r1, [r2, #8]	@ float
 847:Application/chassis_task.c **** 
 652              		.loc 1 847 5 is_stmt 1 view .LVU241
 847:Application/chassis_task.c **** 
 653              		.loc 1 847 62 is_stmt 0 view .LVU242
 654 020e D3ED017A 		vldr.32	s15, [r3, #4]
 847:Application/chassis_task.c **** 
 655              		.loc 1 847 29 view .LVU243
 656 0212 436A     		ldr	r3, [r0, #36]
 847:Application/chassis_task.c **** 
 657              		.loc 1 847 66 view .LVU244
 658 0214 67EEA67A 		vmul.f32	s15, s15, s13
 847:Application/chassis_task.c **** 
 659              		.loc 1 847 48 view .LVU245
 660 0218 C3ED037A 		vstr.32	s15, [r3, #12]
 849:Application/chassis_task.c **** 
 661              		.loc 1 849 5 is_stmt 1 view .LVU246
 662 021c 2030     		adds	r0, r0, #32
 663 021e FFF7FEFF 		bl	Kalman_Filter_Update
 664              	.LVL18:
 851:Application/chassis_task.c ****     {
 665              		.loc 1 851 5 view .LVU247
 666              	.LBB7:
 851:Application/chassis_task.c ****     {
 667              		.loc 1 851 10 view .LVU248
ARM GAS  C:\Users\86152\AppData\Local\Temp\ccWGVtEI.s 			page 33


 851:Application/chassis_task.c ****     {
 668              		.loc 1 851 18 is_stmt 0 view .LVU249
 669 0222 0023     		movs	r3, #0
 851:Application/chassis_task.c ****     {
 670              		.loc 1 851 5 view .LVU250
 671 0224 01E0     		b	.L29
 672              	.LVL19:
 673              	.L31:
 851:Application/chassis_task.c ****     {
 674              		.loc 1 851 64 is_stmt 1 discriminator 2 view .LVU251
 851:Application/chassis_task.c ****     {
 675              		.loc 1 851 65 is_stmt 0 discriminator 2 view .LVU252
 676 0226 0133     		adds	r3, r3, #1
 677              	.LVL20:
 851:Application/chassis_task.c ****     {
 678              		.loc 1 851 65 discriminator 2 view .LVU253
 679 0228 DBB2     		uxtb	r3, r3
 680              	.LVL21:
 681              	.L29:
 851:Application/chassis_task.c ****     {
 682              		.loc 1 851 25 is_stmt 1 discriminator 1 view .LVU254
 851:Application/chassis_task.c ****     {
 683              		.loc 1 851 53 is_stmt 0 discriminator 1 view .LVU255
 684 022a 404A     		ldr	r2, .L37+8
 685 022c 92F82C20 		ldrb	r2, [r2, #44]	@ zero_extendqisi2
 851:Application/chassis_task.c ****     {
 686              		.loc 1 851 5 discriminator 1 view .LVU256
 687 0230 9A42     		cmp	r2, r3
 688 0232 3DD9     		bls	.L36
 853:Application/chassis_task.c ****             Chassis.ChassisMotionEst.xhat_data[i] = 0;
 689              		.loc 1 853 9 is_stmt 1 view .LVU257
 853:Application/chassis_task.c ****             Chassis.ChassisMotionEst.xhat_data[i] = 0;
 690              		.loc 1 853 14 is_stmt 0 view .LVU258
 691 0234 3D4A     		ldr	r2, .L37+8
 692 0236 D2F80811 		ldr	r1, [r2, #264]
 693 023a 4FEA830C 		lsl	ip, r3, #2
 694 023e 01EB8301 		add	r1, r1, r3, lsl #2
 695 0242 D1ED007A 		vldr.32	s15, [r1]
 696 0246 F0EEE77A 		vabs.f32	s15, s15
 853:Application/chassis_task.c ****             Chassis.ChassisMotionEst.xhat_data[i] = 0;
 697              		.loc 1 853 13 view .LVU259
 698 024a 9FED407A 		vldr.32	s14, .L37+40
 699 024e F4EE477A 		vcmp.f32	s15, s14
 700 0252 F1EE10FA 		vmrs	APSR_nzcv, FPSCR
 701 0256 8CBF     		ite	hi
 702 0258 0120     		movhi	r0, #1
 703 025a 0020     		movls	r0, #0
 704 025c 9FED3C7A 		vldr.32	s14, .L37+44
 705 0260 F4EE477A 		vcmp.f32	s15, s14
 706 0264 F1EE10FA 		vmrs	APSR_nzcv, FPSCR
 707 0268 B8BF     		it	lt
 708 026a 40F00100 		orrlt	r0, r0, #1
 853:Application/chassis_task.c ****             Chassis.ChassisMotionEst.xhat_data[i] = 0;
 709              		.loc 1 853 12 view .LVU260
 710 026e 08B1     		cbz	r0, .L30
 854:Application/chassis_task.c ****         if (!isnormal(Chassis.ChassisMotionEst.FilteredValue[i]))
 711              		.loc 1 854 13 is_stmt 1 view .LVU261
ARM GAS  C:\Users\86152\AppData\Local\Temp\ccWGVtEI.s 			page 34


 854:Application/chassis_task.c ****         if (!isnormal(Chassis.ChassisMotionEst.FilteredValue[i]))
 712              		.loc 1 854 51 is_stmt 0 view .LVU262
 713 0270 0022     		movs	r2, #0
 714 0272 0A60     		str	r2, [r1]	@ float
 715              	.L30:
 855:Application/chassis_task.c ****             Chassis.ChassisMotionEst.FilteredValue[i] = 0;
 716              		.loc 1 855 9 is_stmt 1 view .LVU263
 855:Application/chassis_task.c ****             Chassis.ChassisMotionEst.FilteredValue[i] = 0;
 717              		.loc 1 855 14 is_stmt 0 view .LVU264
 718 0274 2D4A     		ldr	r2, .L37+8
 719 0276 126A     		ldr	r2, [r2, #32]
 720 0278 6244     		add	r2, r2, ip
 721 027a D2ED007A 		vldr.32	s15, [r2]
 722 027e F0EEE77A 		vabs.f32	s15, s15
 855:Application/chassis_task.c ****             Chassis.ChassisMotionEst.FilteredValue[i] = 0;
 723              		.loc 1 855 13 view .LVU265
 724 0282 9FED327A 		vldr.32	s14, .L37+40
 725 0286 F4EE477A 		vcmp.f32	s15, s14
 726 028a F1EE10FA 		vmrs	APSR_nzcv, FPSCR
 727 028e 8CBF     		ite	hi
 728 0290 0121     		movhi	r1, #1
 729 0292 0021     		movls	r1, #0
 730 0294 9FED2E7A 		vldr.32	s14, .L37+44
 731 0298 F4EE477A 		vcmp.f32	s15, s14
 732 029c F1EE10FA 		vmrs	APSR_nzcv, FPSCR
 733 02a0 B8BF     		it	lt
 734 02a2 41F00101 		orrlt	r1, r1, #1
 855:Application/chassis_task.c ****             Chassis.ChassisMotionEst.FilteredValue[i] = 0;
 735              		.loc 1 855 12 view .LVU266
 736 02a6 0029     		cmp	r1, #0
 737 02a8 BDD0     		beq	.L31
 856:Application/chassis_task.c ****     }
 738              		.loc 1 856 13 is_stmt 1 view .LVU267
 856:Application/chassis_task.c ****     }
 739              		.loc 1 856 55 is_stmt 0 view .LVU268
 740 02aa 0021     		movs	r1, #0
 741 02ac 1160     		str	r1, [r2]	@ float
 742 02ae BAE7     		b	.L31
 743              	.L36:
 744              	.LBE7:
 745              	.LBB8:
 859:Application/chassis_task.c ****     {
 746              		.loc 1 859 18 view .LVU269
 747 02b0 0023     		movs	r3, #0
 748              	.LVL22:
 859:Application/chassis_task.c ****     {
 749              		.loc 1 859 18 view .LVU270
 750 02b2 1DE0     		b	.L33
 751              	.LVL23:
 752              	.L34:
 861:Application/chassis_task.c ****         Chassis.Velocity[i] = Chassis.ChassisMotionEst.FilteredValue[i * 3 + 1];
 753              		.loc 1 861 9 is_stmt 1 discriminator 3 view .LVU271
 861:Application/chassis_task.c ****         Chassis.Velocity[i] = Chassis.ChassisMotionEst.FilteredValue[i * 3 + 1];
 754              		.loc 1 861 55 is_stmt 0 discriminator 3 view .LVU272
 755 02b4 1D4A     		ldr	r2, .L37+8
 756 02b6 116A     		ldr	r1, [r2, #32]
 861:Application/chassis_task.c ****         Chassis.Velocity[i] = Chassis.ChassisMotionEst.FilteredValue[i * 3 + 1];
ARM GAS  C:\Users\86152\AppData\Local\Temp\ccWGVtEI.s 			page 35


 757              		.loc 1 861 69 discriminator 3 view .LVU273
 758 02b8 03EB4300 		add	r0, r3, r3, lsl #1
 759 02bc 01EB8001 		add	r1, r1, r0, lsl #2
 760 02c0 D1F800C0 		ldr	ip, [r1]	@ float
 861:Application/chassis_task.c ****         Chassis.Velocity[i] = Chassis.ChassisMotionEst.FilteredValue[i * 3 + 1];
 761              		.loc 1 861 29 discriminator 3 view .LVU274
 762 02c4 03F16A00 		add	r0, r3, #106
 763 02c8 02EB8000 		add	r0, r2, r0, lsl #2
 764 02cc C0F800C0 		str	ip, [r0]	@ float
 862:Application/chassis_task.c ****         Chassis.Accel[i] = Chassis.ChassisMotionEst.FilteredValue[i * 3 + 2];
 765              		.loc 1 862 9 is_stmt 1 discriminator 3 view .LVU275
 862:Application/chassis_task.c ****         Chassis.Accel[i] = Chassis.ChassisMotionEst.FilteredValue[i * 3 + 2];
 766              		.loc 1 862 69 is_stmt 0 discriminator 3 view .LVU276
 767 02d0 D1F804C0 		ldr	ip, [r1, #4]	@ float
 862:Application/chassis_task.c ****         Chassis.Accel[i] = Chassis.ChassisMotionEst.FilteredValue[i * 3 + 2];
 768              		.loc 1 862 29 discriminator 3 view .LVU277
 769 02d4 03F16E00 		add	r0, r3, #110
 770 02d8 02EB8000 		add	r0, r2, r0, lsl #2
 771 02dc C0F800C0 		str	ip, [r0]	@ float
 863:Application/chassis_task.c ****     }
 772              		.loc 1 863 9 is_stmt 1 discriminator 3 view .LVU278
 863:Application/chassis_task.c ****     }
 773              		.loc 1 863 66 is_stmt 0 discriminator 3 view .LVU279
 774 02e0 8968     		ldr	r1, [r1, #8]	@ float
 863:Application/chassis_task.c ****     }
 775              		.loc 1 863 26 discriminator 3 view .LVU280
 776 02e2 03F17000 		add	r0, r3, #112
 777 02e6 02EB8002 		add	r2, r2, r0, lsl #2
 778 02ea 1160     		str	r1, [r2]	@ float
 859:Application/chassis_task.c ****     {
 779              		.loc 1 859 32 is_stmt 1 discriminator 3 view .LVU281
 859:Application/chassis_task.c ****     {
 780              		.loc 1 859 33 is_stmt 0 discriminator 3 view .LVU282
 781 02ec 0133     		adds	r3, r3, #1
 782              	.LVL24:
 859:Application/chassis_task.c ****     {
 783              		.loc 1 859 33 discriminator 3 view .LVU283
 784 02ee DBB2     		uxtb	r3, r3
 785              	.LVL25:
 786              	.L33:
 859:Application/chassis_task.c ****     {
 787              		.loc 1 859 25 is_stmt 1 discriminator 1 view .LVU284
 859:Application/chassis_task.c ****     {
 788              		.loc 1 859 5 is_stmt 0 discriminator 1 view .LVU285
 789 02f0 012B     		cmp	r3, #1
 790 02f2 DFD9     		bls	.L34
 791              	.LBE8:
 866:Application/chassis_task.c ****     Chassis.V_Position[1] += Chassis.Vy_is * dt;
 792              		.loc 1 866 5 is_stmt 1 view .LVU286
 866:Application/chassis_task.c ****     Chassis.V_Position[1] += Chassis.Vy_is * dt;
 793              		.loc 1 866 37 is_stmt 0 view .LVU287
 794 02f4 0D4B     		ldr	r3, .L37+8
 795              	.LVL26:
 866:Application/chassis_task.c ****     Chassis.V_Position[1] += Chassis.Vy_is * dt;
 796              		.loc 1 866 37 view .LVU288
 797 02f6 D3ED657A 		vldr.32	s15, [r3, #404]
 866:Application/chassis_task.c ****     Chassis.V_Position[1] += Chassis.Vy_is * dt;
ARM GAS  C:\Users\86152\AppData\Local\Temp\ccWGVtEI.s 			page 36


 798              		.loc 1 866 44 view .LVU289
 799 02fa 27EE887A 		vmul.f32	s14, s15, s16
 866:Application/chassis_task.c ****     Chassis.V_Position[1] += Chassis.Vy_is * dt;
 800              		.loc 1 866 27 view .LVU290
 801 02fe D3ED6C7A 		vldr.32	s15, [r3, #432]
 802 0302 77EE877A 		vadd.f32	s15, s15, s14
 803 0306 C3ED6C7A 		vstr.32	s15, [r3, #432]
 867:Application/chassis_task.c **** }
 804              		.loc 1 867 5 is_stmt 1 view .LVU291
 867:Application/chassis_task.c **** }
 805              		.loc 1 867 37 is_stmt 0 view .LVU292
 806 030a 93ED660A 		vldr.32	s0, [r3, #408]
 867:Application/chassis_task.c **** }
 807              		.loc 1 867 44 view .LVU293
 808 030e 20EE080A 		vmul.f32	s0, s0, s16
 867:Application/chassis_task.c **** }
 809              		.loc 1 867 27 view .LVU294
 810 0312 93ED6D8A 		vldr.32	s16, [r3, #436]
 811              	.LVL27:
 867:Application/chassis_task.c **** }
 812              		.loc 1 867 27 view .LVU295
 813 0316 38EE008A 		vadd.f32	s16, s16, s0
 814 031a 83ED6D8A 		vstr.32	s16, [r3, #436]
 868:Application/chassis_task.c **** 
 815              		.loc 1 868 1 view .LVU296
 816 031e BDEC028B 		vldm	sp!, {d8}
 817              	.LCFI4:
 818              		.cfi_restore 80
 819              		.cfi_restore 81
 820              		.cfi_def_cfa_offset 8
 821 0322 08BD     		pop	{r3, pc}
 822              	.L38:
 823              		.align	2
 824              	.L37:
 825 0324 00000000 		.word	.LANCHOR8
 826 0328 00000000 		.word	.LANCHOR9
 827 032c 00000000 		.word	Chassis
 828 0330 00001042 		.word	1108344832
 829 0334 00000000 		.word	.LANCHOR5
 830 0338 DA0F4940 		.word	1078530010
 831 033c 00007042 		.word	1114636288
 832 0340 00009842 		.word	1117257728
 833 0344 00000000 		.word	BMI088
 834 0348 0000C842 		.word	1120403456
 835 034c FFFF7F7F 		.word	2139095039
 836 0350 00008000 		.word	8388608
 837              		.cfi_endproc
 838              	.LFE179:
 840              		.section	.text.Chassis_Power_Exp,"ax",%progbits
 841              		.align	1
 842              		.syntax unified
 843              		.thumb
 844              		.thumb_func
 846              	Chassis_Power_Exp:
 847              	.LFB182:
 926:Application/chassis_task.c ****     if (is_TOE_Error(CAP_TOE))         // CAP是电容
 848              		.loc 1 926 1 is_stmt 1 view -0
ARM GAS  C:\Users\86152\AppData\Local\Temp\ccWGVtEI.s 			page 37


 849              		.cfi_startproc
 850              		@ args = 0, pretend = 0, frame = 0
 851              		@ frame_needed = 0, uses_anonymous_args = 0
 852 0000 08B5     		push	{r3, lr}
 853              	.LCFI5:
 854              		.cfi_def_cfa_offset 8
 855              		.cfi_offset 3, -8
 856              		.cfi_offset 14, -4
 927:Application/chassis_task.c ****         ina226[0].Bus_Voltage = 24.0f; // 电容掉线，默认为24v;
 857              		.loc 1 927 5 view .LVU298
 927:Application/chassis_task.c ****         ina226[0].Bus_Voltage = 24.0f; // 电容掉线，默认为24v;
 858              		.loc 1 927 9 is_stmt 0 view .LVU299
 859 0002 0820     		movs	r0, #8
 860 0004 FFF7FEFF 		bl	is_TOE_Error
 861              	.LVL28:
 927:Application/chassis_task.c ****         ina226[0].Bus_Voltage = 24.0f; // 电容掉线，默认为24v;
 862              		.loc 1 927 8 view .LVU300
 863 0008 10B1     		cbz	r0, .L40
 928:Application/chassis_task.c **** 
 864              		.loc 1 928 9 is_stmt 1 view .LVU301
 928:Application/chassis_task.c **** 
 865              		.loc 1 928 31 is_stmt 0 view .LVU302
 866 000a 244B     		ldr	r3, .L45
 867 000c 244A     		ldr	r2, .L45+4
 868 000e 1A60     		str	r2, [r3]	@ float
 869              	.L40:
 930:Application/chassis_task.c ****     for (uint8_t i = 0; i < 4; i++)
 870              		.loc 1 930 5 is_stmt 1 view .LVU303
 930:Application/chassis_task.c ****     for (uint8_t i = 0; i < 4; i++)
 871              		.loc 1 930 44 is_stmt 0 view .LVU304
 872 0010 244B     		ldr	r3, .L45+8
 873 0012 0022     		movs	r2, #0
 874 0014 C3F82422 		str	r2, [r3, #548]	@ float
 931:Application/chassis_task.c ****     {
 875              		.loc 1 931 5 is_stmt 1 view .LVU305
 876              	.LBB9:
 931:Application/chassis_task.c ****     {
 877              		.loc 1 931 10 view .LVU306
 878              	.LVL29:
 931:Application/chassis_task.c ****     {
 879              		.loc 1 931 18 is_stmt 0 view .LVU307
 880 0018 0023     		movs	r3, #0
 931:Application/chassis_task.c ****     {
 881              		.loc 1 931 5 view .LVU308
 882 001a 19E0     		b	.L41
 883              	.LVL30:
 884              	.L42:
 933:Application/chassis_task.c ****     }
 885              		.loc 1 933 9 is_stmt 1 discriminator 3 view .LVU309
 933:Application/chassis_task.c ****     }
 886              		.loc 1 933 60 is_stmt 0 discriminator 3 view .LVU310
 887 001c 1F4A     		ldr	r2, .L45
 888 001e 92ED007A 		vldr.32	s14, [r2]
 933:Application/chassis_task.c ****     }
 889              		.loc 1 933 104 discriminator 3 view .LVU311
 890 0022 2049     		ldr	r1, .L45+8
 891 0024 4FF49D62 		mov	r2, #1256
ARM GAS  C:\Users\86152\AppData\Local\Temp\ccWGVtEI.s 			page 38


 892 0028 02FB0312 		mla	r2, r2, r3, r1
 893 002c D2ED9E7A 		vldr.32	s15, [r2, #632]
 933:Application/chassis_task.c ****     }
 894              		.loc 1 933 137 discriminator 3 view .LVU312
 895 0030 D2ED906A 		vldr.32	s13, [r2, #576]
 933:Application/chassis_task.c ****     }
 896              		.loc 1 933 112 discriminator 3 view .LVU313
 897 0034 67EEA67A 		vmul.f32	s15, s15, s13
 933:Application/chassis_task.c ****     }
 898              		.loc 1 933 75 discriminator 3 view .LVU314
 899 0038 F0EEE77A 		vabs.f32	s15, s15
 933:Application/chassis_task.c ****     }
 900              		.loc 1 933 73 discriminator 3 view .LVU315
 901 003c 27EE277A 		vmul.f32	s14, s14, s15
 933:Application/chassis_task.c ****     }
 902              		.loc 1 933 48 discriminator 3 view .LVU316
 903 0040 D1ED897A 		vldr.32	s15, [r1, #548]
 904 0044 77EE877A 		vadd.f32	s15, s15, s14
 905 0048 C1ED897A 		vstr.32	s15, [r1, #548]
 931:Application/chassis_task.c ****     {
 906              		.loc 1 931 32 is_stmt 1 discriminator 3 view .LVU317
 931:Application/chassis_task.c ****     {
 907              		.loc 1 931 33 is_stmt 0 discriminator 3 view .LVU318
 908 004c 0133     		adds	r3, r3, #1
 909              	.LVL31:
 931:Application/chassis_task.c ****     {
 910              		.loc 1 931 33 discriminator 3 view .LVU319
 911 004e DBB2     		uxtb	r3, r3
 912              	.LVL32:
 913              	.L41:
 931:Application/chassis_task.c ****     {
 914              		.loc 1 931 25 is_stmt 1 discriminator 1 view .LVU320
 931:Application/chassis_task.c ****     {
 915              		.loc 1 931 5 is_stmt 0 discriminator 1 view .LVU321
 916 0050 032B     		cmp	r3, #3
 917 0052 E3D9     		bls	.L42
 918              	.LBE9:
 935:Application/chassis_task.c ****     if (!isnormal(Chassis.PowerControl.Power_Calculation))
 919              		.loc 1 935 5 is_stmt 1 view .LVU322
 935:Application/chassis_task.c ****     if (!isnormal(Chassis.PowerControl.Power_Calculation))
 920              		.loc 1 935 44 is_stmt 0 view .LVU323
 921 0054 134B     		ldr	r3, .L45+8
 922              	.LVL33:
 935:Application/chassis_task.c ****     if (!isnormal(Chassis.PowerControl.Power_Calculation))
 923              		.loc 1 935 44 view .LVU324
 924 0056 D3ED897A 		vldr.32	s15, [r3, #548]
 925 005a 9FED137A 		vldr.32	s14, .L45+12
 926 005e 67EE877A 		vmul.f32	s15, s15, s14
 927 0062 C3ED897A 		vstr.32	s15, [r3, #548]
 936:Application/chassis_task.c ****         Chassis.PowerControl.Power_Calculation = 0.0f;
 928              		.loc 1 936 5 is_stmt 1 view .LVU325
 936:Application/chassis_task.c ****         Chassis.PowerControl.Power_Calculation = 0.0f;
 929              		.loc 1 936 10 is_stmt 0 view .LVU326
 930 0066 F0EEE77A 		vabs.f32	s15, s15
 936:Application/chassis_task.c ****         Chassis.PowerControl.Power_Calculation = 0.0f;
 931              		.loc 1 936 9 view .LVU327
 932 006a 9FED107A 		vldr.32	s14, .L45+16
ARM GAS  C:\Users\86152\AppData\Local\Temp\ccWGVtEI.s 			page 39


 933 006e F4EE477A 		vcmp.f32	s15, s14
 934 0072 F1EE10FA 		vmrs	APSR_nzcv, FPSCR
 935 0076 8CBF     		ite	hi
 936 0078 0123     		movhi	r3, #1
 937 007a 0023     		movls	r3, #0
 938 007c 9FED0C7A 		vldr.32	s14, .L45+20
 939 0080 F4EE477A 		vcmp.f32	s15, s14
 940 0084 F1EE10FA 		vmrs	APSR_nzcv, FPSCR
 941 0088 B8BF     		it	lt
 942 008a 43F00103 		orrlt	r3, r3, #1
 936:Application/chassis_task.c ****         Chassis.PowerControl.Power_Calculation = 0.0f;
 943              		.loc 1 936 8 view .LVU328
 944 008e 1BB1     		cbz	r3, .L39
 937:Application/chassis_task.c **** }
 945              		.loc 1 937 9 is_stmt 1 view .LVU329
 937:Application/chassis_task.c **** }
 946              		.loc 1 937 48 is_stmt 0 view .LVU330
 947 0090 044B     		ldr	r3, .L45+8
 948 0092 0022     		movs	r2, #0
 949 0094 C3F82422 		str	r2, [r3, #548]	@ float
 950              	.L39:
 938:Application/chassis_task.c **** 
 951              		.loc 1 938 1 view .LVU331
 952 0098 08BD     		pop	{r3, pc}
 953              	.L46:
 954 009a 00BF     		.align	2
 955              	.L45:
 956 009c 00000000 		.word	ina226
 957 00a0 0000C041 		.word	1103101952
 958 00a4 00000000 		.word	Chassis
 959 00a8 DAF83934 		.word	876214490
 960 00ac FFFF7F7F 		.word	2139095039
 961 00b0 00008000 		.word	8388608
 962              		.cfi_endproc
 963              	.LFE182:
 965              		.section	.text.Chassis_Get_CtrlValue,"ax",%progbits
 966              		.align	1
 967              		.syntax unified
 968              		.thumb
 969              		.thumb_func
 971              	Chassis_Get_CtrlValue:
 972              	.LFB175:
 222:Application/chassis_task.c ****     static float Temp_Vx, Temp_Vy; // 速度的期望值
 973              		.loc 1 222 1 is_stmt 1 view -0
 974              		.cfi_startproc
 975              		@ args = 0, pretend = 0, frame = 0
 976              		@ frame_needed = 0, uses_anonymous_args = 0
 977 0000 10B5     		push	{r4, lr}
 978              	.LCFI6:
 979              		.cfi_def_cfa_offset 8
 980              		.cfi_offset 4, -8
 981              		.cfi_offset 14, -4
 982 0002 2DED028B 		vpush.64	{d8}
 983              	.LCFI7:
 984              		.cfi_def_cfa_offset 16
 985              		.cfi_offset 80, -16
 986              		.cfi_offset 81, -12
ARM GAS  C:\Users\86152\AppData\Local\Temp\ccWGVtEI.s 			page 40


 223:Application/chassis_task.c ****     static float tempVal;
 987              		.loc 1 223 5 view .LVU333
 224:Application/chassis_task.c ****     static float RC = 0.000001f;
 988              		.loc 1 224 5 view .LVU334
 225:Application/chassis_task.c **** 
 989              		.loc 1 225 5 view .LVU335
 228:Application/chassis_task.c ****         robot_state.chassis_power_limit /= 256;
 990              		.loc 1 228 5 view .LVU336
 228:Application/chassis_task.c ****         robot_state.chassis_power_limit /= 256;
 991              		.loc 1 228 20 is_stmt 0 view .LVU337
 992 0006 C14B     		ldr	r3, .L90
 993 0008 1B8B     		ldrh	r3, [r3, #24]
 228:Application/chassis_task.c ****         robot_state.chassis_power_limit /= 256;
 994              		.loc 1 228 8 view .LVU338
 995 000a B3F5205F 		cmp	r3, #10240
 996 000e 02D3     		bcc	.L48
 229:Application/chassis_task.c ****     // 功率限幅
 997              		.loc 1 229 9 is_stmt 1 view .LVU339
 229:Application/chassis_task.c ****     // 功率限幅
 998              		.loc 1 229 41 is_stmt 0 view .LVU340
 999 0010 1B0A     		lsrs	r3, r3, #8
 1000 0012 BE4A     		ldr	r2, .L90
 1001 0014 1383     		strh	r3, [r2, #24]	@ movhi
 1002              	.L48:
 231:Application/chassis_task.c ****         robot_state.chassis_power_limit = 120;
 1003              		.loc 1 231 5 is_stmt 1 view .LVU341
 231:Application/chassis_task.c ****         robot_state.chassis_power_limit = 120;
 1004              		.loc 1 231 20 is_stmt 0 view .LVU342
 1005 0016 BD4B     		ldr	r3, .L90
 1006 0018 1B8B     		ldrh	r3, [r3, #24]
 231:Application/chassis_task.c ****         robot_state.chassis_power_limit = 120;
 1007              		.loc 1 231 8 view .LVU343
 1008 001a 782B     		cmp	r3, #120
 1009 001c 02D9     		bls	.L49
 232:Application/chassis_task.c ****     // 功率最低限制
 1010              		.loc 1 232 9 is_stmt 1 view .LVU344
 232:Application/chassis_task.c ****     // 功率最低限制
 1011              		.loc 1 232 41 is_stmt 0 view .LVU345
 1012 001e BB4B     		ldr	r3, .L90
 1013 0020 7822     		movs	r2, #120
 1014 0022 1A83     		strh	r2, [r3, #24]	@ movhi
 1015              	.L49:
 234:Application/chassis_task.c ****         robot_state.chassis_power_limit = 45;
 1016              		.loc 1 234 5 is_stmt 1 view .LVU346
 234:Application/chassis_task.c ****         robot_state.chassis_power_limit = 45;
 1017              		.loc 1 234 20 is_stmt 0 view .LVU347
 1018 0024 B94B     		ldr	r3, .L90
 1019 0026 1B8B     		ldrh	r3, [r3, #24]
 234:Application/chassis_task.c ****         robot_state.chassis_power_limit = 45;
 1020              		.loc 1 234 8 view .LVU348
 1021 0028 13B9     		cbnz	r3, .L50
 235:Application/chassis_task.c **** 
 1022              		.loc 1 235 9 is_stmt 1 view .LVU349
 235:Application/chassis_task.c **** 
 1023              		.loc 1 235 41 is_stmt 0 view .LVU350
 1024 002a B84B     		ldr	r3, .L90
 1025 002c 2D22     		movs	r2, #45
ARM GAS  C:\Users\86152\AppData\Local\Temp\ccWGVtEI.s 			page 41


 1026 002e 1A83     		strh	r2, [r3, #24]	@ movhi
 1027              	.L50:
 237:Application/chassis_task.c ****         Chassis.VelocityRatio = float_constrain(robot_state.chassis_power_limit / 10.0f + 2, 3, 7);
 1028              		.loc 1 237 5 is_stmt 1 view .LVU351
 237:Application/chassis_task.c ****         Chassis.VelocityRatio = float_constrain(robot_state.chassis_power_limit / 10.0f + 2, 3, 7);
 1029              		.loc 1 237 20 is_stmt 0 view .LVU352
 1030 0030 B64B     		ldr	r3, .L90
 1031 0032 1B8B     		ldrh	r3, [r3, #24]
 237:Application/chassis_task.c ****         Chassis.VelocityRatio = float_constrain(robot_state.chassis_power_limit / 10.0f + 2, 3, 7);
 1032              		.loc 1 237 8 view .LVU353
 1033 0034 002B     		cmp	r3, #0
 1034 0036 40F0E780 		bne	.L86
 1035              	.L51:
 240:Application/chassis_task.c ****     Temp_Vy = 0;
 1036              		.loc 1 240 5 is_stmt 1 view .LVU354
 240:Application/chassis_task.c ****     Temp_Vy = 0;
 1037              		.loc 1 240 13 is_stmt 0 view .LVU355
 1038 003a B54A     		ldr	r2, .L90+4
 1039 003c DFEDB57A 		vldr.32	s15, .L90+8
 1040 0040 C2ED007A 		vstr.32	s15, [r2]
 241:Application/chassis_task.c ****     Temp_Vx += remote_control.ch3;
 1041              		.loc 1 241 5 is_stmt 1 view .LVU356
 241:Application/chassis_task.c ****     Temp_Vx += remote_control.ch3;
 1042              		.loc 1 241 13 is_stmt 0 view .LVU357
 1043 0044 B44B     		ldr	r3, .L90+12
 1044 0046 C3ED007A 		vstr.32	s15, [r3]
 242:Application/chassis_task.c ****     Temp_Vy += remote_control.ch4 == -660 ? 0 : remote_control.ch4; // ch4 != -660 ?
 1045              		.loc 1 242 5 is_stmt 1 view .LVU358
 242:Application/chassis_task.c ****     Temp_Vy += remote_control.ch4 == -660 ? 0 : remote_control.ch4; // ch4 != -660 ?
 1046              		.loc 1 242 30 is_stmt 0 view .LVU359
 1047 004a B44B     		ldr	r3, .L90+16
 1048 004c B3F90810 		ldrsh	r1, [r3, #8]
 1049 0050 07EE101A 		vmov	s14, r1	@ int
 242:Application/chassis_task.c ****     Temp_Vy += remote_control.ch4 == -660 ? 0 : remote_control.ch4; // ch4 != -660 ?
 1050              		.loc 1 242 13 view .LVU360
 1051 0054 B8EEC77A 		vcvt.f32.s32	s14, s14
 1052 0058 37EE277A 		vadd.f32	s14, s14, s15
 1053 005c 82ED007A 		vstr.32	s14, [r2]
 243:Application/chassis_task.c **** 
 1054              		.loc 1 243 5 is_stmt 1 view .LVU361
 243:Application/chassis_task.c **** 
 1055              		.loc 1 243 30 is_stmt 0 view .LVU362
 1056 0060 B3F90A30 		ldrsh	r3, [r3, #10]
 243:Application/chassis_task.c **** 
 1057              		.loc 1 243 13 view .LVU363
 1058 0064 13F5257F 		cmn	r3, #660
 1059 0068 00F0E480 		beq	.L72
 243:Application/chassis_task.c **** 
 1060              		.loc 1 243 13 discriminator 1 view .LVU364
 1061 006c 07EE903A 		vmov	s15, r3	@ int
 1062 0070 F8EEE77A 		vcvt.f32.s32	s15, s15
 1063              	.L52:
 243:Application/chassis_task.c **** 
 1064              		.loc 1 243 13 discriminator 4 view .LVU365
 1065 0074 DFEDA76A 		vldr.32	s13, .L90+8
 1066 0078 77EEA67A 		vadd.f32	s15, s15, s13
 1067 007c A64B     		ldr	r3, .L90+12
ARM GAS  C:\Users\86152\AppData\Local\Temp\ccWGVtEI.s 			page 42


 1068 007e C3ED007A 		vstr.32	s15, [r3]
 245:Application/chassis_task.c ****     {
 1069              		.loc 1 245 5 is_stmt 1 discriminator 4 view .LVU366
 245:Application/chassis_task.c ****     {
 1070              		.loc 1 245 23 is_stmt 0 discriminator 4 view .LVU367
 1071 0082 A64B     		ldr	r3, .L90+16
 1072 0084 1B7B     		ldrb	r3, [r3, #12]	@ zero_extendqisi2
 245:Application/chassis_task.c ****     {
 1073              		.loc 1 245 8 discriminator 4 view .LVU368
 1074 0086 012B     		cmp	r3, #1
 1075 0088 00F0D780 		beq	.L87
 1076              	.L53:
 251:Application/chassis_task.c ****     {
 1077              		.loc 1 251 5 is_stmt 1 view .LVU369
 251:Application/chassis_task.c ****     {
 1078              		.loc 1 251 9 is_stmt 0 view .LVU370
 1079 008c A04B     		ldr	r3, .L90+4
 1080 008e D3ED007A 		vldr.32	s15, [r3]
 1081 0092 F0EEE76A 		vabs.f32	s13, s15
 251:Application/chassis_task.c ****     {
 1082              		.loc 1 251 8 view .LVU371
 1083 0096 9FEDA27A 		vldr.32	s14, .L90+20
 1084 009a F4EEC76A 		vcmpe.f32	s13, s14
 1085 009e F1EE10FA 		vmrs	APSR_nzcv, FPSCR
 1086 00a2 40F3E580 		ble	.L81
 253:Application/chassis_task.c ****             Chassis.Vx = 0;
 1087              		.loc 1 253 9 is_stmt 1 view .LVU372
 253:Application/chassis_task.c ****             Chassis.Vx = 0;
 1088              		.loc 1 253 20 is_stmt 0 view .LVU373
 1089 00a6 9F4B     		ldr	r3, .L90+24
 1090 00a8 B3F90030 		ldrsh	r3, [r3]
 1091 00ac 07EE103A 		vmov	s14, r3	@ int
 253:Application/chassis_task.c ****             Chassis.Vx = 0;
 1092              		.loc 1 253 24 view .LVU374
 1093 00b0 B8EEC77A 		vcvt.f32.s32	s14, s14
 1094 00b4 27EE277A 		vmul.f32	s14, s14, s15
 253:Application/chassis_task.c ****             Chassis.Vx = 0;
 1095              		.loc 1 253 12 view .LVU375
 1096 00b8 B5EEC07A 		vcmpe.f32	s14, #0
 1097 00bc F1EE10FA 		vmrs	APSR_nzcv, FPSCR
 1098 00c0 00F1C680 		bmi	.L88
 1099              	.L56:
 256:Application/chassis_task.c ****         if (tempVal > Vx_k)
 1100              		.loc 1 256 9 is_stmt 1 view .LVU376
 256:Application/chassis_task.c ****         if (tempVal > Vx_k)
 1101              		.loc 1 256 37 is_stmt 0 view .LVU377
 1102 00c4 974B     		ldr	r3, .L90+24
 1103 00c6 B3F90030 		ldrsh	r3, [r3]
 1104 00ca 07EE103A 		vmov	s14, r3	@ int
 256:Application/chassis_task.c ****         if (tempVal > Vx_k)
 1105              		.loc 1 256 28 view .LVU378
 1106 00ce B8EEC77A 		vcvt.f32.s32	s14, s14
 1107 00d2 77EEC77A 		vsub.f32	s15, s15, s14
 256:Application/chassis_task.c ****         if (tempVal > Vx_k)
 1108              		.loc 1 256 48 view .LVU379
 1109 00d6 944B     		ldr	r3, .L90+28
 1110 00d8 D3ED006A 		vldr.32	s13, [r3]
ARM GAS  C:\Users\86152\AppData\Local\Temp\ccWGVtEI.s 			page 43


 1111 00dc 9FED936A 		vldr.32	s12, .L90+32
 1112 00e0 36EE866A 		vadd.f32	s12, s13, s12
 256:Application/chassis_task.c ****         if (tempVal > Vx_k)
 1113              		.loc 1 256 42 view .LVU380
 1114 00e4 C7EE865A 		vdiv.f32	s11, s15, s12
 256:Application/chassis_task.c ****         if (tempVal > Vx_k)
 1115              		.loc 1 256 17 view .LVU381
 1116 00e8 914B     		ldr	r3, .L90+36
 1117 00ea C3ED005A 		vstr.32	s11, [r3]
 257:Application/chassis_task.c ****             tempVal = Vx_k;
 1118              		.loc 1 257 9 is_stmt 1 view .LVU382
 257:Application/chassis_task.c ****             tempVal = Vx_k;
 1119              		.loc 1 257 21 is_stmt 0 view .LVU383
 1120 00ee 914B     		ldr	r3, .L90+40
 1121 00f0 D3ED007A 		vldr.32	s15, [r3]
 257:Application/chassis_task.c ****             tempVal = Vx_k;
 1122              		.loc 1 257 12 view .LVU384
 1123 00f4 F4EEE75A 		vcmpe.f32	s11, s15
 1124 00f8 F1EE10FA 		vmrs	APSR_nzcv, FPSCR
 1125 00fc 40F3AC80 		ble	.L82
 258:Application/chassis_task.c ****         else if (tempVal < -Vx_k)
 1126              		.loc 1 258 13 is_stmt 1 view .LVU385
 258:Application/chassis_task.c ****         else if (tempVal < -Vx_k)
 1127              		.loc 1 258 21 is_stmt 0 view .LVU386
 1128 0100 8B4B     		ldr	r3, .L90+36
 1129 0102 C3ED007A 		vstr.32	s15, [r3]
 1130              	.L60:
 261:Application/chassis_task.c ****     }
 1131              		.loc 1 261 9 is_stmt 1 view .LVU387
 261:Application/chassis_task.c ****     }
 1132              		.loc 1 261 31 is_stmt 0 view .LVU388
 1133 0106 8A4B     		ldr	r3, .L90+36
 1134 0108 D3ED007A 		vldr.32	s15, [r3]
 1135 010c 66EEA76A 		vmul.f32	s13, s13, s15
 261:Application/chassis_task.c ****     }
 1136              		.loc 1 261 20 view .LVU389
 1137 0110 37EE267A 		vadd.f32	s14, s14, s13
 1138 0114 BDEEC77A 		vcvt.s32.f32	s14, s14
 1139 0118 824B     		ldr	r3, .L90+24
 1140 011a 17EE102A 		vmov	r2, s14	@ int
 1141 011e 1A80     		strh	r2, [r3]	@ movhi
 1142              	.L62:
 269:Application/chassis_task.c ****     {
 1143              		.loc 1 269 5 is_stmt 1 view .LVU390
 269:Application/chassis_task.c ****     {
 1144              		.loc 1 269 9 is_stmt 0 view .LVU391
 1145 0120 7D4B     		ldr	r3, .L90+12
 1146 0122 D3ED007A 		vldr.32	s15, [r3]
 1147 0126 F0EEE76A 		vabs.f32	s13, s15
 269:Application/chassis_task.c ****     {
 1148              		.loc 1 269 8 view .LVU392
 1149 012a 9FED7D7A 		vldr.32	s14, .L90+20
 1150 012e F4EEC76A 		vcmpe.f32	s13, s14
 1151 0132 F1EE10FA 		vmrs	APSR_nzcv, FPSCR
 1152 0136 40F3CA80 		ble	.L83
 271:Application/chassis_task.c ****             Chassis.Vy = 0;
 1153              		.loc 1 271 9 is_stmt 1 view .LVU393
ARM GAS  C:\Users\86152\AppData\Local\Temp\ccWGVtEI.s 			page 44


 271:Application/chassis_task.c ****             Chassis.Vy = 0;
 1154              		.loc 1 271 20 is_stmt 0 view .LVU394
 1155 013a 7A4B     		ldr	r3, .L90+24
 1156 013c B3F90230 		ldrsh	r3, [r3, #2]
 1157 0140 07EE103A 		vmov	s14, r3	@ int
 271:Application/chassis_task.c ****             Chassis.Vy = 0;
 1158              		.loc 1 271 24 view .LVU395
 1159 0144 B8EEC77A 		vcvt.f32.s32	s14, s14
 1160 0148 27EE277A 		vmul.f32	s14, s14, s15
 271:Application/chassis_task.c ****             Chassis.Vy = 0;
 1161              		.loc 1 271 12 view .LVU396
 1162 014c B5EEC07A 		vcmpe.f32	s14, #0
 1163 0150 F1EE10FA 		vmrs	APSR_nzcv, FPSCR
 1164 0154 00F1AB80 		bmi	.L89
 1165              	.L65:
 273:Application/chassis_task.c ****         if (tempVal > Vy_k)
 1166              		.loc 1 273 9 is_stmt 1 view .LVU397
 273:Application/chassis_task.c ****         if (tempVal > Vy_k)
 1167              		.loc 1 273 37 is_stmt 0 view .LVU398
 1168 0158 724B     		ldr	r3, .L90+24
 1169 015a B3F90230 		ldrsh	r3, [r3, #2]
 1170 015e 07EE103A 		vmov	s14, r3	@ int
 273:Application/chassis_task.c ****         if (tempVal > Vy_k)
 1171              		.loc 1 273 28 view .LVU399
 1172 0162 B8EEC77A 		vcvt.f32.s32	s14, s14
 1173 0166 77EEC77A 		vsub.f32	s15, s15, s14
 273:Application/chassis_task.c ****         if (tempVal > Vy_k)
 1174              		.loc 1 273 48 view .LVU400
 1175 016a 6F4B     		ldr	r3, .L90+28
 1176 016c D3ED006A 		vldr.32	s13, [r3]
 1177 0170 9FED6E6A 		vldr.32	s12, .L90+32
 1178 0174 36EE866A 		vadd.f32	s12, s13, s12
 273:Application/chassis_task.c ****         if (tempVal > Vy_k)
 1179              		.loc 1 273 42 view .LVU401
 1180 0178 C7EE865A 		vdiv.f32	s11, s15, s12
 273:Application/chassis_task.c ****         if (tempVal > Vy_k)
 1181              		.loc 1 273 17 view .LVU402
 1182 017c 6C4B     		ldr	r3, .L90+36
 1183 017e C3ED005A 		vstr.32	s11, [r3]
 274:Application/chassis_task.c ****             tempVal = Vy_k;
 1184              		.loc 1 274 9 is_stmt 1 view .LVU403
 274:Application/chassis_task.c ****             tempVal = Vy_k;
 1185              		.loc 1 274 21 is_stmt 0 view .LVU404
 1186 0182 6D4B     		ldr	r3, .L90+44
 1187 0184 D3ED007A 		vldr.32	s15, [r3]
 274:Application/chassis_task.c ****             tempVal = Vy_k;
 1188              		.loc 1 274 12 view .LVU405
 1189 0188 F4EEE75A 		vcmpe.f32	s11, s15
 1190 018c F1EE10FA 		vmrs	APSR_nzcv, FPSCR
 1191 0190 40F39180 		ble	.L84
 275:Application/chassis_task.c ****         else if (tempVal < -Vy_k)
 1192              		.loc 1 275 13 is_stmt 1 view .LVU406
 275:Application/chassis_task.c ****         else if (tempVal < -Vy_k)
 1193              		.loc 1 275 21 is_stmt 0 view .LVU407
 1194 0194 664B     		ldr	r3, .L90+36
 1195 0196 C3ED007A 		vstr.32	s15, [r3]
 1196              	.L69:
ARM GAS  C:\Users\86152\AppData\Local\Temp\ccWGVtEI.s 			page 45


 278:Application/chassis_task.c ****     }
 1197              		.loc 1 278 9 is_stmt 1 view .LVU408
 278:Application/chassis_task.c ****     }
 1198              		.loc 1 278 31 is_stmt 0 view .LVU409
 1199 019a 654B     		ldr	r3, .L90+36
 1200 019c D3ED007A 		vldr.32	s15, [r3]
 1201 01a0 66EEA76A 		vmul.f32	s13, s13, s15
 278:Application/chassis_task.c ****     }
 1202              		.loc 1 278 20 view .LVU410
 1203 01a4 37EE267A 		vadd.f32	s14, s14, s13
 1204 01a8 BDEEC77A 		vcvt.s32.f32	s14, s14
 1205 01ac 5D4B     		ldr	r3, .L90+24
 1206 01ae 17EE102A 		vmov	r2, s14	@ int
 1207 01b2 5A80     		strh	r2, [r3, #2]	@ movhi
 1208              	.L71:
 286:Application/chassis_task.c ****     Chassis.Vy = float_constrain(Chassis.Vy, -400.0f, 400.0f);
 1209              		.loc 1 286 5 is_stmt 1 view .LVU411
 286:Application/chassis_task.c ****     Chassis.Vy = float_constrain(Chassis.Vy, -400.0f, 400.0f);
 1210              		.loc 1 286 41 is_stmt 0 view .LVU412
 1211 01b4 5B4C     		ldr	r4, .L90+24
 1212 01b6 B4F90030 		ldrsh	r3, [r4]
 1213 01ba 00EE103A 		vmov	s0, r3	@ int
 286:Application/chassis_task.c ****     Chassis.Vy = float_constrain(Chassis.Vy, -400.0f, 400.0f);
 1214              		.loc 1 286 18 view .LVU413
 1215 01be DFED5F8A 		vldr.32	s17, .L90+48
 1216 01c2 9FED5F8A 		vldr.32	s16, .L90+52
 1217 01c6 B0EE681A 		vmov.f32	s2, s17
 1218 01ca F0EE480A 		vmov.f32	s1, s16
 1219 01ce B8EEC00A 		vcvt.f32.s32	s0, s0
 1220 01d2 FFF7FEFF 		bl	float_constrain
 1221              	.LVL34:
 286:Application/chassis_task.c ****     Chassis.Vy = float_constrain(Chassis.Vy, -400.0f, 400.0f);
 1222              		.loc 1 286 16 view .LVU414
 1223 01d6 BDEEC00A 		vcvt.s32.f32	s0, s0
 1224 01da 10EE103A 		vmov	r3, s0	@ int
 1225 01de 2380     		strh	r3, [r4]	@ movhi
 287:Application/chassis_task.c **** }
 1226              		.loc 1 287 5 is_stmt 1 view .LVU415
 287:Application/chassis_task.c **** }
 1227              		.loc 1 287 41 is_stmt 0 view .LVU416
 1228 01e0 B4F90230 		ldrsh	r3, [r4, #2]
 1229 01e4 00EE103A 		vmov	s0, r3	@ int
 287:Application/chassis_task.c **** }
 1230              		.loc 1 287 18 view .LVU417
 1231 01e8 B0EE681A 		vmov.f32	s2, s17
 1232 01ec F0EE480A 		vmov.f32	s1, s16
 1233 01f0 B8EEC00A 		vcvt.f32.s32	s0, s0
 1234 01f4 FFF7FEFF 		bl	float_constrain
 1235              	.LVL35:
 287:Application/chassis_task.c **** }
 1236              		.loc 1 287 16 view .LVU418
 1237 01f8 BDEEC00A 		vcvt.s32.f32	s0, s0
 1238 01fc 10EE103A 		vmov	r3, s0	@ int
 1239 0200 6380     		strh	r3, [r4, #2]	@ movhi
 288:Application/chassis_task.c **** 
 1240              		.loc 1 288 1 view .LVU419
 1241 0202 BDEC028B 		vldm	sp!, {d8}
ARM GAS  C:\Users\86152\AppData\Local\Temp\ccWGVtEI.s 			page 46


 1242              	.LCFI8:
 1243              		.cfi_remember_state
 1244              		.cfi_restore 80
 1245              		.cfi_restore 81
 1246              		.cfi_def_cfa_offset 8
 1247 0206 10BD     		pop	{r4, pc}
 1248              	.L86:
 1249              	.LCFI9:
 1250              		.cfi_restore_state
 238:Application/chassis_task.c **** 
 1251              		.loc 1 238 9 is_stmt 1 view .LVU420
 238:Application/chassis_task.c **** 
 1252              		.loc 1 238 81 is_stmt 0 view .LVU421
 1253 0208 07EE903A 		vmov	s15, r3	@ int
 1254 020c F8EEE77A 		vcvt.f32.s32	s15, s15
 1255 0210 B2EE047A 		vmov.f32	s14, #1.0e+1
 1256 0214 87EE870A 		vdiv.f32	s0, s15, s14
 238:Application/chassis_task.c **** 
 1257              		.loc 1 238 33 view .LVU422
 1258 0218 B1EE0C1A 		vmov.f32	s2, #7.0e+0
 1259 021c F0EE080A 		vmov.f32	s1, #3.0e+0
 1260 0220 F0EE007A 		vmov.f32	s15, #2.0e+0
 1261 0224 30EE270A 		vadd.f32	s0, s0, s15
 1262 0228 FFF7FEFF 		bl	float_constrain
 1263              	.LVL36:
 238:Application/chassis_task.c **** 
 1264              		.loc 1 238 31 view .LVU423
 1265 022c 3D4B     		ldr	r3, .L90+24
 1266 022e 83ED050A 		vstr.32	s0, [r3, #20]
 1267 0232 02E7     		b	.L51
 1268              	.L72:
 243:Application/chassis_task.c **** 
 1269              		.loc 1 243 13 view .LVU424
 1270 0234 DFED377A 		vldr.32	s15, .L90+8
 1271 0238 1CE7     		b	.L52
 1272              	.L87:
 247:Application/chassis_task.c ****         Temp_Vy *= 2;
 1273              		.loc 1 247 9 is_stmt 1 view .LVU425
 247:Application/chassis_task.c ****         Temp_Vy *= 2;
 1274              		.loc 1 247 17 is_stmt 0 view .LVU426
 1275 023a 37EE077A 		vadd.f32	s14, s14, s14
 1276 023e 344B     		ldr	r3, .L90+4
 1277 0240 83ED007A 		vstr.32	s14, [r3]
 248:Application/chassis_task.c ****     }
 1278              		.loc 1 248 9 is_stmt 1 view .LVU427
 248:Application/chassis_task.c ****     }
 1279              		.loc 1 248 17 is_stmt 0 view .LVU428
 1280 0244 77EEA77A 		vadd.f32	s15, s15, s15
 1281 0248 334B     		ldr	r3, .L90+12
 1282 024a C3ED007A 		vstr.32	s15, [r3]
 1283 024e 1DE7     		b	.L53
 1284              	.L88:
 254:Application/chassis_task.c **** 
 1285              		.loc 1 254 13 is_stmt 1 view .LVU429
 254:Application/chassis_task.c **** 
 1286              		.loc 1 254 24 is_stmt 0 view .LVU430
 1287 0250 344B     		ldr	r3, .L90+24
ARM GAS  C:\Users\86152\AppData\Local\Temp\ccWGVtEI.s 			page 47


 1288 0252 0022     		movs	r2, #0
 1289 0254 1A80     		strh	r2, [r3]	@ movhi
 1290 0256 35E7     		b	.L56
 1291              	.L82:
 259:Application/chassis_task.c ****             tempVal = -Vx_k;
 1292              		.loc 1 259 14 is_stmt 1 view .LVU431
 259:Application/chassis_task.c ****             tempVal = -Vx_k;
 1293              		.loc 1 259 28 is_stmt 0 view .LVU432
 1294 0258 F1EE677A 		vneg.f32	s15, s15
 259:Application/chassis_task.c ****             tempVal = -Vx_k;
 1295              		.loc 1 259 17 view .LVU433
 1296 025c F4EEE75A 		vcmpe.f32	s11, s15
 1297 0260 F1EE10FA 		vmrs	APSR_nzcv, FPSCR
 1298 0264 7FF54FAF 		bpl	.L60
 260:Application/chassis_task.c ****         Chassis.Vx += tempVal * dt;
 1299              		.loc 1 260 13 is_stmt 1 view .LVU434
 260:Application/chassis_task.c ****         Chassis.Vx += tempVal * dt;
 1300              		.loc 1 260 21 is_stmt 0 view .LVU435
 1301 0268 314B     		ldr	r3, .L90+36
 1302 026a C3ED007A 		vstr.32	s15, [r3]
 1303 026e 4AE7     		b	.L60
 1304              	.L81:
 265:Application/chassis_task.c ****         Chassis.Vx += tempVal * dt;
 1305              		.loc 1 265 9 is_stmt 1 view .LVU436
 265:Application/chassis_task.c ****         Chassis.Vx += tempVal * dt;
 1306              		.loc 1 265 37 is_stmt 0 view .LVU437
 1307 0270 2C4B     		ldr	r3, .L90+24
 1308 0272 B3F90020 		ldrsh	r2, [r3]
 1309 0276 07EE102A 		vmov	s14, r2	@ int
 265:Application/chassis_task.c ****         Chassis.Vx += tempVal * dt;
 1310              		.loc 1 265 28 view .LVU438
 1311 027a B8EEC77A 		vcvt.f32.s32	s14, s14
 1312 027e 77EEC77A 		vsub.f32	s15, s15, s14
 265:Application/chassis_task.c ****         Chassis.Vx += tempVal * dt;
 1313              		.loc 1 265 51 view .LVU439
 1314 0282 294A     		ldr	r2, .L90+28
 1315 0284 D2ED006A 		vldr.32	s13, [r2]
 1316 0288 9FED2E6A 		vldr.32	s12, .L90+56
 1317 028c 36EE866A 		vadd.f32	s12, s13, s12
 265:Application/chassis_task.c ****         Chassis.Vx += tempVal * dt;
 1318              		.loc 1 265 42 view .LVU440
 1319 0290 C7EE865A 		vdiv.f32	s11, s15, s12
 265:Application/chassis_task.c ****         Chassis.Vx += tempVal * dt;
 1320              		.loc 1 265 17 view .LVU441
 1321 0294 264A     		ldr	r2, .L90+36
 1322 0296 C2ED005A 		vstr.32	s11, [r2]
 266:Application/chassis_task.c ****     }
 1323              		.loc 1 266 9 is_stmt 1 view .LVU442
 266:Application/chassis_task.c ****     }
 1324              		.loc 1 266 31 is_stmt 0 view .LVU443
 1325 029a 66EEA56A 		vmul.f32	s13, s13, s11
 266:Application/chassis_task.c ****     }
 1326              		.loc 1 266 20 view .LVU444
 1327 029e 37EE267A 		vadd.f32	s14, s14, s13
 1328 02a2 BDEEC77A 		vcvt.s32.f32	s14, s14
 1329 02a6 17EE102A 		vmov	r2, s14	@ int
 1330 02aa 1A80     		strh	r2, [r3]	@ movhi
ARM GAS  C:\Users\86152\AppData\Local\Temp\ccWGVtEI.s 			page 48


 1331 02ac 38E7     		b	.L62
 1332              	.L89:
 272:Application/chassis_task.c ****         tempVal = (Temp_Vy - Chassis.Vy) / (RC + dt);
 1333              		.loc 1 272 13 is_stmt 1 view .LVU445
 272:Application/chassis_task.c ****         tempVal = (Temp_Vy - Chassis.Vy) / (RC + dt);
 1334              		.loc 1 272 24 is_stmt 0 view .LVU446
 1335 02ae 1D4B     		ldr	r3, .L90+24
 1336 02b0 0022     		movs	r2, #0
 1337 02b2 5A80     		strh	r2, [r3, #2]	@ movhi
 1338 02b4 50E7     		b	.L65
 1339              	.L84:
 276:Application/chassis_task.c ****             tempVal = -Vy_k;
 1340              		.loc 1 276 14 is_stmt 1 view .LVU447
 276:Application/chassis_task.c ****             tempVal = -Vy_k;
 1341              		.loc 1 276 28 is_stmt 0 view .LVU448
 1342 02b6 F1EE677A 		vneg.f32	s15, s15
 276:Application/chassis_task.c ****             tempVal = -Vy_k;
 1343              		.loc 1 276 17 view .LVU449
 1344 02ba F4EEE75A 		vcmpe.f32	s11, s15
 1345 02be F1EE10FA 		vmrs	APSR_nzcv, FPSCR
 1346 02c2 7FF56AAF 		bpl	.L69
 277:Application/chassis_task.c ****         Chassis.Vy += tempVal * dt;
 1347              		.loc 1 277 13 is_stmt 1 view .LVU450
 277:Application/chassis_task.c ****         Chassis.Vy += tempVal * dt;
 1348              		.loc 1 277 21 is_stmt 0 view .LVU451
 1349 02c6 1A4B     		ldr	r3, .L90+36
 1350 02c8 C3ED007A 		vstr.32	s15, [r3]
 1351 02cc 65E7     		b	.L69
 1352              	.L83:
 282:Application/chassis_task.c ****         Chassis.Vy += tempVal * dt;
 1353              		.loc 1 282 9 is_stmt 1 view .LVU452
 282:Application/chassis_task.c ****         Chassis.Vy += tempVal * dt;
 1354              		.loc 1 282 37 is_stmt 0 view .LVU453
 1355 02ce 154B     		ldr	r3, .L90+24
 1356 02d0 B3F90220 		ldrsh	r2, [r3, #2]
 1357 02d4 07EE102A 		vmov	s14, r2	@ int
 282:Application/chassis_task.c ****         Chassis.Vy += tempVal * dt;
 1358              		.loc 1 282 28 view .LVU454
 1359 02d8 B8EEC77A 		vcvt.f32.s32	s14, s14
 1360 02dc 77EEC77A 		vsub.f32	s15, s15, s14
 282:Application/chassis_task.c ****         Chassis.Vy += tempVal * dt;
 1361              		.loc 1 282 51 view .LVU455
 1362 02e0 114A     		ldr	r2, .L90+28
 1363 02e2 D2ED006A 		vldr.32	s13, [r2]
 1364 02e6 9FED176A 		vldr.32	s12, .L90+56
 1365 02ea 36EE866A 		vadd.f32	s12, s13, s12
 282:Application/chassis_task.c ****         Chassis.Vy += tempVal * dt;
 1366              		.loc 1 282 42 view .LVU456
 1367 02ee C7EE865A 		vdiv.f32	s11, s15, s12
 282:Application/chassis_task.c ****         Chassis.Vy += tempVal * dt;
 1368              		.loc 1 282 17 view .LVU457
 1369 02f2 0F4A     		ldr	r2, .L90+36
 1370 02f4 C2ED005A 		vstr.32	s11, [r2]
 283:Application/chassis_task.c ****     }
 1371              		.loc 1 283 9 is_stmt 1 view .LVU458
 283:Application/chassis_task.c ****     }
 1372              		.loc 1 283 31 is_stmt 0 view .LVU459
ARM GAS  C:\Users\86152\AppData\Local\Temp\ccWGVtEI.s 			page 49


 1373 02f8 66EEA56A 		vmul.f32	s13, s13, s11
 283:Application/chassis_task.c ****     }
 1374              		.loc 1 283 20 view .LVU460
 1375 02fc 37EE267A 		vadd.f32	s14, s14, s13
 1376 0300 BDEEC77A 		vcvt.s32.f32	s14, s14
 1377 0304 17EE102A 		vmov	r2, s14	@ int
 1378 0308 5A80     		strh	r2, [r3, #2]	@ movhi
 1379 030a 53E7     		b	.L71
 1380              	.L91:
 1381              		.align	2
 1382              	.L90:
 1383 030c 00000000 		.word	robot_state
 1384 0310 00000000 		.word	.LANCHOR10
 1385 0314 00000000 		.word	0
 1386 0318 00000000 		.word	.LANCHOR11
 1387 031c 00000000 		.word	remote_control
 1388 0320 6F12833A 		.word	981668463
 1389 0324 00000000 		.word	Chassis
 1390 0328 00000000 		.word	.LANCHOR12
 1391 032c BD378635 		.word	897988541
 1392 0330 00000000 		.word	.LANCHOR13
 1393 0334 00000000 		.word	.LANCHOR14
 1394 0338 00000000 		.word	.LANCHOR15
 1395 033c 0000C843 		.word	1137180672
 1396 0340 0000C8C3 		.word	-1010302976
 1397 0344 0AD7233C 		.word	1008981770
 1398              		.cfi_endproc
 1399              	.LFE175:
 1401              		.global	__aeabi_f2d
 1402              		.global	__aeabi_dmul
 1403              		.global	__aeabi_d2f
 1404              		.section	.text.Chassis_Power_Limit,"ax",%progbits
 1405              		.align	1
 1406              		.syntax unified
 1407              		.thumb
 1408              		.thumb_func
 1410              	Chassis_Power_Limit:
 1411              	.LFB181:
 886:Application/chassis_task.c ****     static float coef[4] = {1, 1, 1, 1};
 1412              		.loc 1 886 1 is_stmt 1 view -0
 1413              		.cfi_startproc
 1414              		@ args = 0, pretend = 0, frame = 0
 1415              		@ frame_needed = 0, uses_anonymous_args = 0
 1416 0000 08B5     		push	{r3, lr}
 1417              	.LCFI10:
 1418              		.cfi_def_cfa_offset 8
 1419              		.cfi_offset 3, -8
 1420              		.cfi_offset 14, -4
 887:Application/chassis_task.c **** 
 1421              		.loc 1 887 5 view .LVU462
 890:Application/chassis_task.c ****     {
 1422              		.loc 1 890 5 view .LVU463
 890:Application/chassis_task.c ****     {
 1423              		.loc 1 890 18 is_stmt 0 view .LVU464
 1424 0002 4D4B     		ldr	r3, .L110+8
 1425 0004 93ED007A 		vldr.32	s14, [r3]
 890:Application/chassis_task.c ****     {
ARM GAS  C:\Users\86152\AppData\Local\Temp\ccWGVtEI.s 			page 50


 1426              		.loc 1 890 8 view .LVU465
 1427 0008 F2EE0D7A 		vmov.f32	s15, #1.45e+1
 1428 000c B4EEE77A 		vcmpe.f32	s14, s15
 1429 0010 F1EE10FA 		vmrs	APSR_nzcv, FPSCR
 1430 0014 2DD5     		bpl	.L106
 892:Application/chassis_task.c ****     }
 1431              		.loc 1 892 9 is_stmt 1 view .LVU466
 892:Application/chassis_task.c ****     }
 1432              		.loc 1 892 64 is_stmt 0 view .LVU467
 1433 0016 494B     		ldr	r3, .L110+12
 1434 0018 93ED8C7A 		vldr.32	s14, [r3, #560]
 892:Application/chassis_task.c ****     }
 1435              		.loc 1 892 94 view .LVU468
 1436 001c 484A     		ldr	r2, .L110+16
 1437 001e 128B     		ldrh	r2, [r2, #24]
 1438 0020 07EE902A 		vmov	s15, r2	@ int
 892:Application/chassis_task.c ****     }
 1439              		.loc 1 892 81 view .LVU469
 1440 0024 F8EEE77A 		vcvt.f32.s32	s15, s15
 1441 0028 67EE877A 		vmul.f32	s15, s15, s14
 892:Application/chassis_task.c ****     }
 1442              		.loc 1 892 42 view .LVU470
 1443 002c C3ED887A 		vstr.32	s15, [r3, #544]
 1444              	.L95:
 905:Application/chassis_task.c ****     {
 1445              		.loc 1 905 5 is_stmt 1 view .LVU471
 905:Application/chassis_task.c ****     {
 1446              		.loc 1 905 29 is_stmt 0 view .LVU472
 1447 0030 424B     		ldr	r3, .L110+12
 1448 0032 D3ED897A 		vldr.32	s15, [r3, #548]
 905:Application/chassis_task.c ****     {
 1449              		.loc 1 905 70 view .LVU473
 1450 0036 93ED887A 		vldr.32	s14, [r3, #544]
 905:Application/chassis_task.c ****     {
 1451              		.loc 1 905 8 view .LVU474
 1452 003a F4EEC77A 		vcmpe.f32	s15, s14
 1453 003e F1EE10FA 		vmrs	APSR_nzcv, FPSCR
 1454 0042 31DD     		ble	.L107
 907:Application/chassis_task.c ****         if (Chassis.Mode == Spinning_Mode)
 1455              		.loc 1 907 9 is_stmt 1 view .LVU475
 907:Application/chassis_task.c ****         if (Chassis.Mode == Spinning_Mode)
 1456              		.loc 1 907 76 is_stmt 0 view .LVU476
 1457 0044 C7EE276A 		vdiv.f32	s13, s14, s15
 907:Application/chassis_task.c ****         if (Chassis.Mode == Spinning_Mode)
 1458              		.loc 1 907 41 view .LVU477
 1459 0048 C3ED866A 		vstr.32	s13, [r3, #536]
 908:Application/chassis_task.c ****             Chassis.PowerControl.PowerScale = Chassis.PowerControl.PowerScale * 0.95;
 1460              		.loc 1 908 9 is_stmt 1 view .LVU478
 908:Application/chassis_task.c ****             Chassis.PowerControl.PowerScale = Chassis.PowerControl.PowerScale * 0.95;
 1461              		.loc 1 908 20 is_stmt 0 view .LVU479
 1462 004c 93F8D431 		ldrb	r3, [r3, #468]	@ zero_extendqisi2
 908:Application/chassis_task.c ****             Chassis.PowerControl.PowerScale = Chassis.PowerControl.PowerScale * 0.95;
 1463              		.loc 1 908 12 view .LVU480
 1464 0050 012B     		cmp	r3, #1
 1465 0052 2ED1     		bne	.L98
 909:Application/chassis_task.c ****     }
 1466              		.loc 1 909 13 is_stmt 1 view .LVU481
ARM GAS  C:\Users\86152\AppData\Local\Temp\ccWGVtEI.s 			page 51


 909:Application/chassis_task.c ****     }
 1467              		.loc 1 909 67 is_stmt 0 view .LVU482
 1468 0054 16EE900A 		vmov	r0, s13
 1469 0058 FFF7FEFF 		bl	__aeabi_f2d
 1470              	.LVL37:
 909:Application/chassis_task.c ****     }
 1471              		.loc 1 909 79 view .LVU483
 1472 005c 34A3     		adr	r3, .L110
 1473 005e D3E90023 		ldrd	r2, [r3]
 1474 0062 FFF7FEFF 		bl	__aeabi_dmul
 1475              	.LVL38:
 1476 0066 FFF7FEFF 		bl	__aeabi_d2f
 1477              	.LVL39:
 909:Application/chassis_task.c ****     }
 1478              		.loc 1 909 45 view .LVU484
 1479 006a 344B     		ldr	r3, .L110+12
 1480 006c C3F81802 		str	r0, [r3, #536]	@ float
 1481 0070 1FE0     		b	.L98
 1482              	.L106:
 897:Application/chassis_task.c **** 
 1483              		.loc 1 897 9 is_stmt 1 view .LVU485
 897:Application/chassis_task.c **** 
 1484              		.loc 1 897 64 is_stmt 0 view .LVU486
 1485 0072 324B     		ldr	r3, .L110+12
 1486 0074 93ED8B7A 		vldr.32	s14, [r3, #556]
 897:Application/chassis_task.c **** 
 1487              		.loc 1 897 100 view .LVU487
 1488 0078 314A     		ldr	r2, .L110+16
 1489 007a 128B     		ldrh	r2, [r2, #24]
 1490 007c 07EE902A 		vmov	s15, r2	@ int
 897:Application/chassis_task.c **** 
 1491              		.loc 1 897 87 view .LVU488
 1492 0080 F8EEE77A 		vcvt.f32.s32	s15, s15
 1493 0084 67EE276A 		vmul.f32	s13, s14, s15
 897:Application/chassis_task.c **** 
 1494              		.loc 1 897 42 view .LVU489
 1495 0088 C3ED886A 		vstr.32	s13, [r3, #544]
 900:Application/chassis_task.c ****             Chassis.PowerControl.Power_Limit = 1.5f * Chassis.PowerControl.Power_correction_gain * 
 1496              		.loc 1 900 9 is_stmt 1 view .LVU490
 900:Application/chassis_task.c ****             Chassis.PowerControl.Power_Limit = 1.5f * Chassis.PowerControl.Power_correction_gain * 
 1497              		.loc 1 900 30 is_stmt 0 view .LVU491
 1498 008c 2D4B     		ldr	r3, .L110+20
 1499 008e 1B89     		ldrh	r3, [r3, #8]
 900:Application/chassis_task.c ****             Chassis.PowerControl.Power_Limit = 1.5f * Chassis.PowerControl.Power_correction_gain * 
 1500              		.loc 1 900 12 view .LVU492
 1501 0090 1E2B     		cmp	r3, #30
 1502 0092 CDD9     		bls	.L95
 901:Application/chassis_task.c ****     }
 1503              		.loc 1 901 13 is_stmt 1 view .LVU493
 901:Application/chassis_task.c ****     }
 1504              		.loc 1 901 53 is_stmt 0 view .LVU494
 1505 0094 F7EE086A 		vmov.f32	s13, #1.5e+0
 1506 0098 27EE267A 		vmul.f32	s14, s14, s13
 901:Application/chassis_task.c ****     }
 1507              		.loc 1 901 98 view .LVU495
 1508 009c 67EE877A 		vmul.f32	s15, s15, s14
 901:Application/chassis_task.c ****     }
ARM GAS  C:\Users\86152\AppData\Local\Temp\ccWGVtEI.s 			page 52


 1509              		.loc 1 901 46 view .LVU496
 1510 00a0 264B     		ldr	r3, .L110+12
 1511 00a2 C3ED887A 		vstr.32	s15, [r3, #544]
 1512 00a6 C3E7     		b	.L95
 1513              	.L107:
 912:Application/chassis_task.c **** 
 1514              		.loc 1 912 9 is_stmt 1 view .LVU497
 912:Application/chassis_task.c **** 
 1515              		.loc 1 912 41 is_stmt 0 view .LVU498
 1516 00a8 244B     		ldr	r3, .L110+12
 1517 00aa 4FF07E52 		mov	r2, #1065353216
 1518 00ae C3F81822 		str	r2, [r3, #536]	@ float
 1519              	.L98:
 915:Application/chassis_task.c ****         Chassis.PowerControl.PowerScale = 1.0f;
 1520              		.loc 1 915 5 is_stmt 1 view .LVU499
 915:Application/chassis_task.c ****         Chassis.PowerControl.PowerScale = 1.0f;
 1521              		.loc 1 915 10 is_stmt 0 view .LVU500
 1522 00b2 FFF7FEFF 		bl	xTaskGetTickCount
 1523              	.LVL40:
 915:Application/chassis_task.c ****         Chassis.PowerControl.PowerScale = 1.0f;
 1524              		.loc 1 915 25 view .LVU501
 1525 00b6 244B     		ldr	r3, .L110+24
 1526 00b8 1B68     		ldr	r3, [r3]
 1527 00ba C01A     		subs	r0, r0, r3
 915:Application/chassis_task.c ****         Chassis.PowerControl.PowerScale = 1.0f;
 1528              		.loc 1 915 8 view .LVU502
 1529 00bc B0F5FA7F 		cmp	r0, #500
 1530 00c0 06D2     		bcs	.L99
 915:Application/chassis_task.c ****         Chassis.PowerControl.PowerScale = 1.0f;
 1531              		.loc 1 915 46 discriminator 1 view .LVU503
 1532 00c2 FFF7FEFF 		bl	xTaskGetTickCount
 1533              	.LVL41:
 915:Application/chassis_task.c ****         Chassis.PowerControl.PowerScale = 1.0f;
 1534              		.loc 1 915 61 discriminator 1 view .LVU504
 1535 00c6 204B     		ldr	r3, .L110+24
 1536 00c8 1B68     		ldr	r3, [r3]
 1537 00ca C01A     		subs	r0, r0, r3
 915:Application/chassis_task.c ****         Chassis.PowerControl.PowerScale = 1.0f;
 1538              		.loc 1 915 43 discriminator 1 view .LVU505
 1539 00cc 0528     		cmp	r0, #5
 1540 00ce 10D8     		bhi	.L100
 1541              	.L99:
 915:Application/chassis_task.c ****         Chassis.PowerControl.PowerScale = 1.0f;
 1542              		.loc 1 915 82 discriminator 3 view .LVU506
 1543 00d0 FFF7FEFF 		bl	xTaskGetTickCount
 1544              	.LVL42:
 915:Application/chassis_task.c ****         Chassis.PowerControl.PowerScale = 1.0f;
 1545              		.loc 1 915 97 discriminator 3 view .LVU507
 1546 00d4 1D4B     		ldr	r3, .L110+28
 1547 00d6 1B68     		ldr	r3, [r3]
 1548 00d8 C01A     		subs	r0, r0, r3
 915:Application/chassis_task.c ****         Chassis.PowerControl.PowerScale = 1.0f;
 1549              		.loc 1 915 78 discriminator 3 view .LVU508
 1550 00da B0F5FA7F 		cmp	r0, #500
 1551 00de 01D3     		bcc	.L109
 1552              	.L101:
 886:Application/chassis_task.c ****     static float coef[4] = {1, 1, 1, 1};
ARM GAS  C:\Users\86152\AppData\Local\Temp\ccWGVtEI.s 			page 53


 1553              		.loc 1 886 1 discriminator 1 view .LVU509
 1554 00e0 0023     		movs	r3, #0
 1555 00e2 22E0     		b	.L102
 1556              	.L109:
 915:Application/chassis_task.c ****         Chassis.PowerControl.PowerScale = 1.0f;
 1557              		.loc 1 915 124 discriminator 4 view .LVU510
 1558 00e4 FFF7FEFF 		bl	xTaskGetTickCount
 1559              	.LVL43:
 915:Application/chassis_task.c ****         Chassis.PowerControl.PowerScale = 1.0f;
 1560              		.loc 1 915 139 discriminator 4 view .LVU511
 1561 00e8 184B     		ldr	r3, .L110+28
 1562 00ea 1B68     		ldr	r3, [r3]
 1563 00ec C01A     		subs	r0, r0, r3
 915:Application/chassis_task.c ****         Chassis.PowerControl.PowerScale = 1.0f;
 1564              		.loc 1 915 121 discriminator 4 view .LVU512
 1565 00ee 0528     		cmp	r0, #5
 1566 00f0 F6D9     		bls	.L101
 1567              	.L100:
 916:Application/chassis_task.c **** 
 1568              		.loc 1 916 9 is_stmt 1 view .LVU513
 916:Application/chassis_task.c **** 
 1569              		.loc 1 916 41 is_stmt 0 view .LVU514
 1570 00f2 124B     		ldr	r3, .L110+12
 1571 00f4 4FF07E52 		mov	r2, #1065353216
 1572 00f8 C3F81822 		str	r2, [r3, #536]	@ float
 1573 00fc F0E7     		b	.L101
 1574              	.LVL44:
 1575              	.L103:
 1576              	.LBB10:
 920:Application/chassis_task.c ****     }
 1577              		.loc 1 920 9 is_stmt 1 discriminator 3 view .LVU515
 920:Application/chassis_task.c ****     }
 1578              		.loc 1 920 63 is_stmt 0 discriminator 3 view .LVU516
 1579 00fe 0F4A     		ldr	r2, .L110+12
 1580 0100 D2ED867A 		vldr.32	s15, [r2, #536]
 920:Application/chassis_task.c ****     }
 1581              		.loc 1 920 81 discriminator 3 view .LVU517
 1582 0104 1249     		ldr	r1, .L110+32
 1583 0106 01EB8301 		add	r1, r1, r3, lsl #2
 1584 010a 91ED007A 		vldr.32	s14, [r1]
 920:Application/chassis_task.c ****     }
 1585              		.loc 1 920 75 discriminator 3 view .LVU518
 1586 010e 27EE877A 		vmul.f32	s14, s15, s14
 920:Application/chassis_task.c ****     }
 1587              		.loc 1 920 40 discriminator 3 view .LVU519
 1588 0112 4FF49D61 		mov	r1, #1256
 1589 0116 01FB0322 		mla	r2, r1, r3, r2
 1590 011a D2ED9E7A 		vldr.32	s15, [r2, #632]
 1591 011e 67EE877A 		vmul.f32	s15, s15, s14
 1592 0122 C2ED9E7A 		vstr.32	s15, [r2, #632]
 918:Application/chassis_task.c ****     {
 1593              		.loc 1 918 32 is_stmt 1 discriminator 3 view .LVU520
 918:Application/chassis_task.c ****     {
 1594              		.loc 1 918 33 is_stmt 0 discriminator 3 view .LVU521
 1595 0126 0133     		adds	r3, r3, #1
 1596              	.LVL45:
 918:Application/chassis_task.c ****     {
ARM GAS  C:\Users\86152\AppData\Local\Temp\ccWGVtEI.s 			page 54


 1597              		.loc 1 918 33 discriminator 3 view .LVU522
 1598 0128 DBB2     		uxtb	r3, r3
 1599              	.LVL46:
 1600              	.L102:
 918:Application/chassis_task.c ****     {
 1601              		.loc 1 918 25 is_stmt 1 discriminator 1 view .LVU523
 918:Application/chassis_task.c ****     {
 1602              		.loc 1 918 5 is_stmt 0 discriminator 1 view .LVU524
 1603 012a 032B     		cmp	r3, #3
 1604 012c E7D9     		bls	.L103
 1605              	.LBE10:
 922:Application/chassis_task.c **** 
 1606              		.loc 1 922 1 view .LVU525
 1607 012e 08BD     		pop	{r3, pc}
 1608              	.LVL47:
 1609              	.L111:
 922:Application/chassis_task.c **** 
 1610              		.loc 1 922 1 view .LVU526
 1611              		.align	3
 1612              	.L110:
 1613 0130 66666666 		.word	1717986918
 1614 0134 6666EE3F 		.word	1072588390
 1615 0138 00000000 		.word	ina226
 1616 013c 00000000 		.word	Chassis
 1617 0140 00000000 		.word	robot_state
 1618 0144 00000000 		.word	power_heat_data_t
 1619 0148 00000000 		.word	.LANCHOR16
 1620 014c 00000000 		.word	.LANCHOR17
 1621 0150 00000000 		.word	.LANCHOR18
 1622              		.cfi_endproc
 1623              	.LFE181:
 1625              		.section	.text.Send_Chassis_Current,"ax",%progbits
 1626              		.align	1
 1627              		.syntax unified
 1628              		.thumb
 1629              		.thumb_func
 1631              	Send_Chassis_Current:
 1632              	.LFB178:
 755:Application/chassis_task.c ****     static uint32_t count = 0;
 1633              		.loc 1 755 1 is_stmt 1 view -0
 1634              		.cfi_startproc
 1635              		@ args = 0, pretend = 0, frame = 0
 1636              		@ frame_needed = 0, uses_anonymous_args = 0
 1637 0000 00B5     		push	{lr}
 1638              	.LCFI11:
 1639              		.cfi_def_cfa_offset 4
 1640              		.cfi_offset 14, -4
 1641 0002 83B0     		sub	sp, sp, #12
 1642              	.LCFI12:
 1643              		.cfi_def_cfa_offset 16
 756:Application/chassis_task.c ****     // 发送裁判系统功率部分给电容板
 1644              		.loc 1 756 5 view .LVU528
 760:Application/chassis_task.c ****     {
 1645              		.loc 1 760 5 view .LVU529
 760:Application/chassis_task.c ****     {
 1646              		.loc 1 760 9 is_stmt 0 view .LVU530
 1647 0004 0420     		movs	r0, #4
ARM GAS  C:\Users\86152\AppData\Local\Temp\ccWGVtEI.s 			page 55


 1648 0006 FFF7FEFF 		bl	is_TOE_Error
 1649              	.LVL48:
 760:Application/chassis_task.c ****     {
 1650              		.loc 1 760 8 view .LVU531
 1651 000a 18B1     		cbz	r0, .L113
 760:Application/chassis_task.c ****     {
 1652              		.loc 1 760 33 discriminator 1 view .LVU532
 1653 000c 0720     		movs	r0, #7
 1654 000e FFF7FEFF 		bl	is_TOE_Error
 1655              	.LVL49:
 760:Application/chassis_task.c ****     {
 1656              		.loc 1 760 30 discriminator 1 view .LVU533
 1657 0012 68B9     		cbnz	r0, .L120
 1658              	.L113:
 771:Application/chassis_task.c ****             HAL_IWDG_Refresh(&hiwdg);
 1659              		.loc 1 771 9 is_stmt 1 view .LVU534
 771:Application/chassis_task.c ****             HAL_IWDG_Refresh(&hiwdg);
 1660              		.loc 1 771 13 is_stmt 0 view .LVU535
 1661 0014 0021     		movs	r1, #0
 1662 0016 0091     		str	r1, [sp]
 1663 0018 0B46     		mov	r3, r1
 1664 001a 0A46     		mov	r2, r1
 1665 001c 2D48     		ldr	r0, .L122
 1666 001e FFF7FEFF 		bl	Send_Motor_Current_1_4
 1667              	.LVL50:
 771:Application/chassis_task.c ****             HAL_IWDG_Refresh(&hiwdg);
 1668              		.loc 1 771 12 view .LVU536
 1669 0022 90B1     		cbz	r0, .L121
 1670              	.L114:
 773:Application/chassis_task.c ****     }
 1671              		.loc 1 773 9 is_stmt 1 view .LVU537
 776:Application/chassis_task.c ****     for (uint8_t i = 0; i < 4; i++)
 1672              		.loc 1 776 5 view .LVU538
 776:Application/chassis_task.c ****     for (uint8_t i = 0; i < 4; i++)
 1673              		.loc 1 776 53 is_stmt 0 view .LVU539
 1674 0024 2C4B     		ldr	r3, .L122+4
 1675 0026 0022     		movs	r2, #0
 1676 0028 C3F82822 		str	r2, [r3, #552]	@ float
 777:Application/chassis_task.c ****     {
 1677              		.loc 1 777 5 is_stmt 1 view .LVU540
 1678              	.LBB11:
 777:Application/chassis_task.c ****     {
 1679              		.loc 1 777 10 view .LVU541
 1680              	.LVL51:
 777:Application/chassis_task.c ****     {
 1681              		.loc 1 777 18 is_stmt 0 view .LVU542
 1682 002c 0023     		movs	r3, #0
 777:Application/chassis_task.c ****     {
 1683              		.loc 1 777 5 view .LVU543
 1684 002e 2AE0     		b	.L115
 1685              	.LVL52:
 1686              	.L120:
 777:Application/chassis_task.c ****     {
 1687              		.loc 1 777 5 view .LVU544
 1688              	.LBE11:
 762:Application/chassis_task.c ****             HAL_IWDG_Refresh(&hiwdg);
 1689              		.loc 1 762 9 is_stmt 1 view .LVU545
ARM GAS  C:\Users\86152\AppData\Local\Temp\ccWGVtEI.s 			page 56


 762:Application/chassis_task.c ****             HAL_IWDG_Refresh(&hiwdg);
 1690              		.loc 1 762 13 is_stmt 0 view .LVU546
 1691 0030 0021     		movs	r1, #0
 1692 0032 0091     		str	r1, [sp]
 1693 0034 0B46     		mov	r3, r1
 1694 0036 0A46     		mov	r2, r1
 1695 0038 2648     		ldr	r0, .L122
 1696 003a FFF7FEFF 		bl	Send_Motor_Current_1_4
 1697              	.LVL53:
 762:Application/chassis_task.c ****             HAL_IWDG_Refresh(&hiwdg);
 1698              		.loc 1 762 12 view .LVU547
 1699 003e 0028     		cmp	r0, #0
 1700 0040 F0D1     		bne	.L114
 763:Application/chassis_task.c ****         ;
 1701              		.loc 1 763 13 is_stmt 1 view .LVU548
 1702 0042 2648     		ldr	r0, .L122+8
 1703 0044 FFF7FEFF 		bl	HAL_IWDG_Refresh
 1704              	.LVL54:
 1705 0048 ECE7     		b	.L114
 1706              	.L121:
 772:Application/chassis_task.c ****         ;
 1707              		.loc 1 772 13 view .LVU549
 1708 004a 2448     		ldr	r0, .L122+8
 1709 004c FFF7FEFF 		bl	HAL_IWDG_Refresh
 1710              	.LVL55:
 1711 0050 E8E7     		b	.L114
 1712              	.LVL56:
 1713              	.L116:
 1714              	.LBB12:
 779:Application/chassis_task.c ****     }
 1715              		.loc 1 779 9 discriminator 3 view .LVU550
 779:Application/chassis_task.c ****     }
 1716              		.loc 1 779 69 is_stmt 0 discriminator 3 view .LVU551
 1717 0052 234A     		ldr	r2, .L122+12
 1718 0054 92ED007A 		vldr.32	s14, [r2]
 779:Application/chassis_task.c ****     }
 1719              		.loc 1 779 113 discriminator 3 view .LVU552
 1720 0058 1F49     		ldr	r1, .L122+4
 1721 005a 4FF49D62 		mov	r2, #1256
 1722 005e 02FB0312 		mla	r2, r2, r3, r1
 1723 0062 D2ED917A 		vldr.32	s15, [r2, #580]
 779:Application/chassis_task.c ****     }
 1724              		.loc 1 779 152 discriminator 3 view .LVU553
 1725 0066 D2ED906A 		vldr.32	s13, [r2, #576]
 779:Application/chassis_task.c ****     }
 1726              		.loc 1 779 127 discriminator 3 view .LVU554
 1727 006a 67EEA67A 		vmul.f32	s15, s15, s13
 779:Application/chassis_task.c ****     }
 1728              		.loc 1 779 84 discriminator 3 view .LVU555
 1729 006e F0EEE77A 		vabs.f32	s15, s15
 779:Application/chassis_task.c ****     }
 1730              		.loc 1 779 82 discriminator 3 view .LVU556
 1731 0072 27EE277A 		vmul.f32	s14, s14, s15
 779:Application/chassis_task.c ****     }
 1732              		.loc 1 779 57 discriminator 3 view .LVU557
 1733 0076 D1ED8A7A 		vldr.32	s15, [r1, #552]
 1734 007a 77EE877A 		vadd.f32	s15, s15, s14
ARM GAS  C:\Users\86152\AppData\Local\Temp\ccWGVtEI.s 			page 57


 1735 007e C1ED8A7A 		vstr.32	s15, [r1, #552]
 777:Application/chassis_task.c ****     {
 1736              		.loc 1 777 32 is_stmt 1 discriminator 3 view .LVU558
 777:Application/chassis_task.c ****     {
 1737              		.loc 1 777 33 is_stmt 0 discriminator 3 view .LVU559
 1738 0082 0133     		adds	r3, r3, #1
 1739              	.LVL57:
 777:Application/chassis_task.c ****     {
 1740              		.loc 1 777 33 discriminator 3 view .LVU560
 1741 0084 DBB2     		uxtb	r3, r3
 1742              	.LVL58:
 1743              	.L115:
 777:Application/chassis_task.c ****     {
 1744              		.loc 1 777 25 is_stmt 1 discriminator 1 view .LVU561
 777:Application/chassis_task.c ****     {
 1745              		.loc 1 777 5 is_stmt 0 discriminator 1 view .LVU562
 1746 0086 032B     		cmp	r3, #3
 1747 0088 E3D9     		bls	.L116
 1748              	.LBE12:
 781:Application/chassis_task.c **** 
 1749              		.loc 1 781 5 is_stmt 1 view .LVU563
 781:Application/chassis_task.c **** 
 1750              		.loc 1 781 53 is_stmt 0 view .LVU564
 1751 008a 134B     		ldr	r3, .L122+4
 1752              	.LVL59:
 781:Application/chassis_task.c **** 
 1753              		.loc 1 781 53 view .LVU565
 1754 008c D3ED8A7A 		vldr.32	s15, [r3, #552]
 1755 0090 9FED147A 		vldr.32	s14, .L122+16
 1756 0094 67EE877A 		vmul.f32	s15, s15, s14
 1757 0098 C3ED8A7A 		vstr.32	s15, [r3, #552]
 783:Application/chassis_task.c ****     {
 1758              		.loc 1 783 5 is_stmt 1 view .LVU566
 783:Application/chassis_task.c ****     {
 1759              		.loc 1 783 9 is_stmt 0 view .LVU567
 1760 009c 124B     		ldr	r3, .L122+20
 1761 009e 1B78     		ldrb	r3, [r3]	@ zero_extendqisi2
 783:Application/chassis_task.c ****     {
 1762              		.loc 1 783 8 view .LVU568
 1763 00a0 4BB9     		cbnz	r3, .L117
 783:Application/chassis_task.c ****     {
 1764              		.loc 1 783 31 discriminator 1 view .LVU569
 1765 00a2 124B     		ldr	r3, .L122+24
 1766 00a4 1A68     		ldr	r2, [r3]
 1767 00a6 124B     		ldr	r3, .L122+28
 1768 00a8 A3FB0213 		umull	r1, r3, r3, r2
 1769 00ac 5B09     		lsrs	r3, r3, #5
 1770 00ae 6421     		movs	r1, #100
 1771 00b0 01FB1323 		mls	r3, r1, r3, r2
 783:Application/chassis_task.c ****     {
 1772              		.loc 1 783 22 discriminator 1 view .LVU570
 1773 00b4 33B9     		cbnz	r3, .L118
 1774              	.L117:
 785:Application/chassis_task.c ****         JudgeRxValid = 0;
 1775              		.loc 1 785 9 is_stmt 1 view .LVU571
 1776 00b6 0F49     		ldr	r1, .L122+32
 1777 00b8 0F48     		ldr	r0, .L122+36
ARM GAS  C:\Users\86152\AppData\Local\Temp\ccWGVtEI.s 			page 58


 1778 00ba FFF7FEFF 		bl	Send_JudgeRxData
 1779              	.LVL60:
 786:Application/chassis_task.c ****     }
 1780              		.loc 1 786 9 view .LVU572
 786:Application/chassis_task.c ****     }
 1781              		.loc 1 786 22 is_stmt 0 view .LVU573
 1782 00be 0A4B     		ldr	r3, .L122+20
 1783 00c0 0022     		movs	r2, #0
 1784 00c2 1A70     		strb	r2, [r3]
 1785              	.L118:
 789:Application/chassis_task.c **** }
 1786              		.loc 1 789 5 is_stmt 1 view .LVU574
 789:Application/chassis_task.c **** }
 1787              		.loc 1 789 10 is_stmt 0 view .LVU575
 1788 00c4 094A     		ldr	r2, .L122+24
 1789 00c6 1368     		ldr	r3, [r2]
 1790 00c8 0133     		adds	r3, r3, #1
 1791 00ca 1360     		str	r3, [r2]
 790:Application/chassis_task.c **** 
 1792              		.loc 1 790 1 view .LVU576
 1793 00cc 03B0     		add	sp, sp, #12
 1794              	.LCFI13:
 1795              		.cfi_def_cfa_offset 4
 1796              		@ sp needed
 1797 00ce 5DF804FB 		ldr	pc, [sp], #4
 1798              	.L123:
 1799 00d2 00BF     		.align	2
 1800              	.L122:
 1801 00d4 00000000 		.word	hcan1
 1802 00d8 00000000 		.word	Chassis
 1803 00dc 00000000 		.word	hiwdg
 1804 00e0 00000000 		.word	ina226
 1805 00e4 DAF83934 		.word	876214490
 1806 00e8 00000000 		.word	JudgeRxValid
 1807 00ec 00000000 		.word	.LANCHOR19
 1808 00f0 1F85EB51 		.word	1374389535
 1809 00f4 00000000 		.word	JudgeRxData
 1810 00f8 00000000 		.word	hcan2
 1811              		.cfi_endproc
 1812              	.LFE178:
 1814              		.section	.text.Chassis_Init,"ax",%progbits
 1815              		.align	1
 1816              		.global	Chassis_Init
 1817              		.syntax unified
 1818              		.thumb
 1819              		.thumb_func
 1821              	Chassis_Init:
 1822              	.LFB171:
 115:Application/chassis_task.c ****     Chassis.VelocityRatio = VELOCITY_RATIO;
 1823              		.loc 1 115 1 is_stmt 1 view -0
 1824              		.cfi_startproc
 1825              		@ args = 0, pretend = 0, frame = 0
 1826              		@ frame_needed = 0, uses_anonymous_args = 0
 1827 0000 70B5     		push	{r4, r5, r6, lr}
 1828              	.LCFI14:
 1829              		.cfi_def_cfa_offset 16
 1830              		.cfi_offset 4, -16
ARM GAS  C:\Users\86152\AppData\Local\Temp\ccWGVtEI.s 			page 59


 1831              		.cfi_offset 5, -12
 1832              		.cfi_offset 6, -8
 1833              		.cfi_offset 14, -4
 1834 0002 2DED028B 		vpush.64	{d8}
 1835              	.LCFI15:
 1836              		.cfi_def_cfa_offset 24
 1837              		.cfi_offset 80, -24
 1838              		.cfi_offset 81, -20
 116:Application/chassis_task.c **** 
 1839              		.loc 1 116 5 view .LVU578
 116:Application/chassis_task.c **** 
 1840              		.loc 1 116 27 is_stmt 0 view .LVU579
 1841 0006 634D     		ldr	r5, .L128
 1842 0008 634B     		ldr	r3, .L128+4
 1843 000a 6B61     		str	r3, [r5, #20]	@ float
 118:Application/chassis_task.c **** 
 1844              		.loc 1 118 5 is_stmt 1 view .LVU580
 118:Application/chassis_task.c **** 
 1845              		.loc 1 118 32 is_stmt 0 view .LVU581
 1846 000c 0023     		movs	r3, #0
 1847 000e AB61     		str	r3, [r5, #24]	@ float
 120:Application/chassis_task.c **** 
 1848              		.loc 1 120 5 is_stmt 1 view .LVU582
 120:Application/chassis_task.c **** 
 1849              		.loc 1 120 38 is_stmt 0 view .LVU583
 1850 0010 4FF07E53 		mov	r3, #1065353216
 1851 0014 C5F8E031 		str	r3, [r5, #480]	@ float
 120:Application/chassis_task.c **** 
 1852              		.loc 1 120 64 is_stmt 1 view .LVU584
 122:Application/chassis_task.c ****     Chassis.PowerControl.LowVoltage_Gain = LOWVOLTAGE_GAIN;
 1853              		.loc 1 122 5 view .LVU585
 122:Application/chassis_task.c ****     Chassis.PowerControl.LowVoltage_Gain = LOWVOLTAGE_GAIN;
 1854              		.loc 1 122 48 is_stmt 0 view .LVU586
 1855 0018 604B     		ldr	r3, .L128+8
 1856 001a C5F82C32 		str	r3, [r5, #556]	@ float
 123:Application/chassis_task.c **** 
 1857              		.loc 1 123 5 is_stmt 1 view .LVU587
 123:Application/chassis_task.c **** 
 1858              		.loc 1 123 42 is_stmt 0 view .LVU588
 1859 001e 604B     		ldr	r3, .L128+12
 1860 0020 C5F83032 		str	r3, [r5, #560]	@ float
 125:Application/chassis_task.c ****     TD_Init(&Chassis.ChassisVyTD, 1000, 0.01f);
 1861              		.loc 1 125 5 is_stmt 1 view .LVU589
 1862 0024 DFED5F8A 		vldr.32	s17, .L128+16
 1863 0028 9FED5F8A 		vldr.32	s16, .L128+20
 1864 002c F0EE680A 		vmov.f32	s1, s17
 1865 0030 B0EE480A 		vmov.f32	s0, s16
 1866 0034 5D48     		ldr	r0, .L128+24
 1867 0036 FFF7FEFF 		bl	TD_Init
 1868              	.LVL61:
 126:Application/chassis_task.c **** 
 1869              		.loc 1 126 5 view .LVU590
 1870 003a F0EE680A 		vmov.f32	s1, s17
 1871 003e B0EE480A 		vmov.f32	s0, s16
 1872 0042 5B48     		ldr	r0, .L128+28
 1873 0044 FFF7FEFF 		bl	TD_Init
 1874              	.LVL62:
ARM GAS  C:\Users\86152\AppData\Local\Temp\ccWGVtEI.s 			page 60


 128:Application/chassis_task.c **** 
 1875              		.loc 1 128 5 view .LVU591
 128:Application/chassis_task.c **** 
 1876              		.loc 1 128 42 is_stmt 0 view .LVU592
 1877 0048 5A4A     		ldr	r2, .L128+32
 1878 004a 136B     		ldr	r3, [r2, #48]
 128:Application/chassis_task.c **** 
 1879              		.loc 1 128 72 view .LVU593
 1880 004c B2F93410 		ldrsh	r1, [r2, #52]
 128:Application/chassis_task.c **** 
 1881              		.loc 1 128 55 view .LVU594
 1882 0050 5B1A     		subs	r3, r3, r1
 1883 0052 07EE903A 		vmov	s15, r3	@ int
 128:Application/chassis_task.c **** 
 1884              		.loc 1 128 102 view .LVU595
 1885 0056 F8EEE77A 		vcvt.f32.s32	s15, s15
 1886 005a 9FED577A 		vldr.32	s14, .L128+36
 1887 005e 67EE877A 		vmul.f32	s15, s15, s14
 128:Application/chassis_task.c **** 
 1888              		.loc 1 128 24 view .LVU596
 1889 0062 C5ED7A7A 		vstr.32	s15, [r5, #488]
 130:Application/chassis_task.c **** 
 1890              		.loc 1 130 5 is_stmt 1 view .LVU597
 130:Application/chassis_task.c **** 
 1891              		.loc 1 130 79 is_stmt 0 view .LVU598
 1892 0066 B2F92830 		ldrsh	r3, [r2, #40]
 1893 006a 00EE103A 		vmov	s0, r3	@ int
 130:Application/chassis_task.c **** 
 1894              		.loc 1 130 109 view .LVU599
 1895 006e B8EEC00A 		vcvt.f32.s32	s0, s0
 1896 0072 20EE070A 		vmul.f32	s0, s0, s14
 130:Application/chassis_task.c **** 
 1897              		.loc 1 130 21 view .LVU600
 1898 0076 9FED511A 		vldr.32	s2, .L128+40
 1899 007a DFED510A 		vldr.32	s1, .L128+44
 1900 007e 37EE800A 		vadd.f32	s0, s15, s0
 1901 0082 FFF7FEFF 		bl	loop_float_constrain
 1902              	.LVL63:
 130:Application/chassis_task.c **** 
 1903              		.loc 1 130 19 view .LVU601
 1904 0086 85ED790A 		vstr.32	s0, [r5, #484]
 132:Application/chassis_task.c **** 
 1905              		.loc 1 132 5 is_stmt 1 view .LVU602
 132:Application/chassis_task.c **** 
 1906              		.loc 1 132 32 is_stmt 0 view .LVU603
 1907 008a 0024     		movs	r4, #0
 1908 008c C5F8D841 		str	r4, [r5, #472]
 135:Application/chassis_task.c ****     {
 1909              		.loc 1 135 5 is_stmt 1 view .LVU604
 1910              	.LBB13:
 135:Application/chassis_task.c ****     {
 1911              		.loc 1 135 10 view .LVU605
 1912              	.LVL64:
 135:Application/chassis_task.c ****     {
 1913              		.loc 1 135 5 is_stmt 0 view .LVU606
 1914 0090 25E0     		b	.L125
 1915              	.LVL65:
ARM GAS  C:\Users\86152\AppData\Local\Temp\ccWGVtEI.s 			page 61


 1916              	.L126:
 137:Application/chassis_task.c ****             &Chassis.ChassisMotor[i].PID_Velocity, 16384, 16384, 0, 15, 30, 0, 500, 100, 0.005, 0, 
 1917              		.loc 1 137 9 is_stmt 1 discriminator 3 view .LVU607
 1918 0092 9FED4C1A 		vldr.32	s2, .L128+48
 1919 0096 9FED4C0A 		vldr.32	s0, .L128+52
 1920 009a 4FF49D65 		mov	r5, #1256
 1921 009e 05FB04F6 		mul	r6, r5, r4
 1922 00a2 06F54E70 		add	r0, r6, #824
 1923 00a6 3B4D     		ldr	r5, .L128
 1924 00a8 1122     		movs	r2, #17
 1925 00aa 0121     		movs	r1, #1
 1926 00ac F0EE414A 		vmov.f32	s9, s2
 1927 00b0 9FED464A 		vldr.32	s8, .L128+56
 1928 00b4 DFED463A 		vldr.32	s7, .L128+60
 1929 00b8 9FED463A 		vldr.32	s6, .L128+64
 1930 00bc F0EE412A 		vmov.f32	s5, s2
 1931 00c0 B3EE0E2A 		vmov.f32	s4, #3.0e+1
 1932 00c4 F2EE0E1A 		vmov.f32	s3, #1.5e+1
 1933 00c8 F0EE400A 		vmov.f32	s1, s0
 1934 00cc 2844     		add	r0, r0, r5
 1935 00ce FFF7FEFF 		bl	PID_Init
 1936              	.LVL66:
 139:Application/chassis_task.c ****     }
 1937              		.loc 1 139 9 discriminator 3 view .LVU608
 139:Application/chassis_task.c ****     }
 1938              		.loc 1 139 41 is_stmt 0 discriminator 3 view .LVU609
 1939 00d2 3544     		add	r5, r5, r6
 1940 00d4 404B     		ldr	r3, .L128+68
 1941 00d6 C5F87C32 		str	r3, [r5, #636]	@ float
 135:Application/chassis_task.c ****     {
 1942              		.loc 1 135 32 is_stmt 1 discriminator 3 view .LVU610
 135:Application/chassis_task.c ****     {
 1943              		.loc 1 135 33 is_stmt 0 discriminator 3 view .LVU611
 1944 00da 0134     		adds	r4, r4, #1
 1945              	.LVL67:
 135:Application/chassis_task.c ****     {
 1946              		.loc 1 135 33 discriminator 3 view .LVU612
 1947 00dc E4B2     		uxtb	r4, r4
 1948              	.LVL68:
 1949              	.L125:
 135:Application/chassis_task.c ****     {
 1950              		.loc 1 135 25 is_stmt 1 discriminator 1 view .LVU613
 135:Application/chassis_task.c ****     {
 1951              		.loc 1 135 5 is_stmt 0 discriminator 1 view .LVU614
 1952 00de 032C     		cmp	r4, #3
 1953 00e0 D7D9     		bls	.L126
 1954              	.LBE13:
 142:Application/chassis_task.c ****              0, 0, 0, 1,
 1955              		.loc 1 142 5 is_stmt 1 view .LVU615
 1956 00e2 9FED388A 		vldr.32	s16, .L128+48
 1957 00e6 3D4C     		ldr	r4, .L128+72
 1958              	.LVL69:
 142:Application/chassis_task.c ****              0, 0, 0, 1,
 1959              		.loc 1 142 5 is_stmt 0 view .LVU616
 1960 00e8 5322     		movs	r2, #83
 1961 00ea 0121     		movs	r1, #1
 1962 00ec F0EE484A 		vmov.f32	s9, s16
ARM GAS  C:\Users\86152\AppData\Local\Temp\ccWGVtEI.s 			page 62


 1963 00f0 B0EE484A 		vmov.f32	s8, s16
 1964 00f4 F0EE483A 		vmov.f32	s7, s16
 1965 00f8 B0EE483A 		vmov.f32	s6, s16
 1966 00fc F0EE482A 		vmov.f32	s5, s16
 1967 0100 B0EE482A 		vmov.f32	s4, s16
 1968 0104 F2EE001A 		vmov.f32	s3, #8.0e+0
 1969 0108 B0EE481A 		vmov.f32	s2, s16
 1970 010c DFED300A 		vldr.32	s1, .L128+60
 1971 0110 9FED330A 		vldr.32	s0, .L128+76
 1972 0114 2046     		mov	r0, r4
 1973 0116 FFF7FEFF 		bl	PID_Init
 1974              	.LVL70:
 146:Application/chassis_task.c ****              0, 0, 0, 1,
 1975              		.loc 1 146 5 is_stmt 1 view .LVU617
 1976 011a 5322     		movs	r2, #83
 1977 011c 0121     		movs	r1, #1
 1978 011e F0EE484A 		vmov.f32	s9, s16
 1979 0122 B0EE484A 		vmov.f32	s8, s16
 1980 0126 F0EE483A 		vmov.f32	s7, s16
 1981 012a B0EE483A 		vmov.f32	s6, s16
 1982 012e F0EE482A 		vmov.f32	s5, s16
 1983 0132 B0EE482A 		vmov.f32	s4, s16
 1984 0136 DFED2B1A 		vldr.32	s3, .L128+80
 1985 013a B0EE481A 		vmov.f32	s2, s16
 1986 013e F3EE0E0A 		vmov.f32	s1, #3.0e+1
 1987 0142 9FED290A 		vldr.32	s0, .L128+84
 1988 0146 04F5CC70 		add	r0, r4, #408
 1989 014a FFF7FEFF 		bl	PID_Init
 1990              	.LVL71:
 150:Application/chassis_task.c **** 
 1991              		.loc 1 150 5 view .LVU618
 1992 014e DFED270A 		vldr.32	s1, .L128+88
 1993 0152 9FED270A 		vldr.32	s0, .L128+92
 1994 0156 04F5AC70 		add	r0, r4, #344
 1995 015a FFF7FEFF 		bl	TD_Init
 1996              	.LVL72:
 152:Application/chassis_task.c ****     Matrix_Init(&Chassis.ChassisMotionEst.HT, 6, 4, (float *)Chassis.ChassisMotionEst.HT_data);
 1997              		.loc 1 152 5 view .LVU619
 152:Application/chassis_task.c ****     Matrix_Init(&Chassis.ChassisMotionEst.HT, 6, 4, (float *)Chassis.ChassisMotionEst.HT_data);
 1998              		.loc 1 152 52 is_stmt 0 view .LVU620
 1999 015e 0D4C     		ldr	r4, .L128
 152:Application/chassis_task.c ****     Matrix_Init(&Chassis.ChassisMotionEst.HT, 6, 4, (float *)Chassis.ChassisMotionEst.HT_data);
 2000              		.loc 1 152 5 view .LVU621
 2001 0160 D4F82C31 		ldr	r3, [r4, #300]
 2002 0164 0622     		movs	r2, #6
 2003 0166 0421     		movs	r1, #4
 2004 0168 04F19800 		add	r0, r4, #152
 2005 016c FFF7FEFF 		bl	arm_mat_init_f32
 2006              	.LVL73:
 153:Application/chassis_task.c ****     ChassisMotionEst_Init();
 2007              		.loc 1 153 5 is_stmt 1 view .LVU622
 2008 0170 D4F83031 		ldr	r3, [r4, #304]
 2009 0174 0422     		movs	r2, #4
 2010 0176 0621     		movs	r1, #6
 2011 0178 04F1A000 		add	r0, r4, #160
 2012 017c FFF7FEFF 		bl	arm_mat_init_f32
 2013              	.LVL74:
ARM GAS  C:\Users\86152\AppData\Local\Temp\ccWGVtEI.s 			page 63


 154:Application/chassis_task.c ****     Chassis.IsSpining = 0;
 2014              		.loc 1 154 5 view .LVU623
 2015 0180 FFF7FEFF 		bl	ChassisMotionEst_Init
 2016              	.LVL75:
 155:Application/chassis_task.c **** }
 2017              		.loc 1 155 5 view .LVU624
 155:Application/chassis_task.c **** }
 2018              		.loc 1 155 23 is_stmt 0 view .LVU625
 2019 0184 04F58054 		add	r4, r4, #4096
 2020 0188 0023     		movs	r3, #0
 2021 018a 84F86A37 		strb	r3, [r4, #1898]
 156:Application/chassis_task.c **** 
 2022              		.loc 1 156 1 view .LVU626
 2023 018e BDEC028B 		vldm	sp!, {d8}
 2024              	.LCFI16:
 2025              		.cfi_restore 80
 2026              		.cfi_restore 81
 2027              		.cfi_def_cfa_offset 16
 2028 0192 70BD     		pop	{r4, r5, r6, pc}
 2029              	.L129:
 2030              		.align	2
 2031              	.L128:
 2032 0194 00000000 		.word	Chassis
 2033 0198 00004040 		.word	1077936128
 2034 019c 3333733F 		.word	1064514355
 2035 01a0 3333333F 		.word	1060320051
 2036 01a4 0AD7233C 		.word	1008981770
 2037 01a8 00007A44 		.word	1148846080
 2038 01ac 90160000 		.word	Chassis+5776
 2039 01b0 B8160000 		.word	Chassis+5816
 2040 01b4 00000000 		.word	Gimbal
 2041 01b8 B400B43B 		.word	1001652404
 2042 01bc 00003443 		.word	1127481344
 2043 01c0 000034C3 		.word	-1020002304
 2044 01c4 00000000 		.word	0
 2045 01c8 00008046 		.word	1182793728
 2046 01cc 0AD7A33B 		.word	1000593162
 2047 01d0 0000C842 		.word	1120403456
 2048 01d4 0000FA43 		.word	1140457472
 2049 01d8 00803B46 		.word	1178304512
 2050 01dc D8150000 		.word	Chassis+5592
 2051 01e0 00009643 		.word	1133903872
 2052 01e4 CDCCCC3D 		.word	1036831949
 2053 01e8 00004842 		.word	1112014848
 2054 01ec 6F12833A 		.word	981668463
 2055 01f0 0050C347 		.word	1203982336
 2056              		.cfi_endproc
 2057              	.LFE171:
 2059              		.section	.text.Insert_thetaFrame,"ax",%progbits
 2060              		.align	1
 2061              		.global	Insert_thetaFrame
 2062              		.syntax unified
 2063              		.thumb
 2064              		.thumb_func
 2066              	Insert_thetaFrame:
 2067              	.LVL76:
 2068              	.LFB184:
ARM GAS  C:\Users\86152\AppData\Local\Temp\ccWGVtEI.s 			page 64


 952:Application/chassis_task.c **** 
 953:Application/chassis_task.c **** void Insert_thetaFrame(thetaFrame_t *theta_frame, float follow_theta, uint32_t time_stamp_ms)
 954:Application/chassis_task.c **** {
 2069              		.loc 1 954 1 is_stmt 1 view -0
 2070              		.cfi_startproc
 2071              		@ args = 0, pretend = 0, frame = 0
 2072              		@ frame_needed = 0, uses_anonymous_args = 0
 2073              		.loc 1 954 1 is_stmt 0 view .LVU628
 2074 0000 38B5     		push	{r3, r4, r5, lr}
 2075              	.LCFI17:
 2076              		.cfi_def_cfa_offset 16
 2077              		.cfi_offset 3, -16
 2078              		.cfi_offset 4, -12
 2079              		.cfi_offset 5, -8
 2080              		.cfi_offset 14, -4
 2081 0002 2DED028B 		vpush.64	{d8}
 2082              	.LCFI18:
 2083              		.cfi_def_cfa_offset 24
 2084              		.cfi_offset 80, -24
 2085              		.cfi_offset 81, -20
 2086 0006 0446     		mov	r4, r0
 2087 0008 10EE105A 		vmov	r5, s0
 2088 000c 08EE101A 		vmov	s16, r1	@ int
 955:Application/chassis_task.c ****     memmove(theta_frame + 1, theta_frame, (FOLLOW_THETA_LEN - 1) * sizeof(thetaFrame_t));
 2089              		.loc 1 955 5 is_stmt 1 view .LVU629
 2090 0010 4FF4C762 		mov	r2, #1592
 2091 0014 0146     		mov	r1, r0
 2092              	.LVL77:
 2093              		.loc 1 955 5 is_stmt 0 view .LVU630
 2094 0016 0830     		adds	r0, r0, #8
 2095              	.LVL78:
 2096              		.loc 1 955 5 view .LVU631
 2097 0018 FFF7FEFF 		bl	memmove
 2098              	.LVL79:
 956:Application/chassis_task.c ****     theta_frame[0].TimeStamp_ms = time_stamp_ms;
 2099              		.loc 1 956 5 is_stmt 1 view .LVU632
 2100              		.loc 1 956 33 is_stmt 0 view .LVU633
 2101 001c B8EE488A 		vcvt.f32.u32	s16, s16
 2102              	.LVL80:
 2103              		.loc 1 956 33 view .LVU634
 2104 0020 84ED018A 		vstr.32	s16, [r4, #4]
 957:Application/chassis_task.c ****     theta_frame[0].FollowTheta = follow_theta;
 2105              		.loc 1 957 5 is_stmt 1 view .LVU635
 2106              		.loc 1 957 32 is_stmt 0 view .LVU636
 2107 0024 2560     		str	r5, [r4]	@ float
 958:Application/chassis_task.c **** }
 2108              		.loc 1 958 1 view .LVU637
 2109 0026 BDEC028B 		vldm	sp!, {d8}
 2110              	.LCFI19:
 2111              		.cfi_restore 80
 2112              		.cfi_restore 81
 2113              		.cfi_def_cfa_offset 16
 2114 002a 38BD     		pop	{r3, r4, r5, pc}
 2115              		.loc 1 958 1 view .LVU638
 2116              		.cfi_endproc
 2117              	.LFE184:
 2119              		.section	.text.Chassis_Get_Theta,"ax",%progbits
ARM GAS  C:\Users\86152\AppData\Local\Temp\ccWGVtEI.s 			page 65


 2120              		.align	1
 2121              		.syntax unified
 2122              		.thumb
 2123              		.thumb_func
 2125              	Chassis_Get_Theta:
 2126              	.LFB174:
 203:Application/chassis_task.c ****     // 底盘与云台偏角获取
 2127              		.loc 1 203 1 is_stmt 1 view -0
 2128              		.cfi_startproc
 2129              		@ args = 0, pretend = 0, frame = 0
 2130              		@ frame_needed = 0, uses_anonymous_args = 0
 2131 0000 10B5     		push	{r4, lr}
 2132              	.LCFI20:
 2133              		.cfi_def_cfa_offset 8
 2134              		.cfi_offset 4, -8
 2135              		.cfi_offset 14, -4
 2136 0002 2DED028B 		vpush.64	{d8}
 2137              	.LCFI21:
 2138              		.cfi_def_cfa_offset 16
 2139              		.cfi_offset 80, -16
 2140              		.cfi_offset 81, -12
 205:Application/chassis_task.c **** 
 2141              		.loc 1 205 5 view .LVU640
 205:Application/chassis_task.c **** 
 2142              		.loc 1 205 42 is_stmt 0 view .LVU641
 2143 0006 214A     		ldr	r2, .L135
 2144 0008 136B     		ldr	r3, [r2, #48]
 205:Application/chassis_task.c **** 
 2145              		.loc 1 205 72 view .LVU642
 2146 000a B2F93410 		ldrsh	r1, [r2, #52]
 205:Application/chassis_task.c **** 
 2147              		.loc 1 205 55 view .LVU643
 2148 000e 5B1A     		subs	r3, r3, r1
 2149 0010 07EE903A 		vmov	s15, r3	@ int
 205:Application/chassis_task.c **** 
 2150              		.loc 1 205 102 view .LVU644
 2151 0014 F8EEE77A 		vcvt.f32.s32	s15, s15
 2152 0018 9FED1D7A 		vldr.32	s14, .L135+4
 2153 001c 67EE877A 		vmul.f32	s15, s15, s14
 205:Application/chassis_task.c **** 
 2154              		.loc 1 205 24 view .LVU645
 2155 0020 1C4C     		ldr	r4, .L135+8
 2156 0022 C4ED7A7A 		vstr.32	s15, [r4, #488]
 207:Application/chassis_task.c ****                                           Gimbal.YawMotor.offset_angle * ENCODERCOEF * YAW_REDUCTIO
 2157              		.loc 1 207 5 is_stmt 1 view .LVU646
 208:Application/chassis_task.c ****                                          -180, 180);
 2158              		.loc 1 208 58 is_stmt 0 view .LVU647
 2159 0026 B2F92830 		ldrsh	r3, [r2, #40]
 2160 002a 00EE103A 		vmov	s0, r3	@ int
 208:Application/chassis_task.c ****                                          -180, 180);
 2161              		.loc 1 208 88 view .LVU648
 2162 002e B8EEC00A 		vcvt.f32.s32	s0, s0
 2163 0032 20EE070A 		vmul.f32	s0, s0, s14
 207:Application/chassis_task.c ****                                           Gimbal.YawMotor.offset_angle * ENCODERCOEF * YAW_REDUCTIO
 2164              		.loc 1 207 21 view .LVU649
 2165 0036 9FED181A 		vldr.32	s2, .L135+12
 2166 003a DFED180A 		vldr.32	s1, .L135+16
ARM GAS  C:\Users\86152\AppData\Local\Temp\ccWGVtEI.s 			page 66


 2167 003e 37EE800A 		vadd.f32	s0, s15, s0
 2168 0042 FFF7FEFF 		bl	loop_float_constrain
 2169              	.LVL81:
 207:Application/chassis_task.c ****                                           Gimbal.YawMotor.offset_angle * ENCODERCOEF * YAW_REDUCTIO
 2170              		.loc 1 207 19 view .LVU650
 2171 0046 84ED790A 		vstr.32	s0, [r4, #484]
 211:Application/chassis_task.c ****     {
 2172              		.loc 1 211 5 is_stmt 1 view .LVU651
 211:Application/chassis_task.c ****     {
 2173              		.loc 1 211 9 is_stmt 0 view .LVU652
 2174 004a 0020     		movs	r0, #0
 2175 004c FFF7FEFF 		bl	is_TOE_Error
 2176              	.LVL82:
 211:Application/chassis_task.c ****     {
 2177              		.loc 1 211 8 view .LVU653
 2178 0050 20B1     		cbz	r0, .L133
 213:Application/chassis_task.c ****         Chassis.Theta = 0;
 2179              		.loc 1 213 9 is_stmt 1 view .LVU654
 213:Application/chassis_task.c ****         Chassis.Theta = 0;
 2180              		.loc 1 213 28 is_stmt 0 view .LVU655
 2181 0052 0022     		movs	r2, #0
 2182 0054 C4F8E821 		str	r2, [r4, #488]	@ float
 214:Application/chassis_task.c ****     }
 2183              		.loc 1 214 9 is_stmt 1 view .LVU656
 214:Application/chassis_task.c ****     }
 2184              		.loc 1 214 23 is_stmt 0 view .LVU657
 2185 0058 C4F8E421 		str	r2, [r4, #484]	@ float
 2186              	.L133:
 217:Application/chassis_task.c ****     Insert_thetaFrame(Chassis.thetaFrame, Chassis.FollowTheta, INS_GetTimeline());
 2187              		.loc 1 217 5 is_stmt 1 view .LVU658
 217:Application/chassis_task.c ****     Insert_thetaFrame(Chassis.thetaFrame, Chassis.FollowTheta, INS_GetTimeline());
 2188              		.loc 1 217 27 is_stmt 0 view .LVU659
 2189 005c 0D4C     		ldr	r4, .L135+8
 2190 005e 9FED101A 		vldr.32	s2, .L135+20
 2191 0062 DFED100A 		vldr.32	s1, .L135+24
 2192 0066 94ED790A 		vldr.32	s0, [r4, #484]
 2193 006a FFF7FEFF 		bl	float_deadband
 2194              	.LVL83:
 2195 006e B0EE408A 		vmov.f32	s16, s0
 217:Application/chassis_task.c ****     Insert_thetaFrame(Chassis.thetaFrame, Chassis.FollowTheta, INS_GetTimeline());
 2196              		.loc 1 217 25 view .LVU660
 2197 0072 84ED7B0A 		vstr.32	s0, [r4, #492]
 218:Application/chassis_task.c **** }
 2198              		.loc 1 218 5 is_stmt 1 view .LVU661
 2199 0076 FFF7FEFF 		bl	HAL_GetTick
 2200              	.LVL84:
 2201 007a 0146     		mov	r1, r0
 2202 007c B0EE480A 		vmov.f32	s0, s16
 2203 0080 0948     		ldr	r0, .L135+28
 2204 0082 FFF7FEFF 		bl	Insert_thetaFrame
 2205              	.LVL85:
 219:Application/chassis_task.c **** 
 2206              		.loc 1 219 1 is_stmt 0 view .LVU662
 2207 0086 BDEC028B 		vldm	sp!, {d8}
 2208              	.LCFI22:
 2209              		.cfi_restore 80
 2210              		.cfi_restore 81
ARM GAS  C:\Users\86152\AppData\Local\Temp\ccWGVtEI.s 			page 67


 2211              		.cfi_def_cfa_offset 8
 2212 008a 10BD     		pop	{r4, pc}
 2213              	.L136:
 2214              		.align	2
 2215              	.L135:
 2216 008c 00000000 		.word	Gimbal
 2217 0090 B400B43B 		.word	1001652404
 2218 0094 00000000 		.word	Chassis
 2219 0098 00003443 		.word	1127481344
 2220 009c 000034C3 		.word	-1020002304
 2221 00a0 0AD7A33B 		.word	1000593162
 2222 00a4 0AD7A3BB 		.word	-1146890486
 2223 00a8 50180000 		.word	Chassis+6224
 2224              		.cfi_endproc
 2225              	.LFE174:
 2227              		.section	.text.Find_thetaFrame,"ax",%progbits
 2228              		.align	1
 2229              		.global	Find_thetaFrame
 2230              		.syntax unified
 2231              		.thumb
 2232              		.thumb_func
 2234              	Find_thetaFrame:
 2235              	.LVL86:
 2236              	.LFB185:
 959:Application/chassis_task.c **** 
 960:Application/chassis_task.c **** uint16_t Find_thetaFrame(thetaFrame_t *theta_frame, uint32_t match_time_stamp_ms)
 961:Application/chassis_task.c **** {
 2237              		.loc 1 961 1 is_stmt 1 view -0
 2238              		.cfi_startproc
 2239              		@ args = 0, pretend = 0, frame = 0
 2240              		@ frame_needed = 0, uses_anonymous_args = 0
 2241              		@ link register save eliminated.
 2242              		.loc 1 961 1 is_stmt 0 view .LVU664
 2243 0000 8446     		mov	ip, r0
 2244 0002 06EE901A 		vmov	s13, r1	@ int
 962:Application/chassis_task.c ****     uint16_t num = 0;
 2245              		.loc 1 962 5 is_stmt 1 view .LVU665
 2246              	.LVL87:
 963:Application/chassis_task.c ****     float min_time_error = fabsf((float)(theta_frame[0].TimeStamp_ms) - match_time_stamp_ms);
 2247              		.loc 1 963 5 view .LVU666
 2248              		.loc 1 963 56 is_stmt 0 view .LVU667
 2249 0006 90ED017A 		vldr.32	s14, [r0, #4]
 2250              		.loc 1 963 71 view .LVU668
 2251 000a F8EE666A 		vcvt.f32.u32	s13, s13
 2252 000e 37EE667A 		vsub.f32	s14, s14, s13
 2253              		.loc 1 963 11 view .LVU669
 2254 0012 B0EEC77A 		vabs.f32	s14, s14
 2255              	.LVL88:
 964:Application/chassis_task.c **** 
 965:Application/chassis_task.c ****     for (uint16_t i = 0; i < FOLLOW_THETA_LEN; i++)
 2256              		.loc 1 965 5 is_stmt 1 view .LVU670
 2257              	.LBB14:
 2258              		.loc 1 965 10 view .LVU671
 2259              		.loc 1 965 19 is_stmt 0 view .LVU672
 2260 0016 0023     		movs	r3, #0
 2261              	.LBE14:
 962:Application/chassis_task.c ****     float min_time_error = fabsf((float)(theta_frame[0].TimeStamp_ms) - match_time_stamp_ms);
ARM GAS  C:\Users\86152\AppData\Local\Temp\ccWGVtEI.s 			page 68


 2262              		.loc 1 962 14 view .LVU673
 2263 0018 1846     		mov	r0, r3
 2264              	.LVL89:
 2265              	.LBB15:
 2266              		.loc 1 965 5 view .LVU674
 2267 001a 01E0     		b	.L138
 2268              	.LVL90:
 2269              	.L139:
 2270              		.loc 1 965 48 is_stmt 1 discriminator 2 view .LVU675
 2271              		.loc 1 965 49 is_stmt 0 discriminator 2 view .LVU676
 2272 001c 0133     		adds	r3, r3, #1
 2273              	.LVL91:
 2274              		.loc 1 965 49 discriminator 2 view .LVU677
 2275 001e 9BB2     		uxth	r3, r3
 2276              	.LVL92:
 2277              	.L138:
 2278              		.loc 1 965 26 is_stmt 1 discriminator 1 view .LVU678
 2279              		.loc 1 965 5 is_stmt 0 discriminator 1 view .LVU679
 2280 0020 C72B     		cmp	r3, #199
 2281 0022 10D8     		bhi	.L142
 966:Application/chassis_task.c ****     {
 967:Application/chassis_task.c ****         if (fabsf((float)(theta_frame[i].TimeStamp_ms) - match_time_stamp_ms) < min_time_error)
 2282              		.loc 1 967 9 is_stmt 1 view .LVU680
 2283              		.loc 1 967 38 is_stmt 0 view .LVU681
 2284 0024 0CEBC302 		add	r2, ip, r3, lsl #3
 2285              		.loc 1 967 41 view .LVU682
 2286 0028 D2ED017A 		vldr.32	s15, [r2, #4]
 2287              		.loc 1 967 56 view .LVU683
 2288 002c 77EEE67A 		vsub.f32	s15, s15, s13
 2289              		.loc 1 967 13 view .LVU684
 2290 0030 F0EEE77A 		vabs.f32	s15, s15
 2291              		.loc 1 967 12 view .LVU685
 2292 0034 F4EEC77A 		vcmpe.f32	s15, s14
 2293 0038 F1EE10FA 		vmrs	APSR_nzcv, FPSCR
 2294 003c EED5     		bpl	.L139
 968:Application/chassis_task.c ****         {
 969:Application/chassis_task.c ****             min_time_error = fabsf((float)(theta_frame[i].TimeStamp_ms) - match_time_stamp_ms);
 2295              		.loc 1 969 28 view .LVU686
 2296 003e B0EE677A 		vmov.f32	s14, s15
 2297              	.LVL93:
 970:Application/chassis_task.c ****             num = i;
 2298              		.loc 1 970 17 view .LVU687
 2299 0042 1846     		mov	r0, r3
 2300              	.LVL94:
 2301              		.loc 1 970 17 view .LVU688
 2302 0044 EAE7     		b	.L139
 2303              	.LVL95:
 2304              	.L142:
 2305              		.loc 1 970 17 view .LVU689
 2306              	.LBE15:
 971:Application/chassis_task.c ****         }
 972:Application/chassis_task.c ****     }
 973:Application/chassis_task.c ****     return num;
 2307              		.loc 1 973 5 is_stmt 1 view .LVU690
 974:Application/chassis_task.c **** }
 2308              		.loc 1 974 1 is_stmt 0 view .LVU691
 2309 0046 7047     		bx	lr
ARM GAS  C:\Users\86152\AppData\Local\Temp\ccWGVtEI.s 			page 69


 2310              		.cfi_endproc
 2311              	.LFE185:
 2313              		.global	__aeabi_dadd
 2314              		.global	__aeabi_ddiv
 2315              		.section	.text.Chassis_Set_Control,"ax",%progbits
 2316              		.align	1
 2317              		.syntax unified
 2318              		.thumb
 2319              		.thumb_func
 2321              	Chassis_Set_Control:
 2322              	.LFB177:
 327:Application/chassis_task.c ****     static float tempVr, posX100, posY100;
 2323              		.loc 1 327 1 is_stmt 1 view -0
 2324              		.cfi_startproc
 2325              		@ args = 0, pretend = 0, frame = 0
 2326              		@ frame_needed = 0, uses_anonymous_args = 0
 2327 0000 2DE9F84F 		push	{r3, r4, r5, r6, r7, r8, r9, r10, fp, lr}
 2328              	.LCFI23:
 2329              		.cfi_def_cfa_offset 40
 2330              		.cfi_offset 3, -40
 2331              		.cfi_offset 4, -36
 2332              		.cfi_offset 5, -32
 2333              		.cfi_offset 6, -28
 2334              		.cfi_offset 7, -24
 2335              		.cfi_offset 8, -20
 2336              		.cfi_offset 9, -16
 2337              		.cfi_offset 10, -12
 2338              		.cfi_offset 11, -8
 2339              		.cfi_offset 14, -4
 2340 0004 2DED088B 		vpush.64	{d8, d9, d10, d11}
 2341              	.LCFI24:
 2342              		.cfi_def_cfa_offset 72
 2343              		.cfi_offset 80, -72
 2344              		.cfi_offset 81, -68
 2345              		.cfi_offset 82, -64
 2346              		.cfi_offset 83, -60
 2347              		.cfi_offset 84, -56
 2348              		.cfi_offset 85, -52
 2349              		.cfi_offset 86, -48
 2350              		.cfi_offset 87, -44
 328:Application/chassis_task.c ****     static float SpiningDistance, spinnig_center0_temp, spinnig_center1_temp, move_ratio;
 2351              		.loc 1 328 5 view .LVU693
 329:Application/chassis_task.c ****     static uint32_t center_count, edge_count, data_novalid_count, reach_count;
 2352              		.loc 1 329 5 view .LVU694
 330:Application/chassis_task.c ****     static uint8_t thetaFrameNum, is_velocity;
 2353              		.loc 1 330 5 view .LVU695
 331:Application/chassis_task.c ****     static uint8_t reach_num = 0;
 2354              		.loc 1 331 5 view .LVU696
 332:Application/chassis_task.c **** 
 2355              		.loc 1 332 5 view .LVU697
 334:Application/chassis_task.c ****     {
 2356              		.loc 1 334 5 view .LVU698
 334:Application/chassis_task.c ****     {
 2357              		.loc 1 334 20 is_stmt 0 view .LVU699
 2358 0008 824B     		ldr	r3, .L249
 2359 000a 93F8D431 		ldrb	r3, [r3, #468]	@ zero_extendqisi2
 334:Application/chassis_task.c ****     {
ARM GAS  C:\Users\86152\AppData\Local\Temp\ccWGVtEI.s 			page 70


 2360              		.loc 1 334 5 view .LVU700
 2361 000e 042B     		cmp	r3, #4
 2362 0010 00F21881 		bhi	.L144
 2363 0014 DFE813F0 		tbh	[pc, r3, lsl #1]
 2364              	.L146:
 2365 0018 0500     		.2byte	(.L150-.L146)/2
 2366 001a 2D02     		.2byte	(.L149-.L146)/2
 2367 001c CA07     		.2byte	(.L148-.L146)/2
 2368 001e 1001     		.2byte	(.L147-.L146)/2
 2369 0020 1808     		.2byte	(.L145-.L146)/2
 2370              		.p2align 1
 2371              	.L150:
 338:Application/chassis_task.c ****             Chassis.Vr = remote_control.ch1 * Chassis.rcStickRotateRatio;
 2372              		.loc 1 338 9 is_stmt 1 view .LVU701
 338:Application/chassis_task.c ****             Chassis.Vr = remote_control.ch1 * Chassis.rcStickRotateRatio;
 2373              		.loc 1 338 26 is_stmt 0 view .LVU702
 2374 0022 7C4B     		ldr	r3, .L249
 2375 0024 93ED7B0A 		vldr.32	s0, [r3, #492]
 338:Application/chassis_task.c ****             Chassis.Vr = remote_control.ch1 * Chassis.rcStickRotateRatio;
 2376              		.loc 1 338 13 view .LVU703
 2377 0028 B0EEC07A 		vabs.f32	s14, s0
 338:Application/chassis_task.c ****             Chassis.Vr = remote_control.ch1 * Chassis.rcStickRotateRatio;
 2378              		.loc 1 338 12 view .LVU704
 2379 002c DFED7A7A 		vldr.32	s15, .L249+4
 2380 0030 B4EEE77A 		vcmpe.f32	s14, s15
 2381 0034 F1EE10FA 		vmrs	APSR_nzcv, FPSCR
 2382 0038 40F1C280 		bpl	.L232
 339:Application/chassis_task.c ****         else
 2383              		.loc 1 339 13 is_stmt 1 view .LVU705
 339:Application/chassis_task.c ****         else
 2384              		.loc 1 339 40 is_stmt 0 view .LVU706
 2385 003c 774B     		ldr	r3, .L249+8
 2386 003e B3F90430 		ldrsh	r3, [r3, #4]
 2387 0042 07EE903A 		vmov	s15, r3	@ int
 339:Application/chassis_task.c ****         else
 2388              		.loc 1 339 54 view .LVU707
 2389 0046 734B     		ldr	r3, .L249
 2390 0048 93ED067A 		vldr.32	s14, [r3, #24]
 339:Application/chassis_task.c ****         else
 2391              		.loc 1 339 45 view .LVU708
 2392 004c F8EEE77A 		vcvt.f32.s32	s15, s15
 2393 0050 67EE877A 		vmul.f32	s15, s15, s14
 339:Application/chassis_task.c ****         else
 2394              		.loc 1 339 24 view .LVU709
 2395 0054 FDEEE77A 		vcvt.s32.f32	s15, s15
 2396 0058 17EE902A 		vmov	r2, s15	@ int
 2397 005c 9A80     		strh	r2, [r3, #4]	@ movhi
 2398              	.L153:
 350:Application/chassis_task.c ****                              user_sin(-Chassis.FollowTheta / RADIAN_COEF) * (Chassis.Vy + Chassis.F
 2399              		.loc 1 350 9 is_stmt 1 view .LVU710
 350:Application/chassis_task.c ****                              user_sin(-Chassis.FollowTheta / RADIAN_COEF) * (Chassis.Vy + Chassis.F
 2400              		.loc 1 350 47 is_stmt 0 view .LVU711
 2401 005e 6D4C     		ldr	r4, .L249
 2402 0060 94ED7B0A 		vldr.32	s0, [r4, #492]
 350:Application/chassis_task.c ****                              user_sin(-Chassis.FollowTheta / RADIAN_COEF) * (Chassis.Vy + Chassis.F
 2403              		.loc 1 350 39 view .LVU712
 2404 0064 B1EE400A 		vneg.f32	s0, s0
ARM GAS  C:\Users\86152\AppData\Local\Temp\ccWGVtEI.s 			page 71


 350:Application/chassis_task.c ****                              user_sin(-Chassis.FollowTheta / RADIAN_COEF) * (Chassis.Vy + Chassis.F
 2405              		.loc 1 350 30 view .LVU713
 2406 0068 DFED6DAA 		vldr.32	s21, .L249+12
 2407 006c 80EE2A0A 		vdiv.f32	s0, s0, s21
 2408 0070 FFF7FEFF 		bl	arm_cos_f32
 2409              	.LVL96:
 350:Application/chassis_task.c ****                              user_sin(-Chassis.FollowTheta / RADIAN_COEF) * (Chassis.Vy + Chassis.F
 2410              		.loc 1 350 85 view .LVU714
 2411 0074 B4F90030 		ldrsh	r3, [r4]
 2412 0078 0BEE103A 		vmov	s22, r3	@ int
 350:Application/chassis_task.c ****                              user_sin(-Chassis.FollowTheta / RADIAN_COEF) * (Chassis.Vy + Chassis.F
 2413              		.loc 1 350 98 view .LVU715
 2414 007c 04F58055 		add	r5, r4, #4096
 2415 0080 05F25C77 		addw	r7, r5, #1884
 2416 0084 D7ED007A 		vldr.32	s15, [r7]
 350:Application/chassis_task.c ****                              user_sin(-Chassis.FollowTheta / RADIAN_COEF) * (Chassis.Vy + Chassis.F
 2417              		.loc 1 350 124 view .LVU716
 2418 0088 05F26475 		addw	r5, r5, #1892
 2419 008c 95ED007A 		vldr.32	s14, [r5]
 350:Application/chassis_task.c ****                              user_sin(-Chassis.FollowTheta / RADIAN_COEF) * (Chassis.Vy + Chassis.F
 2420              		.loc 1 350 115 view .LVU717
 2421 0090 67EE877A 		vmul.f32	s15, s15, s14
 350:Application/chassis_task.c ****                              user_sin(-Chassis.FollowTheta / RADIAN_COEF) * (Chassis.Vy + Chassis.F
 2422              		.loc 1 350 136 view .LVU718
 2423 0094 B2EE0CAA 		vmov.f32	s20, #1.4e+1
 2424 0098 67EE8A7A 		vmul.f32	s15, s15, s20
 350:Application/chassis_task.c ****                              user_sin(-Chassis.FollowTheta / RADIAN_COEF) * (Chassis.Vy + Chassis.F
 2425              		.loc 1 350 144 view .LVU719
 2426 009c F2EE049A 		vmov.f32	s19, #1.0e+1
 2427 00a0 67EEA97A 		vmul.f32	s15, s15, s19
 350:Application/chassis_task.c ****                              user_sin(-Chassis.FollowTheta / RADIAN_COEF) * (Chassis.Vy + Chassis.F
 2428              		.loc 1 350 152 view .LVU720
 2429 00a4 9FED5F9A 		vldr.32	s18, .L249+16
 2430 00a8 87EE897A 		vdiv.f32	s14, s15, s18
 350:Application/chassis_task.c ****                              user_sin(-Chassis.FollowTheta / RADIAN_COEF) * (Chassis.Vy + Chassis.F
 2431              		.loc 1 350 167 view .LVU721
 2432 00ac F6EE008A 		vmov.f32	s17, #5.0e-1
 2433 00b0 27EE287A 		vmul.f32	s14, s14, s17
 350:Application/chassis_task.c ****                              user_sin(-Chassis.FollowTheta / RADIAN_COEF) * (Chassis.Vy + Chassis.F
 2434              		.loc 1 350 171 view .LVU722
 2435 00b4 9FED5C8A 		vldr.32	s16, .L249+20
 2436 00b8 C7EE086A 		vdiv.f32	s13, s14, s16
 350:Application/chassis_task.c ****                              user_sin(-Chassis.FollowTheta / RADIAN_COEF) * (Chassis.Vy + Chassis.F
 2437              		.loc 1 350 89 view .LVU723
 2438 00bc F8EECB7A 		vcvt.f32.s32	s15, s22
 2439 00c0 77EEA67A 		vadd.f32	s15, s15, s13
 350:Application/chassis_task.c ****                              user_sin(-Chassis.FollowTheta / RADIAN_COEF) * (Chassis.Vy + Chassis.F
 2440              		.loc 1 350 75 view .LVU724
 2441 00c4 20EE27BA 		vmul.f32	s22, s0, s15
 351:Application/chassis_task.c ****         Chassis.VyTransfer = -user_sin(-Chassis.FollowTheta / RADIAN_COEF) * (Chassis.Vx + Chassis.
 2442              		.loc 1 351 47 view .LVU725
 2443 00c8 94ED7B0A 		vldr.32	s0, [r4, #492]
 351:Application/chassis_task.c ****         Chassis.VyTransfer = -user_sin(-Chassis.FollowTheta / RADIAN_COEF) * (Chassis.Vx + Chassis.
 2444              		.loc 1 351 39 view .LVU726
 2445 00cc B1EE400A 		vneg.f32	s0, s0
 351:Application/chassis_task.c ****         Chassis.VyTransfer = -user_sin(-Chassis.FollowTheta / RADIAN_COEF) * (Chassis.Vx + Chassis.
 2446              		.loc 1 351 30 view .LVU727
ARM GAS  C:\Users\86152\AppData\Local\Temp\ccWGVtEI.s 			page 72


 2447 00d0 80EE2A0A 		vdiv.f32	s0, s0, s21
 2448 00d4 FFF7FEFF 		bl	arm_sin_f32
 2449              	.LVL97:
 351:Application/chassis_task.c ****         Chassis.VyTransfer = -user_sin(-Chassis.FollowTheta / RADIAN_COEF) * (Chassis.Vx + Chassis.
 2450              		.loc 1 351 85 view .LVU728
 2451 00d8 B4F90230 		ldrsh	r3, [r4, #2]
 351:Application/chassis_task.c ****         Chassis.VyTransfer = -user_sin(-Chassis.FollowTheta / RADIAN_COEF) * (Chassis.Vx + Chassis.
 2452              		.loc 1 351 98 view .LVU729
 2453 00dc 04F5BB56 		add	r6, r4, #5984
 2454 00e0 D6ED007A 		vldr.32	s15, [r6]
 351:Application/chassis_task.c ****         Chassis.VyTransfer = -user_sin(-Chassis.FollowTheta / RADIAN_COEF) * (Chassis.Vx + Chassis.
 2455              		.loc 1 351 124 view .LVU730
 2456 00e4 95ED007A 		vldr.32	s14, [r5]
 351:Application/chassis_task.c ****         Chassis.VyTransfer = -user_sin(-Chassis.FollowTheta / RADIAN_COEF) * (Chassis.Vx + Chassis.
 2457              		.loc 1 351 115 view .LVU731
 2458 00e8 67EE877A 		vmul.f32	s15, s15, s14
 351:Application/chassis_task.c ****         Chassis.VyTransfer = -user_sin(-Chassis.FollowTheta / RADIAN_COEF) * (Chassis.Vx + Chassis.
 2459              		.loc 1 351 136 view .LVU732
 2460 00ec 67EE8A7A 		vmul.f32	s15, s15, s20
 351:Application/chassis_task.c ****         Chassis.VyTransfer = -user_sin(-Chassis.FollowTheta / RADIAN_COEF) * (Chassis.Vx + Chassis.
 2461              		.loc 1 351 144 view .LVU733
 2462 00f0 67EEA97A 		vmul.f32	s15, s15, s19
 351:Application/chassis_task.c ****         Chassis.VyTransfer = -user_sin(-Chassis.FollowTheta / RADIAN_COEF) * (Chassis.Vx + Chassis.
 2463              		.loc 1 351 152 view .LVU734
 2464 00f4 87EE897A 		vdiv.f32	s14, s15, s18
 351:Application/chassis_task.c ****         Chassis.VyTransfer = -user_sin(-Chassis.FollowTheta / RADIAN_COEF) * (Chassis.Vx + Chassis.
 2465              		.loc 1 351 167 view .LVU735
 2466 00f8 27EE287A 		vmul.f32	s14, s14, s17
 351:Application/chassis_task.c ****         Chassis.VyTransfer = -user_sin(-Chassis.FollowTheta / RADIAN_COEF) * (Chassis.Vx + Chassis.
 2467              		.loc 1 351 171 view .LVU736
 2468 00fc C7EE086A 		vdiv.f32	s13, s14, s16
 351:Application/chassis_task.c ****         Chassis.VyTransfer = -user_sin(-Chassis.FollowTheta / RADIAN_COEF) * (Chassis.Vx + Chassis.
 2469              		.loc 1 351 89 view .LVU737
 2470 0100 07EE903A 		vmov	s15, r3	@ int
 2471 0104 F8EEE77A 		vcvt.f32.s32	s15, s15
 2472 0108 77EEA67A 		vadd.f32	s15, s15, s13
 351:Application/chassis_task.c ****         Chassis.VyTransfer = -user_sin(-Chassis.FollowTheta / RADIAN_COEF) * (Chassis.Vx + Chassis.
 2473              		.loc 1 351 75 view .LVU738
 2474 010c 60EE277A 		vmul.f32	s15, s0, s15
 350:Application/chassis_task.c ****                              user_sin(-Chassis.FollowTheta / RADIAN_COEF) * (Chassis.Vy + Chassis.F
 2475              		.loc 1 350 184 view .LVU739
 2476 0110 3BEE27BA 		vadd.f32	s22, s22, s15
 350:Application/chassis_task.c ****                              user_sin(-Chassis.FollowTheta / RADIAN_COEF) * (Chassis.Vy + Chassis.F
 2477              		.loc 1 350 28 view .LVU740
 2478 0114 84ED02BA 		vstr.32	s22, [r4, #8]
 352:Application/chassis_task.c ****                              user_cos(-Chassis.FollowTheta / RADIAN_COEF) * (Chassis.Vy + Chassis.F
 2479              		.loc 1 352 9 is_stmt 1 view .LVU741
 352:Application/chassis_task.c ****                              user_cos(-Chassis.FollowTheta / RADIAN_COEF) * (Chassis.Vy + Chassis.F
 2480              		.loc 1 352 48 is_stmt 0 view .LVU742
 2481 0118 94ED7B0A 		vldr.32	s0, [r4, #492]
 352:Application/chassis_task.c ****                              user_cos(-Chassis.FollowTheta / RADIAN_COEF) * (Chassis.Vy + Chassis.F
 2482              		.loc 1 352 40 view .LVU743
 2483 011c B1EE400A 		vneg.f32	s0, s0
 352:Application/chassis_task.c ****                              user_cos(-Chassis.FollowTheta / RADIAN_COEF) * (Chassis.Vy + Chassis.F
 2484              		.loc 1 352 31 view .LVU744
 2485 0120 80EE2A0A 		vdiv.f32	s0, s0, s21
 2486 0124 FFF7FEFF 		bl	arm_sin_f32
ARM GAS  C:\Users\86152\AppData\Local\Temp\ccWGVtEI.s 			page 73


 2487              	.LVL98:
 352:Application/chassis_task.c ****                              user_cos(-Chassis.FollowTheta / RADIAN_COEF) * (Chassis.Vy + Chassis.F
 2488              		.loc 1 352 86 view .LVU745
 2489 0128 B4F90030 		ldrsh	r3, [r4]
 2490 012c 0BEE103A 		vmov	s22, r3	@ int
 352:Application/chassis_task.c ****                              user_cos(-Chassis.FollowTheta / RADIAN_COEF) * (Chassis.Vy + Chassis.F
 2491              		.loc 1 352 99 view .LVU746
 2492 0130 D7ED007A 		vldr.32	s15, [r7]
 352:Application/chassis_task.c ****                              user_cos(-Chassis.FollowTheta / RADIAN_COEF) * (Chassis.Vy + Chassis.F
 2493              		.loc 1 352 125 view .LVU747
 2494 0134 95ED007A 		vldr.32	s14, [r5]
 352:Application/chassis_task.c ****                              user_cos(-Chassis.FollowTheta / RADIAN_COEF) * (Chassis.Vy + Chassis.F
 2495              		.loc 1 352 116 view .LVU748
 2496 0138 67EE877A 		vmul.f32	s15, s15, s14
 352:Application/chassis_task.c ****                              user_cos(-Chassis.FollowTheta / RADIAN_COEF) * (Chassis.Vy + Chassis.F
 2497              		.loc 1 352 137 view .LVU749
 2498 013c 67EE8A7A 		vmul.f32	s15, s15, s20
 352:Application/chassis_task.c ****                              user_cos(-Chassis.FollowTheta / RADIAN_COEF) * (Chassis.Vy + Chassis.F
 2499              		.loc 1 352 145 view .LVU750
 2500 0140 67EEA97A 		vmul.f32	s15, s15, s19
 352:Application/chassis_task.c ****                              user_cos(-Chassis.FollowTheta / RADIAN_COEF) * (Chassis.Vy + Chassis.F
 2501              		.loc 1 352 153 view .LVU751
 2502 0144 87EE897A 		vdiv.f32	s14, s15, s18
 352:Application/chassis_task.c ****                              user_cos(-Chassis.FollowTheta / RADIAN_COEF) * (Chassis.Vy + Chassis.F
 2503              		.loc 1 352 168 view .LVU752
 2504 0148 27EE287A 		vmul.f32	s14, s14, s17
 352:Application/chassis_task.c ****                              user_cos(-Chassis.FollowTheta / RADIAN_COEF) * (Chassis.Vy + Chassis.F
 2505              		.loc 1 352 172 view .LVU753
 2506 014c C7EE086A 		vdiv.f32	s13, s14, s16
 352:Application/chassis_task.c ****                              user_cos(-Chassis.FollowTheta / RADIAN_COEF) * (Chassis.Vy + Chassis.F
 2507              		.loc 1 352 90 view .LVU754
 2508 0150 F8EECB7A 		vcvt.f32.s32	s15, s22
 2509 0154 77EEA67A 		vadd.f32	s15, s15, s13
 352:Application/chassis_task.c ****                              user_cos(-Chassis.FollowTheta / RADIAN_COEF) * (Chassis.Vy + Chassis.F
 2510              		.loc 1 352 76 view .LVU755
 2511 0158 20EE67BA 		vnmul.f32	s22, s0, s15
 353:Application/chassis_task.c **** 
 2512              		.loc 1 353 47 view .LVU756
 2513 015c 94ED7B0A 		vldr.32	s0, [r4, #492]
 353:Application/chassis_task.c **** 
 2514              		.loc 1 353 39 view .LVU757
 2515 0160 B1EE400A 		vneg.f32	s0, s0
 353:Application/chassis_task.c **** 
 2516              		.loc 1 353 30 view .LVU758
 2517 0164 80EE2A0A 		vdiv.f32	s0, s0, s21
 2518 0168 FFF7FEFF 		bl	arm_cos_f32
 2519              	.LVL99:
 353:Application/chassis_task.c **** 
 2520              		.loc 1 353 85 view .LVU759
 2521 016c B4F90230 		ldrsh	r3, [r4, #2]
 353:Application/chassis_task.c **** 
 2522              		.loc 1 353 98 view .LVU760
 2523 0170 D6ED007A 		vldr.32	s15, [r6]
 353:Application/chassis_task.c **** 
 2524              		.loc 1 353 124 view .LVU761
 2525 0174 95ED007A 		vldr.32	s14, [r5]
 353:Application/chassis_task.c **** 
ARM GAS  C:\Users\86152\AppData\Local\Temp\ccWGVtEI.s 			page 74


 2526              		.loc 1 353 115 view .LVU762
 2527 0178 67EE877A 		vmul.f32	s15, s15, s14
 353:Application/chassis_task.c **** 
 2528              		.loc 1 353 136 view .LVU763
 2529 017c 67EE8A7A 		vmul.f32	s15, s15, s20
 353:Application/chassis_task.c **** 
 2530              		.loc 1 353 144 view .LVU764
 2531 0180 67EEA97A 		vmul.f32	s15, s15, s19
 353:Application/chassis_task.c **** 
 2532              		.loc 1 353 152 view .LVU765
 2533 0184 87EE897A 		vdiv.f32	s14, s15, s18
 353:Application/chassis_task.c **** 
 2534              		.loc 1 353 167 view .LVU766
 2535 0188 67EE288A 		vmul.f32	s17, s14, s17
 353:Application/chassis_task.c **** 
 2536              		.loc 1 353 171 view .LVU767
 2537 018c 88EE887A 		vdiv.f32	s14, s17, s16
 353:Application/chassis_task.c **** 
 2538              		.loc 1 353 89 view .LVU768
 2539 0190 07EE903A 		vmov	s15, r3	@ int
 2540 0194 F8EEE77A 		vcvt.f32.s32	s15, s15
 2541 0198 77EE877A 		vadd.f32	s15, s15, s14
 353:Application/chassis_task.c **** 
 2542              		.loc 1 353 75 view .LVU769
 2543 019c 60EE277A 		vmul.f32	s15, s0, s15
 352:Application/chassis_task.c ****                              user_cos(-Chassis.FollowTheta / RADIAN_COEF) * (Chassis.Vy + Chassis.F
 2544              		.loc 1 352 185 view .LVU770
 2545 01a0 3BEE27BA 		vadd.f32	s22, s22, s15
 352:Application/chassis_task.c ****                              user_cos(-Chassis.FollowTheta / RADIAN_COEF) * (Chassis.Vy + Chassis.F
 2546              		.loc 1 352 28 view .LVU771
 2547 01a4 84ED03BA 		vstr.32	s22, [r4, #12]
 355:Application/chassis_task.c ****         {
 2548              		.loc 1 355 9 is_stmt 1 view .LVU772
 355:Application/chassis_task.c ****         {
 2549              		.loc 1 355 20 is_stmt 0 view .LVU773
 2550 01a8 94F8D431 		ldrb	r3, [r4, #468]	@ zero_extendqisi2
 355:Application/chassis_task.c ****         {
 2551              		.loc 1 355 12 view .LVU774
 2552 01ac 012B     		cmp	r3, #1
 2553 01ae 49D1     		bne	.L144
 357:Application/chassis_task.c ****             tempTime_Sprint = USER_GetTick();
 2554              		.loc 1 357 13 is_stmt 1 view .LVU775
 357:Application/chassis_task.c ****             tempTime_Sprint = USER_GetTick();
 2555              		.loc 1 357 24 is_stmt 0 view .LVU776
 2556 01b0 A388     		ldrh	r3, [r4, #4]
 2557 01b2 5B00     		lsls	r3, r3, #1
 2558 01b4 A380     		strh	r3, [r4, #4]	@ movhi
 358:Application/chassis_task.c ****         }
 2559              		.loc 1 358 13 is_stmt 1 view .LVU777
 358:Application/chassis_task.c ****         }
 2560              		.loc 1 358 31 is_stmt 0 view .LVU778
 2561 01b6 FFF7FEFF 		bl	xTaskGetTickCount
 2562              	.LVL100:
 358:Application/chassis_task.c ****         }
 2563              		.loc 1 358 29 view .LVU779
 2564 01ba 1C4B     		ldr	r3, .L249+24
 2565 01bc 1860     		str	r0, [r3]
ARM GAS  C:\Users\86152\AppData\Local\Temp\ccWGVtEI.s 			page 75


 2566 01be 41E0     		b	.L144
 2567              	.L232:
 342:Application/chassis_task.c ****                 Chassis.Vr = PID_Calculate(&Chassis.RotateFollow, Chassis.FollowTheta, 0.0f);
 2568              		.loc 1 342 13 is_stmt 1 view .LVU780
 342:Application/chassis_task.c ****                 Chassis.Vr = PID_Calculate(&Chassis.RotateFollow, Chassis.FollowTheta, 0.0f);
 2569              		.loc 1 342 31 is_stmt 0 view .LVU781
 2570 01c0 164B     		ldr	r3, .L249+8
 2571 01c2 1B7B     		ldrb	r3, [r3, #12]	@ zero_extendqisi2
 342:Application/chassis_task.c ****                 Chassis.Vr = PID_Calculate(&Chassis.RotateFollow, Chassis.FollowTheta, 0.0f);
 2572              		.loc 1 342 16 view .LVU782
 2573 01c4 012B     		cmp	r3, #1
 2574 01c6 18D0     		beq	.L239
 346:Application/chassis_task.c ****                              remote_control.ch1 * Chassis.rcStickRotateRatio;
 2575              		.loc 1 346 17 is_stmt 1 view .LVU783
 346:Application/chassis_task.c ****                              remote_control.ch1 * Chassis.rcStickRotateRatio;
 2576              		.loc 1 346 30 is_stmt 0 view .LVU784
 2577 01c8 DFED190A 		vldr.32	s1, .L249+28
 2578 01cc 1948     		ldr	r0, .L249+32
 2579 01ce FFF7FEFF 		bl	PID_Calculate
 2580              	.LVL101:
 347:Application/chassis_task.c ****             }
 2581              		.loc 1 347 44 view .LVU785
 2582 01d2 124B     		ldr	r3, .L249+8
 2583 01d4 B3F90430 		ldrsh	r3, [r3, #4]
 2584 01d8 07EE903A 		vmov	s15, r3	@ int
 347:Application/chassis_task.c ****             }
 2585              		.loc 1 347 58 view .LVU786
 2586 01dc 0D4B     		ldr	r3, .L249
 2587 01de 93ED067A 		vldr.32	s14, [r3, #24]
 347:Application/chassis_task.c ****             }
 2588              		.loc 1 347 49 view .LVU787
 2589 01e2 F8EEE77A 		vcvt.f32.s32	s15, s15
 2590 01e6 67EE877A 		vmul.f32	s15, s15, s14
 346:Application/chassis_task.c ****                              remote_control.ch1 * Chassis.rcStickRotateRatio;
 2591              		.loc 1 346 94 view .LVU788
 2592 01ea 30EE270A 		vadd.f32	s0, s0, s15
 346:Application/chassis_task.c ****                              remote_control.ch1 * Chassis.rcStickRotateRatio;
 2593              		.loc 1 346 28 view .LVU789
 2594 01ee BDEEC00A 		vcvt.s32.f32	s0, s0
 2595 01f2 10EE102A 		vmov	r2, s0	@ int
 2596 01f6 9A80     		strh	r2, [r3, #4]	@ movhi
 2597 01f8 31E7     		b	.L153
 2598              	.L239:
 343:Application/chassis_task.c ****             else
 2599              		.loc 1 343 17 is_stmt 1 view .LVU790
 343:Application/chassis_task.c ****             else
 2600              		.loc 1 343 30 is_stmt 0 view .LVU791
 2601 01fa DFED0D0A 		vldr.32	s1, .L249+28
 2602 01fe 0D48     		ldr	r0, .L249+32
 2603 0200 FFF7FEFF 		bl	PID_Calculate
 2604              	.LVL102:
 343:Application/chassis_task.c ****             else
 2605              		.loc 1 343 28 view .LVU792
 2606 0204 BDEEC00A 		vcvt.s32.f32	s0, s0
 2607 0208 024B     		ldr	r3, .L249
 2608 020a 10EE102A 		vmov	r2, s0	@ int
 2609 020e 9A80     		strh	r2, [r3, #4]	@ movhi
ARM GAS  C:\Users\86152\AppData\Local\Temp\ccWGVtEI.s 			page 76


 2610 0210 25E7     		b	.L153
 2611              	.L250:
 2612 0212 00BF     		.align	2
 2613              	.L249:
 2614 0214 00000000 		.word	Chassis
 2615 0218 0AD7A33B 		.word	1000593162
 2616 021c 00000000 		.word	remote_control
 2617 0220 E12E6542 		.word	1113927393
 2618 0224 00009842 		.word	1117257728
 2619 0228 4F77563D 		.word	1029076815
 2620 022c 00000000 		.word	.LANCHOR17
 2621 0230 00000000 		.word	0
 2622 0234 D8150000 		.word	Chassis+5592
 2623              	.L147:
 363:Application/chassis_task.c ****         Chassis.VxTransfer = 0;
 2624              		.loc 1 363 9 is_stmt 1 view .LVU793
 363:Application/chassis_task.c ****         Chassis.VxTransfer = 0;
 2625              		.loc 1 363 20 is_stmt 0 view .LVU794
 2626 0238 C54B     		ldr	r3, .L251
 2627 023a 0022     		movs	r2, #0
 2628 023c 9A80     		strh	r2, [r3, #4]	@ movhi
 364:Application/chassis_task.c ****         Chassis.VyTransfer = 0;
 2629              		.loc 1 364 9 is_stmt 1 view .LVU795
 364:Application/chassis_task.c ****         Chassis.VyTransfer = 0;
 2630              		.loc 1 364 28 is_stmt 0 view .LVU796
 2631 023e 0022     		movs	r2, #0
 2632 0240 9A60     		str	r2, [r3, #8]	@ float
 365:Application/chassis_task.c ****         break;
 2633              		.loc 1 365 9 is_stmt 1 view .LVU797
 365:Application/chassis_task.c ****         break;
 2634              		.loc 1 365 28 is_stmt 0 view .LVU798
 2635 0242 DA60     		str	r2, [r3, #12]	@ float
 366:Application/chassis_task.c **** 
 2636              		.loc 1 366 9 is_stmt 1 view .LVU799
 2637              	.L144:
 686:Application/chassis_task.c ****         user_count_time = 0.0f;
 2638              		.loc 1 686 5 view .LVU800
 686:Application/chassis_task.c ****         user_count_time = 0.0f;
 2639              		.loc 1 686 16 is_stmt 0 view .LVU801
 2640 0244 C24B     		ldr	r3, .L251
 2641 0246 93F8D431 		ldrb	r3, [r3, #468]	@ zero_extendqisi2
 686:Application/chassis_task.c ****         user_count_time = 0.0f;
 2642              		.loc 1 686 8 view .LVU802
 2643 024a 042B     		cmp	r3, #4
 2644 024c 02D0     		beq	.L213
 687:Application/chassis_task.c **** 
 2645              		.loc 1 687 9 is_stmt 1 view .LVU803
 687:Application/chassis_task.c **** 
 2646              		.loc 1 687 25 is_stmt 0 view .LVU804
 2647 024e C14B     		ldr	r3, .L251+4
 2648 0250 0022     		movs	r2, #0
 2649 0252 1A60     		str	r2, [r3]	@ float
 2650              	.L213:
 689:Application/chassis_task.c ****         Chassis.Vr = remote_control.ch1 * Chassis.rcStickRotateRatio;
 2651              		.loc 1 689 5 is_stmt 1 view .LVU805
 689:Application/chassis_task.c ****         Chassis.Vr = remote_control.ch1 * Chassis.rcStickRotateRatio;
 2652              		.loc 1 689 9 is_stmt 0 view .LVU806
ARM GAS  C:\Users\86152\AppData\Local\Temp\ccWGVtEI.s 			page 77


 2653 0254 0020     		movs	r0, #0
 2654 0256 FFF7FEFF 		bl	is_TOE_Error
 2655              	.LVL103:
 689:Application/chassis_task.c ****         Chassis.Vr = remote_control.ch1 * Chassis.rcStickRotateRatio;
 2656              		.loc 1 689 8 view .LVU807
 2657 025a 80B1     		cbz	r0, .L214
 690:Application/chassis_task.c **** 
 2658              		.loc 1 690 9 is_stmt 1 view .LVU808
 690:Application/chassis_task.c **** 
 2659              		.loc 1 690 36 is_stmt 0 view .LVU809
 2660 025c BE4B     		ldr	r3, .L251+8
 2661 025e B3F90430 		ldrsh	r3, [r3, #4]
 2662 0262 07EE903A 		vmov	s15, r3	@ int
 690:Application/chassis_task.c **** 
 2663              		.loc 1 690 50 view .LVU810
 2664 0266 BA4B     		ldr	r3, .L251
 2665 0268 93ED067A 		vldr.32	s14, [r3, #24]
 690:Application/chassis_task.c **** 
 2666              		.loc 1 690 41 view .LVU811
 2667 026c F8EEE77A 		vcvt.f32.s32	s15, s15
 2668 0270 67EE877A 		vmul.f32	s15, s15, s14
 690:Application/chassis_task.c **** 
 2669              		.loc 1 690 20 view .LVU812
 2670 0274 FDEEE77A 		vcvt.s32.f32	s15, s15
 2671 0278 17EE902A 		vmov	r2, s15	@ int
 2672 027c 9A80     		strh	r2, [r3, #4]	@ movhi
 2673              	.L214:
 709:Application/chassis_task.c ****     Chassis.V2 = -(Chassis.VxTransfer - Chassis.VyTransfer) * Chassis.VelocityRatio + Gimbal_Positi
 2674              		.loc 1 709 5 is_stmt 1 view .LVU813
 709:Application/chassis_task.c ****     Chassis.V2 = -(Chassis.VxTransfer - Chassis.VyTransfer) * Chassis.VelocityRatio + Gimbal_Positi
 2675              		.loc 1 709 28 is_stmt 0 view .LVU814
 2676 027e B44C     		ldr	r4, .L251
 2677 0280 94ED025A 		vldr.32	s10, [r4, #8]
 709:Application/chassis_task.c ****     Chassis.V2 = -(Chassis.VxTransfer - Chassis.VyTransfer) * Chassis.VelocityRatio + Gimbal_Positi
 2678              		.loc 1 709 20 view .LVU815
 2679 0284 B1EE456A 		vneg.f32	s12, s10
 709:Application/chassis_task.c ****     Chassis.V2 = -(Chassis.VxTransfer - Chassis.VyTransfer) * Chassis.VelocityRatio + Gimbal_Positi
 2680              		.loc 1 709 49 view .LVU816
 2681 0288 D4ED036A 		vldr.32	s13, [r4, #12]
 709:Application/chassis_task.c ****     Chassis.V2 = -(Chassis.VxTransfer - Chassis.VyTransfer) * Chassis.VelocityRatio + Gimbal_Positi
 2682              		.loc 1 709 40 view .LVU817
 2683 028c 36EE666A 		vsub.f32	s12, s12, s13
 709:Application/chassis_task.c ****     Chassis.V2 = -(Chassis.VxTransfer - Chassis.VyTransfer) * Chassis.VelocityRatio + Gimbal_Positi
 2684              		.loc 1 709 71 view .LVU818
 2685 0290 D4ED055A 		vldr.32	s11, [r4, #20]
 709:Application/chassis_task.c ****     Chassis.V2 = -(Chassis.VxTransfer - Chassis.VyTransfer) * Chassis.VelocityRatio + Gimbal_Positi
 2686              		.loc 1 709 62 view .LVU819
 2687 0294 26EE656A 		vnmul.f32	s12, s12, s11
 709:Application/chassis_task.c ****     Chassis.V2 = -(Chassis.VxTransfer - Chassis.VyTransfer) * Chassis.VelocityRatio + Gimbal_Positi
 2688              		.loc 1 709 126 view .LVU820
 2689 0298 B4F90430 		ldrsh	r3, [r4, #4]
 709:Application/chassis_task.c ****     Chassis.V2 = -(Chassis.VxTransfer - Chassis.VyTransfer) * Chassis.VelocityRatio + Gimbal_Positi
 2690              		.loc 1 709 117 view .LVU821
 2691 029c 07EE903A 		vmov	s15, r3	@ int
 2692 02a0 B8EEE77A 		vcvt.f32.s32	s14, s15
 2693 02a4 AD4A     		ldr	r2, .L251+12
 2694 02a6 D2ED007A 		vldr.32	s15, [r2]
ARM GAS  C:\Users\86152\AppData\Local\Temp\ccWGVtEI.s 			page 78


 2695 02aa 27EE277A 		vmul.f32	s14, s14, s15
 709:Application/chassis_task.c ****     Chassis.V2 = -(Chassis.VxTransfer - Chassis.VyTransfer) * Chassis.VelocityRatio + Gimbal_Positi
 2696              		.loc 1 709 130 view .LVU822
 2697 02ae F2EE047A 		vmov.f32	s15, #1.0e+1
 2698 02b2 27EE277A 		vmul.f32	s14, s14, s15
 709:Application/chassis_task.c ****     Chassis.V2 = -(Chassis.VxTransfer - Chassis.VyTransfer) * Chassis.VelocityRatio + Gimbal_Positi
 2699              		.loc 1 709 86 view .LVU823
 2700 02b6 36EE076A 		vadd.f32	s12, s12, s14
 709:Application/chassis_task.c ****     Chassis.V2 = -(Chassis.VxTransfer - Chassis.VyTransfer) * Chassis.VelocityRatio + Gimbal_Positi
 2701              		.loc 1 709 16 view .LVU824
 2702 02ba 84ED556A 		vstr.32	s12, [r4, #340]
 710:Application/chassis_task.c ****     Chassis.V3 = -(Chassis.VxTransfer + Chassis.VyTransfer) * Chassis.VelocityRatio + Chassis.Vr * 
 2703              		.loc 1 710 5 is_stmt 1 view .LVU825
 710:Application/chassis_task.c ****     Chassis.V3 = -(Chassis.VxTransfer + Chassis.VyTransfer) * Chassis.VelocityRatio + Chassis.Vr * 
 2704              		.loc 1 710 39 is_stmt 0 view .LVU826
 2705 02be 75EE667A 		vsub.f32	s15, s10, s13
 710:Application/chassis_task.c ****     Chassis.V3 = -(Chassis.VxTransfer + Chassis.VyTransfer) * Chassis.VelocityRatio + Chassis.Vr * 
 2706              		.loc 1 710 61 view .LVU827
 2707 02c2 67EEE57A 		vnmul.f32	s15, s15, s11
 710:Application/chassis_task.c ****     Chassis.V3 = -(Chassis.VxTransfer + Chassis.VyTransfer) * Chassis.VelocityRatio + Chassis.Vr * 
 2708              		.loc 1 710 85 view .LVU828
 2709 02c6 37EE277A 		vadd.f32	s14, s14, s15
 710:Application/chassis_task.c ****     Chassis.V3 = -(Chassis.VxTransfer + Chassis.VyTransfer) * Chassis.VelocityRatio + Chassis.Vr * 
 2710              		.loc 1 710 16 view .LVU829
 2711 02ca 84ED567A 		vstr.32	s14, [r4, #344]
 711:Application/chassis_task.c ****     Chassis.V4 = -(-Chassis.VxTransfer + Chassis.VyTransfer) * Chassis.VelocityRatio + Chassis.Vr *
 2712              		.loc 1 711 5 is_stmt 1 view .LVU830
 711:Application/chassis_task.c ****     Chassis.V4 = -(-Chassis.VxTransfer + Chassis.VyTransfer) * Chassis.VelocityRatio + Chassis.Vr *
 2713              		.loc 1 711 39 is_stmt 0 view .LVU831
 2714 02ce 35EE267A 		vadd.f32	s14, s10, s13
 711:Application/chassis_task.c ****     Chassis.V4 = -(-Chassis.VxTransfer + Chassis.VyTransfer) * Chassis.VelocityRatio + Chassis.Vr *
 2715              		.loc 1 711 61 view .LVU832
 2716 02d2 27EE657A 		vnmul.f32	s14, s14, s11
