ARM GAS  C:\Users\86152\AppData\Local\Temp\ccWGVtEI.s 			page 1


   1              		.cpu cortex-m4
   2              		.arch armv7e-m
   3              		.fpu fpv4-sp-d16
   4              		.eabi_attribute 27, 1
   5              		.eabi_attribute 28, 1
   6              		.eabi_attribute 20, 1
   7              		.eabi_attribute 21, 1
   8              		.eabi_attribute 23, 3
   9              		.eabi_attribute 24, 1
  10              		.eabi_attribute 25, 1
  11              		.eabi_attribute 26, 1
  12              		.eabi_attribute 30, 1
  13              		.eabi_attribute 34, 1
  14              		.eabi_attribute 18, 4
  15              		.file	"chassis_task.c"
  16              		.text
  17              	.Ltext0:
  18              		.cfi_sections	.debug_frame
  19              		.section	.text.Max_4,"ax",%progbits
  20              		.align	1
  21              		.syntax unified
  22              		.thumb
  23              		.thumb_func
  25              	Max_4:
  26              	.LVL0:
  27              	.LFB180:
  28              		.file 1 "Application/chassis_task.c"
   1:Application/chassis_task.c **** #include "chassis_task.h"
   2:Application/chassis_task.c **** 
   3:Application/chassis_task.c **** uint8_t chassis_debug_mode = 1;
   4:Application/chassis_task.c **** uint32_t RC_Lost = 0;
   5:Application/chassis_task.c **** Chassis_t Chassis = {0};
   6:Application/chassis_task.c **** static uint8_t data[6];
   7:Application/chassis_task.c **** uint32_t Chassis_DWT_Count = 0;
   8:Application/chassis_task.c **** uint32_t tempTime_Sprint = 0;
   9:Application/chassis_task.c **** uint32_t time_temp = 0;
  10:Application/chassis_task.c **** float Vxy_Coef = 1.0f;
  11:Application/chassis_task.c **** float V_coef = 1.0f;
  12:Application/chassis_task.c **** uint32_t nanCount = 0;
  13:Application/chassis_task.c **** uint32_t debugvalue = 103;
  14:Application/chassis_task.c **** float preFollowTheta;
  15:Application/chassis_task.c **** float SpinningValidTheta;
  16:Application/chassis_task.c **** uint8_t use_spinningmove = 1;
  17:Application/chassis_task.c **** float SpinningValidVx;
  18:Application/chassis_task.c **** float SpinningValidVy;
  19:Application/chassis_task.c **** float TempVxTransfer;
  20:Application/chassis_task.c **** float TempVyTransfer;
  21:Application/chassis_task.c **** float TempA = 0.1f;
  22:Application/chassis_task.c **** uint32_t InPosCount = 0;
  23:Application/chassis_task.c **** uint8_t InPosFlag = 0;
  24:Application/chassis_task.c **** float TempAerialX;
  25:Application/chassis_task.c **** float TempAerialY;
  26:Application/chassis_task.c **** 
  27:Application/chassis_task.c **** uint16_t outpost_HP, sentry_HP;
  28:Application/chassis_task.c **** 
  29:Application/chassis_task.c **** float Stamp;
  30:Application/chassis_task.c **** int32_t Vx_ref = 0;
ARM GAS  C:\Users\86152\AppData\Local\Temp\ccWGVtEI.s 			page 2


  31:Application/chassis_task.c **** int32_t Vy_ref = 0;
  32:Application/chassis_task.c **** int32_t last_Vx;
  33:Application/chassis_task.c **** int32_t last_Vy;
  34:Application/chassis_task.c **** 
  35:Application/chassis_task.c **** uint8_t AMP = 50;
  36:Application/chassis_task.c **** uint16_t VR = 600;
  37:Application/chassis_task.c **** float MAX_RPM = 8000;
  38:Application/chassis_task.c **** 
  39:Application/chassis_task.c **** float Vx_k = 1000; // 最大阶跃速度比
  40:Application/chassis_task.c **** float Vy_k = 1000;
  41:Application/chassis_task.c **** float Vr_k = 300;
  42:Application/chassis_task.c **** float Vr_MAX = 150;
  43:Application/chassis_task.c **** float c[3] = {1, 1, 1};
  44:Application/chassis_task.c **** 
  45:Application/chassis_task.c **** uint8_t count_press = 0;
  46:Application/chassis_task.c **** static float dt = 0,
  47:Application/chassis_task.c ****              t = 0;
  48:Application/chassis_task.c **** float Gimbal_Position_Modification = 1.0f;
  49:Application/chassis_task.c **** 
  50:Application/chassis_task.c **** float Tempvy;
  51:Application/chassis_task.c **** float Tempvx;
  52:Application/chassis_task.c **** 
  53:Application/chassis_task.c **** float user_count_time = 0;
  54:Application/chassis_task.c **** static uint16_t Last_7_HP = 600;
  55:Application/chassis_task.c **** uint8_t walktodes = 0;
  56:Application/chassis_task.c **** uint8_t method = 0;
  57:Application/chassis_task.c **** uint8_t last_game_status = 0;
  58:Application/chassis_task.c **** uint8_t lostaim = 0;
  59:Application/chassis_task.c **** 
  60:Application/chassis_task.c **** uint16_t ReachCount = 0;
  61:Application/chassis_task.c **** uint8_t ReachFinished = 0;
  62:Application/chassis_task.c **** float ChassisMotionEst_F[36] = {
  63:Application/chassis_task.c ****     1, 0, 0, 0, 0, 0,
  64:Application/chassis_task.c ****     0, 1, 0, 0, 0, 0,
  65:Application/chassis_task.c ****     0, 0, 1, 0, 0, 0,
  66:Application/chassis_task.c ****     0, 0, 0, 1, 0, 0,
  67:Application/chassis_task.c ****     0, 0, 0, 0, 1, 0,
  68:Application/chassis_task.c ****     0, 0, 0, 0, 0, 1};
  69:Application/chassis_task.c **** float ChassisMotionEst_P[36];
  70:Application/chassis_task.c **** float ChassisMotionEst_Pinit[36] = {
  71:Application/chassis_task.c ****     1000, 0.1, 0.1, 0.1, 0.1, 0.1,
  72:Application/chassis_task.c ****     0.1, 10000, 0.1, 0.1, 0.1, 0.1,
  73:Application/chassis_task.c ****     0.1, 0.1, 10000, 0.1, 0.1, 0.1,
  74:Application/chassis_task.c ****     0.1, 0.1, 0.1, 1000, 0.1, 0.1,
  75:Application/chassis_task.c ****     0.1, 0.1, 0.1, 0.1, 10000, 0.1,
  76:Application/chassis_task.c ****     0.1, 0.1, 0.1, 0.1, 0.1, 10000};
  77:Application/chassis_task.c **** float ChassisMotionEst_Sigma[2] = {100, 100};
  78:Application/chassis_task.c **** float ChassisMotionEst_Q[36] = {
  79:Application/chassis_task.c ****     10, 0, 0, 0, 0, 0,
  80:Application/chassis_task.c ****     0, 1000, 0, 0, 0, 0,
  81:Application/chassis_task.c ****     0, 0, 10, 0, 0, 0,
  82:Application/chassis_task.c ****     0, 0, 0, 10, 0, 0,
  83:Application/chassis_task.c ****     0, 0, 0, 0, 1000, 0,
  84:Application/chassis_task.c ****     0, 0, 0, 0, 0, 10};
  85:Application/chassis_task.c **** float ChassisMotionEst_R[16] = {
  86:Application/chassis_task.c ****     100000, 0, 0, 0,
  87:Application/chassis_task.c ****     0, 100, 0, 0,
ARM GAS  C:\Users\86152\AppData\Local\Temp\ccWGVtEI.s 			page 3


  88:Application/chassis_task.c ****     0, 0, 100000, 0,
  89:Application/chassis_task.c ****     0, 0, 0, 100};
  90:Application/chassis_task.c **** float ChassisMotionEst_H[24] = {
  91:Application/chassis_task.c ****     0, 1, 0, 0, 0, 0,
  92:Application/chassis_task.c ****     0, 0, 1, 0, 0, 0,
  93:Application/chassis_task.c ****     0, 0, 0, 0, 1, 0,
  94:Application/chassis_task.c ****     0, 0, 0, 0, 0, 1};
  95:Application/chassis_task.c **** float ChiSquare;
  96:Application/chassis_task.c **** float xhat_data_obsv[6];
  97:Application/chassis_task.c **** 
  98:Application/chassis_task.c **** uint8_t aimassist_online = 0;
  99:Application/chassis_task.c **** uint32_t aimssistLoseCount = 0;
 100:Application/chassis_task.c **** 
 101:Application/chassis_task.c **** static void Chassis_Get_Theta(void);     // 获取底盘与云台偏角
 102:Application/chassis_task.c **** static void Chassis_Set_Mode(void);      // 设置底盘运动模式
 103:Application/chassis_task.c **** static void Chassis_Get_CtrlValue(void); // 处理来自摇杆与键盘的控制数据
 104:Application/chassis_task.c **** static void Chassis_Set_Control(void);   // 底盘运动解算以及PID计算
 105:Application/chassis_task.c **** static void Send_Chassis_Current(void);  // 发送底盘电机控制电流
 106:Application/chassis_task.c **** static float Max_4(float num1, float num2, float num3, float num4);
 107:Application/chassis_task.c **** static void abs_control(void);
 108:Application/chassis_task.c **** static void Chassis_Power_Limit(void);
 109:Application/chassis_task.c **** static void Chassis_Power_Exp(void); // 计算可能的底盘功率
 110:Application/chassis_task.c **** static void Velocity_MAXLimit(void); // 最大速度限制
 111:Application/chassis_task.c **** static void ChassisMotionEst_Init(void);
 112:Application/chassis_task.c **** static void ChassisMotionEst_Update(float dt);
 113:Application/chassis_task.c **** 
 114:Application/chassis_task.c **** void Chassis_Init(void)
 115:Application/chassis_task.c **** {
 116:Application/chassis_task.c ****     Chassis.VelocityRatio = VELOCITY_RATIO;
 117:Application/chassis_task.c **** 
 118:Application/chassis_task.c ****     Chassis.rcStickRotateRatio = 0;
 119:Application/chassis_task.c **** 
 120:Application/chassis_task.c ****     Chassis.GravityCenter_Adjustment = GRAVUTYCENTER_ADJUSTMENT;
 121:Application/chassis_task.c **** 
 122:Application/chassis_task.c ****     Chassis.PowerControl.Power_correction_gain = POWER_GAIN;
 123:Application/chassis_task.c ****     Chassis.PowerControl.LowVoltage_Gain = LOWVOLTAGE_GAIN;
 124:Application/chassis_task.c **** 
 125:Application/chassis_task.c ****     TD_Init(&Chassis.ChassisVxTD, 1000, 0.01f);
 126:Application/chassis_task.c ****     TD_Init(&Chassis.ChassisVyTD, 1000, 0.01f);
 127:Application/chassis_task.c **** 
 128:Application/chassis_task.c ****     Chassis.TotalTheta = (Gimbal.YawMotor.total_angle - Gimbal.YawMotor.zero_offset) * ENCODERCOEF 
 129:Application/chassis_task.c **** 
 130:Application/chassis_task.c ****     Chassis.Theta = loop_float_constrain((Chassis.TotalTheta + Gimbal.YawMotor.offset_angle * ENCOD
 131:Application/chassis_task.c **** 
 132:Application/chassis_task.c ****     Chassis.YawCorrectionScale = 0;
 133:Application/chassis_task.c **** 
 134:Application/chassis_task.c ****     // 电机速度环PID计算
 135:Application/chassis_task.c ****     for (uint8_t i = 0; i < 4; i++)
 136:Application/chassis_task.c ****     {
 137:Application/chassis_task.c ****         PID_Init(
 138:Application/chassis_task.c ****             &Chassis.ChassisMotor[i].PID_Velocity, 16384, 16384, 0, 15, 30, 0, 500, 100, 0.005, 0, 
 139:Application/chassis_task.c ****         Chassis.ChassisMotor[i].Max_Out = 12000.0f;
 140:Application/chassis_task.c ****     }
 141:Application/chassis_task.c ****     // 底盘跟随云台PID初始化
 142:Application/chassis_task.c ****     PID_Init(&Chassis.RotateFollow, 300, 100, 0, 8, 0, 0, 0,
 143:Application/chassis_task.c ****              0, 0, 0, 1,
 144:Application/chassis_task.c ****              Integral_Limit | Derivative_On_Measurement | OutputFilter | DerivativeFilter);
ARM GAS  C:\Users\86152\AppData\Local\Temp\ccWGVtEI.s 			page 4


 145:Application/chassis_task.c **** 
 146:Application/chassis_task.c ****     PID_Init(&Chassis.SpinningValid, 50, 30, 0, 0.1, 0, 0, 0,
 147:Application/chassis_task.c ****              0, 0, 0, 1,
 148:Application/chassis_task.c ****              Integral_Limit | Derivative_On_Measurement | OutputFilter | DerivativeFilter);
 149:Application/chassis_task.c **** 
 150:Application/chassis_task.c ****     TD_Init(&Chassis.SpinningTD, 100000, 0.001);
 151:Application/chassis_task.c **** 
 152:Application/chassis_task.c ****     Matrix_Init(&Chassis.ChassisMotionEst.H, 4, 6, (float *)Chassis.ChassisMotionEst.H_data);
 153:Application/chassis_task.c ****     Matrix_Init(&Chassis.ChassisMotionEst.HT, 6, 4, (float *)Chassis.ChassisMotionEst.HT_data);
 154:Application/chassis_task.c ****     ChassisMotionEst_Init();
 155:Application/chassis_task.c ****     Chassis.IsSpining = 0;
 156:Application/chassis_task.c **** }
 157:Application/chassis_task.c **** 
 158:Application/chassis_task.c **** static void ChassisMotionEst_Init(void)
 159:Application/chassis_task.c **** {
 160:Application/chassis_task.c ****     // Chassis.ChassisMotionEst.UseAutoAdjustment = TRUE;
 161:Application/chassis_task.c ****     Kalman_Filter_Init(&Chassis.ChassisMotionEst, 6, 0, 4);
 162:Application/chassis_task.c ****     Chassis.ChassisMotionEst.MeasurementMap[0] = 2;
 163:Application/chassis_task.c ****     Chassis.ChassisMotionEst.MeasurementMap[1] = 3;
 164:Application/chassis_task.c ****     Chassis.ChassisMotionEst.MeasurementMap[2] = 5;
 165:Application/chassis_task.c ****     Chassis.ChassisMotionEst.MeasurementMap[3] = 6;
 166:Application/chassis_task.c ****     Chassis.ChassisMotionEst.MeasurementDegree[0] = 1;
 167:Application/chassis_task.c ****     Chassis.ChassisMotionEst.MeasurementDegree[1] = 1;
 168:Application/chassis_task.c ****     Chassis.ChassisMotionEst.MeasurementDegree[2] = 1;
 169:Application/chassis_task.c ****     Chassis.ChassisMotionEst.MeasurementDegree[3] = 1;
 170:Application/chassis_task.c ****     // Chassis.ChassisMotionEst.MatR_DiagonalElements[0] = 100;
 171:Application/chassis_task.c ****     // Chassis.ChassisMotionEst.MatR_DiagonalElements[1] = 100;
 172:Application/chassis_task.c ****     // Chassis.ChassisMotionEst.MatR_DiagonalElements[2] = 100;
 173:Application/chassis_task.c ****     // Chassis.ChassisMotionEst.MatR_DiagonalElements[3] = 100;
 174:Application/chassis_task.c ****     memcpy(Chassis.ChassisMotionEst.F_data, ChassisMotionEst_F, sizeof(ChassisMotionEst_F));
 175:Application/chassis_task.c ****     memcpy(Chassis.ChassisMotionEst.P_data, ChassisMotionEst_Pinit, sizeof(ChassisMotionEst_Pinit))
 176:Application/chassis_task.c ****     memcpy(Chassis.ChassisMotionEst.Q_data, ChassisMotionEst_Q, sizeof(ChassisMotionEst_Q));
 177:Application/chassis_task.c ****     memcpy(Chassis.ChassisMotionEst.R_data, ChassisMotionEst_R, sizeof(ChassisMotionEst_R));
 178:Application/chassis_task.c ****     memcpy(Chassis.ChassisMotionEst.H_data, ChassisMotionEst_H, sizeof(ChassisMotionEst_H));
 179:Application/chassis_task.c ****     // Chassis.ChassisMotionEst.User_Func0_f = ChassisMotionEst_Tuning;
 180:Application/chassis_task.c ****     // Chassis.ChassisMotionEst.User_Func3_f = ChassisMotionEst_ChiSquare_Test;
 181:Application/chassis_task.c **** }
 182:Application/chassis_task.c **** 
 183:Application/chassis_task.c **** void Chassis_Control(void)
 184:Application/chassis_task.c **** {
 185:Application/chassis_task.c ****     dt = DWT_GetDeltaT(&Chassis_DWT_Count);
 186:Application/chassis_task.c ****     t += dt;
 187:Application/chassis_task.c ****     ChassisMotionEst_Update(dt);
 188:Application/chassis_task.c ****     // 获取底盘与云台偏角
 189:Application/chassis_task.c ****     Chassis_Get_Theta();
 190:Application/chassis_task.c ****     // 设置底盘运动模式
 191:Application/chassis_task.c ****     Chassis_Set_Mode();
 192:Application/chassis_task.c ****     // 处理来自摇杆与键盘的控制数据
 193:Application/chassis_task.c ****     Chassis_Get_CtrlValue();
 194:Application/chassis_task.c ****     // 底盘运动解算以及PID计算
 195:Application/chassis_task.c ****     Chassis_Set_Control();
 196:Application/chassis_task.c ****     // 发送底盘电机控制电流
 197:Application/chassis_task.c ****     Send_Chassis_Current();
 198:Application/chassis_task.c ****     // 发送云台手数据
 199:Application/chassis_task.c ****     SendAerialData(&hcan2, &TempAerialX, &TempAerialY, &map_interactivity.commd_keyboard);
 200:Application/chassis_task.c **** }
 201:Application/chassis_task.c **** 
ARM GAS  C:\Users\86152\AppData\Local\Temp\ccWGVtEI.s 			page 5


 202:Application/chassis_task.c **** static void Chassis_Get_Theta(void)
 203:Application/chassis_task.c **** {
 204:Application/chassis_task.c ****     // 底盘与云台偏角获取
 205:Application/chassis_task.c ****     Chassis.TotalTheta = (Gimbal.YawMotor.total_angle - Gimbal.YawMotor.zero_offset) * ENCODERCOEF 
 206:Application/chassis_task.c **** 
 207:Application/chassis_task.c ****     Chassis.Theta = loop_float_constrain((Chassis.TotalTheta +
 208:Application/chassis_task.c ****                                           Gimbal.YawMotor.offset_angle * ENCODERCOEF * YAW_REDUCTIO
 209:Application/chassis_task.c ****                                          -180, 180);
 210:Application/chassis_task.c **** 
 211:Application/chassis_task.c ****     if (is_TOE_Error(GIMBAL_YAW_MOTOR_TOE))
 212:Application/chassis_task.c ****     {
 213:Application/chassis_task.c ****         Chassis.TotalTheta = 0;
 214:Application/chassis_task.c ****         Chassis.Theta = 0;
 215:Application/chassis_task.c ****     }
 216:Application/chassis_task.c **** 
 217:Application/chassis_task.c ****     Chassis.FollowTheta = float_deadband(Chassis.Theta, -0.005f, 0.005f);
 218:Application/chassis_task.c ****     Insert_thetaFrame(Chassis.thetaFrame, Chassis.FollowTheta, INS_GetTimeline());
 219:Application/chassis_task.c **** }
 220:Application/chassis_task.c **** 
 221:Application/chassis_task.c **** static void Chassis_Get_CtrlValue(void)
 222:Application/chassis_task.c **** {
 223:Application/chassis_task.c ****     static float Temp_Vx, Temp_Vy; // 速度的期望值
 224:Application/chassis_task.c ****     static float tempVal;
 225:Application/chassis_task.c ****     static float RC = 0.000001f;
 226:Application/chassis_task.c **** 
 227:Application/chassis_task.c ****     // 功率限制与实际值不符时
 228:Application/chassis_task.c ****     if (robot_state.chassis_power_limit >= 10240) // 数据包体积的最大值
 229:Application/chassis_task.c ****         robot_state.chassis_power_limit /= 256;
 230:Application/chassis_task.c ****     // 功率限幅
 231:Application/chassis_task.c ****     if (robot_state.chassis_power_limit > 120) // 数据包的体积的最小值
 232:Application/chassis_task.c ****         robot_state.chassis_power_limit = 120;
 233:Application/chassis_task.c ****     // 功率最低限制
 234:Application/chassis_task.c ****     if (robot_state.chassis_power_limit == 0)
 235:Application/chassis_task.c ****         robot_state.chassis_power_limit = 45;
 236:Application/chassis_task.c **** 
 237:Application/chassis_task.c ****     if (robot_state.chassis_power_limit != 0)
 238:Application/chassis_task.c ****         Chassis.VelocityRatio = float_constrain(robot_state.chassis_power_limit / 10.0f + 2, 3, 7);
 239:Application/chassis_task.c **** 
 240:Application/chassis_task.c ****     Temp_Vx = 0;
 241:Application/chassis_task.c ****     Temp_Vy = 0;
 242:Application/chassis_task.c ****     Temp_Vx += remote_control.ch3;
 243:Application/chassis_task.c ****     Temp_Vy += remote_control.ch4 == -660 ? 0 : remote_control.ch4; // ch4 != -660 ?
 244:Application/chassis_task.c **** 
 245:Application/chassis_task.c ****     if (remote_control.switch_left == Switch_Up)
 246:Application/chassis_task.c ****     {
 247:Application/chassis_task.c ****         Temp_Vx *= 2;
 248:Application/chassis_task.c ****         Temp_Vy *= 2;
 249:Application/chassis_task.c ****     }
 250:Application/chassis_task.c **** 
 251:Application/chassis_task.c ****     if (fabsf(Temp_Vx) > 1e-3f) // 上升部分 1e-3f ~~ 0
 252:Application/chassis_task.c ****     {
 253:Application/chassis_task.c ****         if (Chassis.Vx * Temp_Vx < 0)
 254:Application/chassis_task.c ****             Chassis.Vx = 0;
 255:Application/chassis_task.c **** 
 256:Application/chassis_task.c ****         tempVal = (Temp_Vx - Chassis.Vx) / (RC + dt);
 257:Application/chassis_task.c ****         if (tempVal > Vx_k)
 258:Application/chassis_task.c ****             tempVal = Vx_k;
ARM GAS  C:\Users\86152\AppData\Local\Temp\ccWGVtEI.s 			page 6


 259:Application/chassis_task.c ****         else if (tempVal < -Vx_k)
 260:Application/chassis_task.c ****             tempVal = -Vx_k;
 261:Application/chassis_task.c ****         Chassis.Vx += tempVal * dt;
 262:Application/chassis_task.c ****     }
 263:Application/chassis_task.c ****     else
 264:Application/chassis_task.c ****     {
 265:Application/chassis_task.c ****         tempVal = (Temp_Vx - Chassis.Vx) / (0.01f + dt);
 266:Application/chassis_task.c ****         Chassis.Vx += tempVal * dt;
 267:Application/chassis_task.c ****     }
 268:Application/chassis_task.c **** 
 269:Application/chassis_task.c ****     if (fabsf(Temp_Vy) > 1e-3f)
 270:Application/chassis_task.c ****     {
 271:Application/chassis_task.c ****         if (Chassis.Vy * Temp_Vy < 0)
 272:Application/chassis_task.c ****             Chassis.Vy = 0;
 273:Application/chassis_task.c ****         tempVal = (Temp_Vy - Chassis.Vy) / (RC + dt);
 274:Application/chassis_task.c ****         if (tempVal > Vy_k)
 275:Application/chassis_task.c ****             tempVal = Vy_k;
 276:Application/chassis_task.c ****         else if (tempVal < -Vy_k)
 277:Application/chassis_task.c ****             tempVal = -Vy_k;
 278:Application/chassis_task.c ****         Chassis.Vy += tempVal * dt;
 279:Application/chassis_task.c ****     }
 280:Application/chassis_task.c ****     else
 281:Application/chassis_task.c ****     {
 282:Application/chassis_task.c ****         tempVal = (Temp_Vy - Chassis.Vy) / (0.01f + dt);
 283:Application/chassis_task.c ****         Chassis.Vy += tempVal * dt;
 284:Application/chassis_task.c ****     }
 285:Application/chassis_task.c **** 
 286:Application/chassis_task.c ****     Chassis.Vx = float_constrain(Chassis.Vx, -400.0f, 400.0f);
 287:Application/chassis_task.c ****     Chassis.Vy = float_constrain(Chassis.Vy, -400.0f, 400.0f);
 288:Application/chassis_task.c **** }
 289:Application/chassis_task.c **** 
 290:Application/chassis_task.c **** static void Chassis_Set_Mode(void)
 291:Application/chassis_task.c **** {
 292:Application/chassis_task.c ****     static uint16_t LastKeyCode = 0;
 293:Application/chassis_task.c **** 
 294:Application/chassis_task.c ****     if (is_TOE_Error(CHASSIS_MOTOR1_TOE) && is_TOE_Error(CHASSIS_MOTOR2_TOE) && is_TOE_Error(CHASSI
 295:Application/chassis_task.c ****         Chassis.Mode = Silence_Mode;
 296:Application/chassis_task.c **** 
 297:Application/chassis_task.c ****     // 拨杆切换运动模式
 298:Application/chassis_task.c ****     switch (remote_control.switch_right)
 299:Application/chassis_task.c ****     {
 300:Application/chassis_task.c ****     case Switch_Up: //
 301:Application/chassis_task.c ****         Chassis.Mode = Spinning_Mode;
 302:Application/chassis_task.c ****         //		Chassis.FollowCoef = 0;
 303:Application/chassis_task.c ****         break;
 304:Application/chassis_task.c **** 
 305:Application/chassis_task.c ****     case Switch_Middle: // All from Keyboard?
 306:Application/chassis_task.c ****         Chassis.Mode = Follow_Mode;
 307:Application/chassis_task.c ****         Chassis.FollowCoef = 0;
 308:Application/chassis_task.c ****         break;
 309:Application/chassis_task.c **** 
 310:Application/chassis_task.c ****     case Switch_Down: // All from Keyboard?
 311:Application/chassis_task.c ****         Chassis.Mode = Follow_Mode;
 312:Application/chassis_task.c ****         Chassis.FollowCoef = 0;
 313:Application/chassis_task.c ****         break;
 314:Application/chassis_task.c ****     }
 315:Application/chassis_task.c ****     if ((remote_control.switch_left == Switch_Down) && (remote_control.switch_right == Switch_Up))
ARM GAS  C:\Users\86152\AppData\Local\Temp\ccWGVtEI.s 			page 7


 316:Application/chassis_task.c ****     {
 317:Application/chassis_task.c ****         Chassis.Mode = Debug_Mode;
 318:Application/chassis_task.c ****     }
 319:Application/chassis_task.c **** 
 320:Application/chassis_task.c ****     AerialKeyBoardCmd();
 321:Application/chassis_task.c **** 
 322:Application/chassis_task.c ****     last_game_status = game_status.game_progress;
 323:Application/chassis_task.c ****     LastKeyCode = remote_control.key_code;
 324:Application/chassis_task.c **** }
 325:Application/chassis_task.c **** 
 326:Application/chassis_task.c **** static void Chassis_Set_Control(void)
 327:Application/chassis_task.c **** {
 328:Application/chassis_task.c ****     static float tempVr, posX100, posY100;
 329:Application/chassis_task.c ****     static float SpiningDistance, spinnig_center0_temp, spinnig_center1_temp, move_ratio;
 330:Application/chassis_task.c ****     static uint32_t center_count, edge_count, data_novalid_count, reach_count;
 331:Application/chassis_task.c ****     static uint8_t thetaFrameNum, is_velocity;
 332:Application/chassis_task.c ****     static uint8_t reach_num = 0;
 333:Application/chassis_task.c **** 
 334:Application/chassis_task.c ****     switch (Chassis.Mode)
 335:Application/chassis_task.c ****     {
 336:Application/chassis_task.c ****     case Follow_Mode:
 337:Application/chassis_task.c ****     FOLLOW:
 338:Application/chassis_task.c ****         if (fabsf(Chassis.FollowTheta) < 0.005f) // 判断是否正对头部
 339:Application/chassis_task.c ****             Chassis.Vr = remote_control.ch1 * Chassis.rcStickRotateRatio;
 340:Application/chassis_task.c ****         else
 341:Application/chassis_task.c ****         {
 342:Application/chassis_task.c ****             if (remote_control.switch_left == Switch_Up)
 343:Application/chassis_task.c ****                 Chassis.Vr = PID_Calculate(&Chassis.RotateFollow, Chassis.FollowTheta, 0.0f);
 344:Application/chassis_task.c ****             else
 345:Application/chassis_task.c ****             {
 346:Application/chassis_task.c ****                 Chassis.Vr = PID_Calculate(&Chassis.RotateFollow, Chassis.FollowTheta, 0.0f) +
 347:Application/chassis_task.c ****                              remote_control.ch1 * Chassis.rcStickRotateRatio;
 348:Application/chassis_task.c ****             }
 349:Application/chassis_task.c ****         }
 350:Application/chassis_task.c ****         Chassis.VxTransfer = user_cos(-Chassis.FollowTheta / RADIAN_COEF) * (Chassis.Vx + Chassis.F
 351:Application/chassis_task.c ****                              user_sin(-Chassis.FollowTheta / RADIAN_COEF) * (Chassis.Vy + Chassis.F
 352:Application/chassis_task.c ****         Chassis.VyTransfer = -user_sin(-Chassis.FollowTheta / RADIAN_COEF) * (Chassis.Vx + Chassis.
 353:Application/chassis_task.c ****                              user_cos(-Chassis.FollowTheta / RADIAN_COEF) * (Chassis.Vy + Chassis.F
 354:Application/chassis_task.c **** 
 355:Application/chassis_task.c ****         if (Chassis.Mode == Spinning_Mode)
 356:Application/chassis_task.c ****         {
 357:Application/chassis_task.c ****             Chassis.Vr *= 2;
 358:Application/chassis_task.c ****             tempTime_Sprint = USER_GetTick();
 359:Application/chassis_task.c ****         }
 360:Application/chassis_task.c ****         break;
 361:Application/chassis_task.c **** 
 362:Application/chassis_task.c ****     case Silence_Mode:
 363:Application/chassis_task.c ****         Chassis.Vr = 0;
 364:Application/chassis_task.c ****         Chassis.VxTransfer = 0;
 365:Application/chassis_task.c ****         Chassis.VyTransfer = 0;
 366:Application/chassis_task.c ****         break;
 367:Application/chassis_task.c **** 
 368:Application/chassis_task.c ****     case Spinning_Mode:
 369:Application/chassis_task.c ****         if (robot_state.robot_id <= 7) // red
 370:Application/chassis_task.c ****         {
 371:Application/chassis_task.c ****             outpost_HP = game_robot_HP.red_outpost_HP;
 372:Application/chassis_task.c ****             sentry_HP = game_robot_HP.red_7_robot_HP;
ARM GAS  C:\Users\86152\AppData\Local\Temp\ccWGVtEI.s 			page 8


 373:Application/chassis_task.c ****         }
 374:Application/chassis_task.c ****         else
 375:Application/chassis_task.c ****         {
 376:Application/chassis_task.c ****             outpost_HP = game_robot_HP.blue_outpost_HP;
 377:Application/chassis_task.c ****             sentry_HP = game_robot_HP.blue_7_robot_HP;
 378:Application/chassis_task.c ****         }
 379:Application/chassis_task.c **** 
 380:Application/chassis_task.c ****         if (use_spinningmove == 1)
 381:Application/chassis_task.c ****         {
 382:Application/chassis_task.c ****             if ((game_status.game_progress == 4) || (outpost_HP != 1500 && outpost_HP != 0))
 383:Application/chassis_task.c ****             {
 384:Application/chassis_task.c ****                 tempVr = 0.0f; // 0
 385:Application/chassis_task.c ****                 is_velocity = 1;
 386:Application/chassis_task.c ****                 Chassis.PlanX = Chassis.PlanX * 0.1 / (0.1 + dt) + Chassis.PlanX1000 / 10 * dt / (0
 387:Application/chassis_task.c ****                 Chassis.PlanY = Chassis.PlanY * 0.1 / (0.1 + dt) + Chassis.PlanY1000 / 10 * dt / (0
 388:Application/chassis_task.c ****                 Chassis.spinnig_center[0] = Chassis.PlanX;
 389:Application/chassis_task.c ****                 Chassis.spinnig_center[1] = Chassis.PlanY;
 390:Application/chassis_task.c ****                 move_ratio = 6.6f; // 2.2
 391:Application/chassis_task.c ****             }
 392:Application/chassis_task.c ****         }
 393:Application/chassis_task.c ****         else if (use_spinningmove == 2)
 394:Application/chassis_task.c ****         {
 395:Application/chassis_task.c ****             if (reach_num != 6)
 396:Application/chassis_task.c ****                 tempVr = 250.0f;
 397:Application/chassis_task.c **** 
 398:Application/chassis_task.c ****             is_velocity = 1;
 399:Application/chassis_task.c **** 
 400:Application/chassis_task.c ****             posX100 = Chassis.posX * 0.002 / (0.002 + dt) + Chassis.posX1000 / 10 * dt / (0.002 + d
 401:Application/chassis_task.c ****             posY100 = Chassis.posY * 0.002 / (0.002 + dt) + Chassis.posY1000 / 10 * dt / (0.002 + d
 402:Application/chassis_task.c **** 
 403:Application/chassis_task.c ****             move_ratio = 0.12;
 404:Application/chassis_task.c ****             switch (reach_num)
 405:Application/chassis_task.c ****             {
 406:Application/chassis_task.c ****             case 0:
 407:Application/chassis_task.c ****                 Chassis.spinnig_center[0] = -162.1f;
 408:Application/chassis_task.c ****                 Chassis.spinnig_center[1] = -223.5f;
 409:Application/chassis_task.c ****                 break;
 410:Application/chassis_task.c **** 
 411:Application/chassis_task.c ****             case 1:
 412:Application/chassis_task.c ****                 Chassis.spinnig_center[0] = -333.1f;
 413:Application/chassis_task.c ****                 Chassis.spinnig_center[1] = -301.8f;
 414:Application/chassis_task.c ****                 break;
 415:Application/chassis_task.c **** 
 416:Application/chassis_task.c ****             case 2:
 417:Application/chassis_task.c ****                 Chassis.spinnig_center[0] = -480.6f;
 418:Application/chassis_task.c ****                 Chassis.spinnig_center[1] = -301.8f;
 419:Application/chassis_task.c ****                 break;
 420:Application/chassis_task.c **** 
 421:Application/chassis_task.c ****             case 3:
 422:Application/chassis_task.c ****                 Chassis.spinnig_center[0] = -698.6f;
 423:Application/chassis_task.c ****                 Chassis.spinnig_center[1] = -301.8f;
 424:Application/chassis_task.c ****                 break;
 425:Application/chassis_task.c **** 
 426:Application/chassis_task.c ****             case 4:
 427:Application/chassis_task.c ****                 Chassis.spinnig_center[0] = -670.1f;
 428:Application/chassis_task.c ****                 Chassis.spinnig_center[1] = -104.4f;
 429:Application/chassis_task.c ****                 break;
ARM GAS  C:\Users\86152\AppData\Local\Temp\ccWGVtEI.s 			page 9


 430:Application/chassis_task.c **** 
 431:Application/chassis_task.c ****             case 5:
 432:Application/chassis_task.c ****                 Chassis.spinnig_center[0] = -415.7f;
 433:Application/chassis_task.c ****                 Chassis.spinnig_center[1] = -104.4f;
 434:Application/chassis_task.c ****                 break;
 435:Application/chassis_task.c ****             }
 436:Application/chassis_task.c ****             arm_sqrt_f32((posX100 - Chassis.spinnig_center[0]) * (posX100 - Chassis.spinnig_center[
 437:Application/chassis_task.c ****                              (posY100 - Chassis.spinnig_center[1]) * (posY100 - Chassis.spinnig_cen
 438:Application/chassis_task.c ****                          &SpiningDistance);
 439:Application/chassis_task.c **** 
 440:Application/chassis_task.c ****             if (SpiningDistance < 300.0f)
 441:Application/chassis_task.c ****                 reach_count++;
 442:Application/chassis_task.c ****             else
 443:Application/chassis_task.c ****                 reach_count = 0;
 444:Application/chassis_task.c **** 
 445:Application/chassis_task.c ****             if (reach_count > 2000)
 446:Application/chassis_task.c ****             {
 447:Application/chassis_task.c ****                 if (reach_num == 0)
 448:Application/chassis_task.c ****                 {
 449:Application/chassis_task.c ****                     reach_num = 1;
 450:Application/chassis_task.c ****                     reach_count = 0;
 451:Application/chassis_task.c ****                 }
 452:Application/chassis_task.c ****                 else if (reach_num == 1)
 453:Application/chassis_task.c ****                 {
 454:Application/chassis_task.c ****                     reach_num = 2;
 455:Application/chassis_task.c ****                     reach_count = 0;
 456:Application/chassis_task.c ****                 }
 457:Application/chassis_task.c ****                 else if (reach_num == 2)
 458:Application/chassis_task.c ****                 {
 459:Application/chassis_task.c ****                     reach_num = 3;
 460:Application/chassis_task.c ****                     reach_count = 0;
 461:Application/chassis_task.c ****                 }
 462:Application/chassis_task.c ****                 else if (reach_num == 3)
 463:Application/chassis_task.c ****                 {
 464:Application/chassis_task.c ****                     reach_num = 4;
 465:Application/chassis_task.c ****                     reach_count = 0;
 466:Application/chassis_task.c ****                 }
 467:Application/chassis_task.c ****                 else if (reach_num == 4)
 468:Application/chassis_task.c ****                 {
 469:Application/chassis_task.c ****                     reach_num = 5;
 470:Application/chassis_task.c ****                     reach_count = 0;
 471:Application/chassis_task.c ****                 }
 472:Application/chassis_task.c ****                 else if (reach_num == 5)
 473:Application/chassis_task.c ****                 {
 474:Application/chassis_task.c ****                     reach_num = 6;
 475:Application/chassis_task.c ****                     reach_count = 0;
 476:Application/chassis_task.c ****                 }
 477:Application/chassis_task.c ****             }
 478:Application/chassis_task.c **** 
 479:Application/chassis_task.c ****             if (reach_num == 6)
 480:Application/chassis_task.c ****             {
 481:Application/chassis_task.c ****                 tempVr = 450.0f;
 482:Application/chassis_task.c ****                 spinnig_center0_temp = -415.7f;
 483:Application/chassis_task.c ****                 spinnig_center1_temp = -99.4f;
 484:Application/chassis_task.c **** 
 485:Application/chassis_task.c ****                 Chassis.spinnig_center[0] = spinnig_center0_temp - 40.0f * arm_sin_f32(t * pi / 2) 
 486:Application/chassis_task.c ****                 Chassis.spinnig_center[1] = spinnig_center1_temp;
ARM GAS  C:\Users\86152\AppData\Local\Temp\ccWGVtEI.s 			page 10


 487:Application/chassis_task.c ****                 move_ratio = 0.35;
 488:Application/chassis_task.c ****             }
 489:Application/chassis_task.c ****         }
 490:Application/chassis_task.c ****         else
 491:Application/chassis_task.c ****         {
 492:Application/chassis_task.c ****             if (outpost_HP < 200 || sentry_HP != 1000)
 493:Application/chassis_task.c ****             {
 494:Application/chassis_task.c ****                 arm_sqrt_f32((Chassis.posX1000 - Chassis.spinnig_center[0]) * (Chassis.posX1000 - C
 495:Application/chassis_task.c ****                                  (Chassis.posY1000 - Chassis.spinnig_center[1]) * (Chassis.posY1000
 496:Application/chassis_task.c ****                              &SpiningDistance);
 497:Application/chassis_task.c **** 
 498:Application/chassis_task.c ****                 if (SpiningDistance < 600.0f)
 499:Application/chassis_task.c ****                     center_count++;
 500:Application/chassis_task.c ****                 else
 501:Application/chassis_task.c ****                     center_count = 0;
 502:Application/chassis_task.c **** 
 503:Application/chassis_task.c ****                 if (center_count > 2500 && SpiningDistance < 300.0f)
 504:Application/chassis_task.c ****                 {
 505:Application/chassis_task.c ****                     tempVr = 700.0f;
 506:Application/chassis_task.c ****                     is_velocity = 0;
 507:Application/chassis_task.c ****                 }
 508:Application/chassis_task.c ****                 else if (SpiningDistance < 1500.0f)
 509:Application/chassis_task.c ****                 {
 510:Application/chassis_task.c ****                     tempVr = 450.0f;
 511:Application/chassis_task.c ****                     is_velocity = 1;
 512:Application/chassis_task.c ****                 }
 513:Application/chassis_task.c **** 
 514:Application/chassis_task.c ****                 if (SpiningDistance > 1500.0f && SpiningDistance < 5000.0f)
 515:Application/chassis_task.c ****                     edge_count++;
 516:Application/chassis_task.c ****                 else
 517:Application/chassis_task.c ****                     edge_count = 0;
 518:Application/chassis_task.c **** 
 519:Application/chassis_task.c ****                 if (edge_count > 2000)
 520:Application/chassis_task.c ****                 {
 521:Application/chassis_task.c ****                     tempVr = 450.0f;
 522:Application/chassis_task.c ****                     is_velocity = 1;
 523:Application/chassis_task.c ****                     Chassis.spinnig_center[0] = Chassis.posX;
 524:Application/chassis_task.c ****                     Chassis.spinnig_center[1] = Chassis.posY;
 525:Application/chassis_task.c ****                 }
 526:Application/chassis_task.c **** 
 527:Application/chassis_task.c ****                 if (SpiningDistance > 10000.0f)
 528:Application/chassis_task.c ****                     data_novalid_count++;
 529:Application/chassis_task.c ****                 else
 530:Application/chassis_task.c ****                     data_novalid_count = 0;
 531:Application/chassis_task.c **** 
 532:Application/chassis_task.c ****                 if (data_novalid_count > 500)
 533:Application/chassis_task.c ****                 {
 534:Application/chassis_task.c ****                     tempVr = 700.0f;
 535:Application/chassis_task.c ****                     is_velocity = 0;
 536:Application/chassis_task.c ****                 }
 537:Application/chassis_task.c ****             }
 538:Application/chassis_task.c ****             else
 539:Application/chassis_task.c ****             {
 540:Application/chassis_task.c ****                 tempVr = 150.0f;
 541:Application/chassis_task.c ****                 is_velocity = 1;
 542:Application/chassis_task.c ****             }
 543:Application/chassis_task.c ****         }
ARM GAS  C:\Users\86152\AppData\Local\Temp\ccWGVtEI.s 			page 11


 544:Application/chassis_task.c **** 
 545:Application/chassis_task.c ****         // Chassis.posX1000 = int16_deadband(Chassis.posX1000, -50, 50);
 546:Application/chassis_task.c ****         // Chassis.posY1000 = int16_deadband(Chassis.posY1000, -50, 50);
 547:Application/chassis_task.c ****         Chassis.posX = Chassis.posX * 0.002 / (0.002 + dt) + Chassis.posX1000 / 10.0f * dt / (0.002
 548:Application/chassis_task.c ****         Chassis.posY = Chassis.posY * 0.002 / (0.002 + dt) + Chassis.posY1000 / 10.0f * dt / (0.002
 549:Application/chassis_task.c ****         Chassis.posZ = Chassis.posZ1000 / 1000.0f;
 550:Application/chassis_task.c **** 
 551:Application/chassis_task.c ****         if ((fabs(Chassis.posX - Chassis.PlanX) <= 15) && (fabs(Chassis.posY - Chassis.PlanY) <= 15
 552:Application/chassis_task.c ****         {
 553:Application/chassis_task.c ****             InPosCount++;
 554:Application/chassis_task.c ****             if (InPosCount >= 500)
 555:Application/chassis_task.c ****             {
 556:Application/chassis_task.c ****                 InPosFlag = 1;
 557:Application/chassis_task.c ****                 InPosCount = 500;
 558:Application/chassis_task.c ****             }
 559:Application/chassis_task.c ****         }
 560:Application/chassis_task.c ****         else
 561:Application/chassis_task.c ****         {
 562:Application/chassis_task.c ****             InPosCount = 0;
 563:Application/chassis_task.c ****             InPosFlag = 0;
 564:Application/chassis_task.c ****         }
 565:Application/chassis_task.c **** 
 566:Application/chassis_task.c ****         Chassis.Vr = Chassis.Vr * 0.2f / (0.2f + dt) + tempVr * dt / (0.2f + dt);
 567:Application/chassis_task.c ****         Chassis.Vr = float_constrain(Chassis.Vr, 0.0f, 1000.0f);
 568:Application/chassis_task.c **** 
 569:Application/chassis_task.c ****         SpinningValidVx = PID_Calculate(&Chassis.SpinningValid, Chassis.posX, Chassis.spinnig_cente
 570:Application/chassis_task.c ****         SpinningValidVy = PID_Calculate(&Chassis.SpinningValid, Chassis.posY, Chassis.spinnig_cente
 571:Application/chassis_task.c **** 
 572:Application/chassis_task.c ****         thetaFrameNum = Find_thetaFrame(Chassis.thetaFrame, (uint32_t)(INS_GetTimeline() - debugval
 573:Application/chassis_task.c ****         preFollowTheta = Chassis.thetaFrame[thetaFrameNum].FollowTheta / RADIAN_COEF;
 574:Application/chassis_task.c ****         SpinningValidTheta = STD_RADIAN(-preFollowTheta + Chassis.posZ);
 575:Application/chassis_task.c **** 
 576:Application/chassis_task.c ****         Chassis.VxTransfer = user_cos(SpinningValidTheta) * (Chassis.Vx + SpinningValidVx * 10.0f *
 577:Application/chassis_task.c ****                              user_sin(SpinningValidTheta) * (Chassis.Vy + SpinningValidVy * 10.0f *
 578:Application/chassis_task.c ****         Chassis.VyTransfer = -user_sin(SpinningValidTheta) * (Chassis.Vx + SpinningValidVx * 10.0f 
 579:Application/chassis_task.c ****                              user_cos(SpinningValidTheta) * (Chassis.Vy + SpinningValidVy * 10.0f *
 580:Application/chassis_task.c **** 
 581:Application/chassis_task.c ****         Chassis.VxTransfer *= move_ratio;
 582:Application/chassis_task.c ****         Chassis.VyTransfer *= move_ratio;
 583:Application/chassis_task.c ****         break;
 584:Application/chassis_task.c **** 
 585:Application/chassis_task.c ****     case Side_Mode:
 586:Application/chassis_task.c ****         Chassis.Vr = 0;
 587:Application/chassis_task.c ****         Chassis.FollowTheta = 0.0f;
 588:Application/chassis_task.c ****         Chassis.VxTransfer = user_cos(-Chassis.FollowTheta / RADIAN_COEF) * Chassis.Vx +
 589:Application/chassis_task.c ****                              user_sin(-Chassis.FollowTheta / RADIAN_COEF) * Chassis.Vy;
 590:Application/chassis_task.c ****         Chassis.VyTransfer = -user_sin(-Chassis.FollowTheta / RADIAN_COEF) * Chassis.Vx +
 591:Application/chassis_task.c ****                              user_cos(-Chassis.FollowTheta / RADIAN_COEF) * Chassis.Vy;
 592:Application/chassis_task.c ****         break;
 593:Application/chassis_task.c ****     case Count_Mode:
 594:Application/chassis_task.c ****         // if (game_status.game_progress == 4)
 595:Application/chassis_task.c ****         // {
 596:Application/chassis_task.c ****         // if (Last_game_status != 4 && game_status.game_progress == 4 && method != 1 && method != 
 597:Application/chassis_task.c ****         // {
 598:Application/chassis_task.c ****         //     walktodes = 1;
 599:Application/chassis_task.c ****         //     method = 4;
 600:Application/chassis_task.c ****         // }
ARM GAS  C:\Users\86152\AppData\Local\Temp\ccWGVtEI.s 			page 12


 601:Application/chassis_task.c **** 
 602:Application/chassis_task.c ****         //                if ((method == 1 || method == 2 || method == 3 || method == 4) && walktod
 603:Application/chassis_task.c ****         //                {
 604:Application/chassis_task.c ****         //                    Chassis.Vr = 0;
 605:Application/chassis_task.c ****         //                    Chassis.VyTransfer = PID_Calculate(&MiniPC_CtrlFrame.PID_Follow, Chas
 606:Application/chassis_task.c ****         //                }
 607:Application/chassis_task.c **** 
 608:Application/chassis_task.c ****         //                if (!walktodes)
 609:Application/chassis_task.c ****         //                    Chassis.Vr = 0;
 610:Application/chassis_task.c **** 
 611:Application/chassis_task.c ****         //                if (fabsf(Chassis.Position[1] - 304.0f) < 5.0f)
 612:Application/chassis_task.c ****         //                    ReachCount++;
 613:Application/chassis_task.c ****         user_count_time += dt;
 614:Application/chassis_task.c ****         //        if (aimassist_online == 1 && lostaim == 0)
 615:Application/chassis_task.c ****         //        {
 616:Application/chassis_task.c ****         aimssistLoseCount = 0;
 617:Application/chassis_task.c ****         if (ReachFinished == 0)
 618:Application/chassis_task.c ****         {
 619:Application/chassis_task.c ****             Chassis.FollowCoef = 1;
 620:Application/chassis_task.c ****             if (Chassis.geto_des == 0)
 621:Application/chassis_task.c ****             {
 622:Application/chassis_task.c ****                 if (Chassis.IsSpining)
 623:Application/chassis_task.c ****                 {
 624:Application/chassis_task.c ****                     // tempVr = 220.0f;
 625:Application/chassis_task.c ****                     Chassis.Vr = 220.0f;
 626:Application/chassis_task.c ****                 }
 627:Application/chassis_task.c ****                 else
 628:Application/chassis_task.c ****                 {
 629:Application/chassis_task.c ****                     Chassis.Vr = 0.0f;
 630:Application/chassis_task.c ****                 }
 631:Application/chassis_task.c ****             }
 632:Application/chassis_task.c ****             if (Chassis.geto_des == 1)
 633:Application/chassis_task.c ****             {
 634:Application/chassis_task.c ****                 ReachCount++;
 635:Application/chassis_task.c ****             }
 636:Application/chassis_task.c ****             if (ReachCount > 9)
 637:Application/chassis_task.c ****             {
 638:Application/chassis_task.c ****                 ReachFinished = 1;
 639:Application/chassis_task.c ****                 ReachCount = 0;
 640:Application/chassis_task.c ****             }
 641:Application/chassis_task.c ****         }
 642:Application/chassis_task.c ****         else // ReachFinished == 1
 643:Application/chassis_task.c ****         {
 644:Application/chassis_task.c ****             Chassis.FollowCoef = 0;
 645:Application/chassis_task.c ****             if (Chassis.geto_des == 1)
 646:Application/chassis_task.c ****             {
 647:Application/chassis_task.c ****                 Chassis.Vr = 750.0f;
 648:Application/chassis_task.c ****             }
 649:Application/chassis_task.c ****             else // Chassis.geto_des == 0
 650:Application/chassis_task.c ****             {
 651:Application/chassis_task.c ****                 ReachCount++;
 652:Application/chassis_task.c ****             }
 653:Application/chassis_task.c ****             if (ReachCount > 5)
 654:Application/chassis_task.c ****             {
 655:Application/chassis_task.c ****                 ReachFinished = 0;
 656:Application/chassis_task.c ****                 // Chassis.Vr = 0;
 657:Application/chassis_task.c ****                 ReachCount = 0;
ARM GAS  C:\Users\86152\AppData\Local\Temp\ccWGVtEI.s 			page 13


 658:Application/chassis_task.c ****             }
 659:Application/chassis_task.c ****         }
 660:Application/chassis_task.c ****         //        }
 661:Application/chassis_task.c ****         //        else
 662:Application/chassis_task.c ****         //        {
 663:Application/chassis_task.c ****         //            aimssistLoseCount++;
 664:Application/chassis_task.c ****         //			  Chassis.FollowCoef = 0;
 665:Application/chassis_task.c ****         //        }
 666:Application/chassis_task.c **** 
 667:Application/chassis_task.c ****         //        if (aimssistLoseCount > 10000)
 668:Application/chassis_task.c ****         //        {
 669:Application/chassis_task.c ****         //            tempVr = 650.0f;
 670:Application/chassis_task.c ****         //            Chassis.Vr = TD_Calculate(&Chassis.SpinningTD, tempVr);
 671:Application/chassis_task.c ****         //            lostaim = 1;
 672:Application/chassis_task.c ****         //			Chassis.FollowCoef = 0;
 673:Application/chassis_task.c ****         //    }
 674:Application/chassis_task.c **** 
 675:Application/chassis_task.c ****         Chassis.FollowXVelocity = (Chassis.FollowXVelocity1000 / 10.0f) * dt / (dt + 0.005f) + Chas
 676:Application/chassis_task.c ****         Chassis.FollowXVelocity = float_constrain(Chassis.FollowXVelocity, -20.25f, 20.25f);
 677:Application/chassis_task.c ****         Chassis.FollowYVelocity = (Chassis.FollowYVelocity1000 / 10.0f) * dt / (dt + 0.005f) + Chas
 678:Application/chassis_task.c ****         Chassis.FollowYVelocity = float_constrain(Chassis.FollowYVelocity, -20.25f, 20.25f);
 679:Application/chassis_task.c ****         Chassis.VxTransfer = user_cos(-Chassis.FollowTheta / RADIAN_COEF) * (Chassis.Vx + Chassis.F
 680:Application/chassis_task.c ****                              user_sin(-Chassis.FollowTheta / RADIAN_COEF) * (Chassis.Vy + Chassis.F
 681:Application/chassis_task.c ****         Chassis.VyTransfer = -user_sin(-Chassis.FollowTheta / RADIAN_COEF) * (Chassis.Vx + Chassis.
 682:Application/chassis_task.c ****                              user_cos(-Chassis.FollowTheta / RADIAN_COEF) * (Chassis.Vy + Chassis.F
 683:Application/chassis_task.c ****         last_game_status = game_status.game_progress;
 684:Application/chassis_task.c ****         break;
 685:Application/chassis_task.c ****     }
 686:Application/chassis_task.c ****     if (Chassis.Mode != Count_Mode)
 687:Application/chassis_task.c ****         user_count_time = 0.0f;
 688:Application/chassis_task.c **** 
 689:Application/chassis_task.c ****     if (is_TOE_Error(GIMBAL_YAW_MOTOR_TOE)) // 如果YAW轴电机掉线（云台无法旋转），
 690:Application/chassis_task.c ****         Chassis.Vr = remote_control.ch1 * Chassis.rcStickRotateRatio;
 691:Application/chassis_task.c **** 
 692:Application/chassis_task.c ****     // Chassis.posX1000 = int16_deadband(Chassis.posX1000, -100, 100);
 693:Application/chassis_task.c ****     // Chassis.posY1000 = int16_deadband(Chassis.posY1000, -100, 100);
 694:Application/chassis_task.c ****     // Chassis.posX = Chassis.posX * 0.002 / (0.002 + dt) + Chassis.posX1000 / 10 * dt / (0.002 + d
 695:Application/chassis_task.c ****     // Chassis.posY = Chassis.posY * 0.002 / (0.002 + dt) + Chassis.posY1000 / 10 * dt / (0.002 + d
 696:Application/chassis_task.c ****     // Chassis.posZ = Chassis.posZ1000 / 1000.0f;
 697:Application/chassis_task.c ****     // float SpinningValidVx = PID_Calculate(&Chassis.SpinningValid, Chassis.posX, 0.0f);
 698:Application/chassis_task.c ****     // float SpinningValidVy = PID_Calculate(&Chassis.SpinningValid, Chassis.posY, 0.0f);
 699:Application/chassis_task.c **** 
 700:Application/chassis_task.c ****     // thetaFrameNum = Find_thetaFrame(Chassis.thetaFrame, (uint32_t)(INS_GetTimeline() - debugvalu
 701:Application/chassis_task.c ****     // preFollowTheta = Chassis.thetaFrame[thetaFrameNum].FollowTheta / RADIAN_COEF;
 702:Application/chassis_task.c ****     // SpinningValidTheta = STD_RADIAN(-preFollowTheta + Chassis.posZ);
 703:Application/chassis_task.c **** 
 704:Application/chassis_task.c ****     // Chassis.VxTransfer = user_cos(SpinningValidTheta) * (Chassis.Vx + SpinningValidVx * 10.0f * 
 705:Application/chassis_task.c ****     //                      user_sin(SpinningValidTheta) * (Chassis.Vy + SpinningValidVy * 10.0f * 
 706:Application/chassis_task.c ****     // Chassis.VyTransfer = -user_sin(SpinningValidTheta) * (Chassis.Vx + SpinningValidVx * 10.0f *
 707:Application/chassis_task.c ****     //                      user_cos(SpinningValidTheta) * (Chassis.Vy + SpinningValidVy * 10.0f * 
 708:Application/chassis_task.c **** 
 709:Application/chassis_task.c ****     Chassis.V1 = -(-Chassis.VxTransfer - Chassis.VyTransfer) * Chassis.VelocityRatio + Gimbal_Posit
 710:Application/chassis_task.c ****     Chassis.V2 = -(Chassis.VxTransfer - Chassis.VyTransfer) * Chassis.VelocityRatio + Gimbal_Positi
 711:Application/chassis_task.c ****     Chassis.V3 = -(Chassis.VxTransfer + Chassis.VyTransfer) * Chassis.VelocityRatio + Chassis.Vr * 
 712:Application/chassis_task.c ****     Chassis.V4 = -(-Chassis.VxTransfer + Chassis.VyTransfer) * Chassis.VelocityRatio + Chassis.Vr *
 713:Application/chassis_task.c **** 
 714:Application/chassis_task.c ****     // 云台重心不一样的修正
ARM GAS  C:\Users\86152\AppData\Local\Temp\ccWGVtEI.s 			page 14


 715:Application/chassis_task.c ****     Chassis.V3 *= Chassis.GravityCenter_Adjustment;
 716:Application/chassis_task.c ****     Chassis.V4 *= Chassis.GravityCenter_Adjustment;
 717:Application/chassis_task.c **** 
 718:Application/chassis_task.c ****     Velocity_MAXLimit();
 719:Application/chassis_task.c **** 
 720:Application/chassis_task.c ****     Motor_Speed_Calculate(&Chassis.ChassisMotor[0], Chassis.ChassisMotor[0].Velocity_RPM, Chassis.V
 721:Application/chassis_task.c ****     Motor_Speed_Calculate(&Chassis.ChassisMotor[1], Chassis.ChassisMotor[1].Velocity_RPM, Chassis.V
 722:Application/chassis_task.c ****     Motor_Speed_Calculate(&Chassis.ChassisMotor[2], Chassis.ChassisMotor[2].Velocity_RPM, Chassis.V
 723:Application/chassis_task.c ****     Motor_Speed_Calculate(&Chassis.ChassisMotor[3], Chassis.ChassisMotor[3].Velocity_RPM, Chassis.V
 724:Application/chassis_task.c **** 
 725:Application/chassis_task.c ****     if (!isnormal(Chassis.ChassisMotor[0].Output))
 726:Application/chassis_task.c ****     {
 727:Application/chassis_task.c ****         Chassis.ChassisMotor[0].Output = 0.0f;
 728:Application/chassis_task.c ****         nanCount++;
 729:Application/chassis_task.c ****     }
 730:Application/chassis_task.c ****     if (!isnormal(Chassis.ChassisMotor[1].Output))
 731:Application/chassis_task.c ****     {
 732:Application/chassis_task.c ****         Chassis.ChassisMotor[1].Output = 0.0f;
 733:Application/chassis_task.c ****         nanCount++;
 734:Application/chassis_task.c ****     }
 735:Application/chassis_task.c ****     if (!isnormal(Chassis.ChassisMotor[2].Output))
 736:Application/chassis_task.c ****     {
 737:Application/chassis_task.c ****         Chassis.ChassisMotor[2].Output = 0.0f;
 738:Application/chassis_task.c ****         nanCount++;
 739:Application/chassis_task.c ****     }
 740:Application/chassis_task.c ****     if (!isnormal(Chassis.ChassisMotor[3].Output))
 741:Application/chassis_task.c ****     {
 742:Application/chassis_task.c ****         Chassis.ChassisMotor[3].Output = 0.0f;
 743:Application/chassis_task.c ****         nanCount++;
 744:Application/chassis_task.c ****     }
 745:Application/chassis_task.c **** 
 746:Application/chassis_task.c ****     if (Chassis.Vx != 0 || Chassis.Vy != 0)
 747:Application/chassis_task.c ****         time_temp = USER_GetTick();
 748:Application/chassis_task.c **** 
 749:Application/chassis_task.c ****     Chassis_Power_Exp(); // 计算可能的底盘功率
 750:Application/chassis_task.c ****                          // 功率限制
 751:Application/chassis_task.c ****     Chassis_Power_Limit();
 752:Application/chassis_task.c **** }
 753:Application/chassis_task.c **** 
 754:Application/chassis_task.c **** static void Send_Chassis_Current(void) /*发送底盘电机控制电流*/
 755:Application/chassis_task.c **** {
 756:Application/chassis_task.c ****     static uint32_t count = 0;
 757:Application/chassis_task.c ****     // 发送裁判系统功率部分给电容板
 758:Application/chassis_task.c ****     //    Send_Power_Data(&hcan1, power_heat_data_t.chassis_power_buffer, robot_state.chassis_power
 759:Application/chassis_task.c **** 
 760:Application/chassis_task.c ****     if (is_TOE_Error(RC_TOE) && is_TOE_Error(VTM_TOE)) // RC——遥控器接收器  VTM——图
 761:Application/chassis_task.c ****     {
 762:Application/chassis_task.c ****         if (Send_Motor_Current_1_4(&hcan1, 0, 0, 0, 0) == HAL_OK)
 763:Application/chassis_task.c ****             HAL_IWDG_Refresh(&hiwdg);
 764:Application/chassis_task.c ****         ;
 765:Application/chassis_task.c ****     }
 766:Application/chassis_task.c ****     else
 767:Application/chassis_task.c ****     {
 768:Application/chassis_task.c ****         // if (Send_Motor_Current_1_4(&hcan1,
 769:Application/chassis_task.c ****         //                            Chassis.ChassisMotor[0].Output, Chassis.ChassisMotor[1].Outpu
 770:Application/chassis_task.c ****         //                            Chassis.ChassisMotor[2].Output, Chassis.ChassisMotor[3].Outpu
 771:Application/chassis_task.c ****         if (Send_Motor_Current_1_4(&hcan1, 0, 0, 0, 0) == HAL_OK)
ARM GAS  C:\Users\86152\AppData\Local\Temp\ccWGVtEI.s 			page 15


 772:Application/chassis_task.c ****             HAL_IWDG_Refresh(&hiwdg);
 773:Application/chassis_task.c ****         ;
 774:Application/chassis_task.c ****     }
 775:Application/chassis_task.c ****     // 计算实际底盘功率
 776:Application/chassis_task.c ****     Chassis.PowerControl.Power_Calculation_Clipping = 0;
 777:Application/chassis_task.c ****     for (uint8_t i = 0; i < 4; i++)
 778:Application/chassis_task.c ****     {
 779:Application/chassis_task.c ****         Chassis.PowerControl.Power_Calculation_Clipping += ina226[0].Bus_Voltage * fabsf(Chassis.Ch
 780:Application/chassis_task.c ****     }
 781:Application/chassis_task.c ****     Chassis.PowerControl.Power_Calculation_Clipping *= 0.0000001732f;
 782:Application/chassis_task.c **** 
 783:Application/chassis_task.c ****     if (JudgeRxValid || count % 100 == 0)
 784:Application/chassis_task.c ****     {
 785:Application/chassis_task.c ****         Send_JudgeRxData(&hcan2, JudgeRxData);
 786:Application/chassis_task.c ****         JudgeRxValid = 0;
 787:Application/chassis_task.c ****     }
 788:Application/chassis_task.c **** 
 789:Application/chassis_task.c ****     count++;
 790:Application/chassis_task.c **** }
 791:Application/chassis_task.c **** 
 792:Application/chassis_task.c **** static void ChassisMotionEst_Update(float dt)
 793:Application/chassis_task.c **** {
 794:Application/chassis_task.c ****     static float sigmaSqrt[2];
 795:Application/chassis_task.c ****     /*
 796:Application/chassis_task.c ****      0  1  2  3  4  5
 797:Application/chassis_task.c ****      6  7  8  9 10 11
 798:Application/chassis_task.c ****     12 13 14 15 16 17
 799:Application/chassis_task.c ****     18 19 20 21 22 23
 800:Application/chassis_task.c ****     24 25 26 27 28 29
 801:Application/chassis_task.c ****     30 31 32 33 34 35
 802:Application/chassis_task.c ****     */
 803:Application/chassis_task.c ****     for (uint8_t i = 0; i < 2; i++)
 804:Application/chassis_task.c ****         sigmaSqrt[i] = ChassisMotionEst_Sigma[i] * ChassisMotionEst_Sigma[i];
 805:Application/chassis_task.c **** 
 806:Application/chassis_task.c ****     Chassis.ChassisMotionEst.F_data[1] = dt;
 807:Application/chassis_task.c ****     Chassis.ChassisMotionEst.F_data[2] = dt * dt * 0.5f;
 808:Application/chassis_task.c ****     Chassis.ChassisMotionEst.F_data[8] = dt;
 809:Application/chassis_task.c ****     Chassis.ChassisMotionEst.F_data[22] = dt;
 810:Application/chassis_task.c ****     Chassis.ChassisMotionEst.F_data[23] = dt * dt * 0.5f;
 811:Application/chassis_task.c ****     Chassis.ChassisMotionEst.F_data[29] = dt;
 812:Application/chassis_task.c **** 
 813:Application/chassis_task.c ****     ChassisMotionEst_Q[0] = dt * dt * dt * dt * dt * dt / 36.0f * sigmaSqrt[X];
 814:Application/chassis_task.c ****     ChassisMotionEst_Q[1] = dt * dt * dt * dt * dt / 12.0f * sigmaSqrt[X];
 815:Application/chassis_task.c ****     ChassisMotionEst_Q[2] = dt * dt * dt * dt / 6.0f * sigmaSqrt[X];
 816:Application/chassis_task.c ****     ChassisMotionEst_Q[6] = dt * dt * dt * dt * dt / 12.0f * sigmaSqrt[X];
 817:Application/chassis_task.c ****     ChassisMotionEst_Q[7] = dt * dt * dt * dt / 4.0f * sigmaSqrt[X];
 818:Application/chassis_task.c ****     ChassisMotionEst_Q[8] = dt * dt * dt / 2.0f * sigmaSqrt[X];
 819:Application/chassis_task.c ****     ChassisMotionEst_Q[12] = dt * dt * dt * dt / 6.0f * sigmaSqrt[X];
 820:Application/chassis_task.c ****     ChassisMotionEst_Q[13] = dt * dt * dt / 2.0f * sigmaSqrt[X];
 821:Application/chassis_task.c ****     ChassisMotionEst_Q[14] = dt * dt * sigmaSqrt[X];
 822:Application/chassis_task.c **** 
 823:Application/chassis_task.c ****     ChassisMotionEst_Q[21] = dt * dt * dt * dt * dt * dt / 36.0f * sigmaSqrt[Y];
 824:Application/chassis_task.c ****     ChassisMotionEst_Q[22] = dt * dt * dt * dt * dt / 12.0f * sigmaSqrt[Y];
 825:Application/chassis_task.c ****     ChassisMotionEst_Q[23] = dt * dt * dt * dt / 6.0f * sigmaSqrt[Y];
 826:Application/chassis_task.c ****     ChassisMotionEst_Q[27] = dt * dt * dt * dt * dt / 12.0f * sigmaSqrt[Y];
 827:Application/chassis_task.c ****     ChassisMotionEst_Q[28] = dt * dt * dt * dt / 4.0f * sigmaSqrt[Y];
 828:Application/chassis_task.c ****     ChassisMotionEst_Q[29] = dt * dt * dt / 2.0f * sigmaSqrt[Y];
ARM GAS  C:\Users\86152\AppData\Local\Temp\ccWGVtEI.s 			page 16


 829:Application/chassis_task.c ****     ChassisMotionEst_Q[33] = dt * dt * dt * dt / 6.0f * sigmaSqrt[Y];
 830:Application/chassis_task.c ****     ChassisMotionEst_Q[34] = dt * dt * dt / 2.0f * sigmaSqrt[Y];
 831:Application/chassis_task.c ****     ChassisMotionEst_Q[35] = dt * dt * sigmaSqrt[Y];
 832:Application/chassis_task.c **** 
 833:Application/chassis_task.c ****     Chassis.V1_is = ((Chassis.ChassisMotor[0].Velocity_RPM) * 2 * pi / 60) * wheel_radius / 10 / 14
 834:Application/chassis_task.c ****     Chassis.V2_is = ((Chassis.ChassisMotor[1].Velocity_RPM) * 2 * pi / 60) * wheel_radius / 10 / 14
 835:Application/chassis_task.c ****     Chassis.V3_is = ((Chassis.ChassisMotor[2].Velocity_RPM) * 2 * pi / 60) * wheel_radius / 10 / 14
 836:Application/chassis_task.c ****     Chassis.V4_is = ((Chassis.ChassisMotor[3].Velocity_RPM) * 2 * pi / 60) * wheel_radius / 10 / 14
 837:Application/chassis_task.c **** 
 838:Application/chassis_task.c ****     Chassis.Vx_is = (Chassis.V2_is + Chassis.V3_is - Chassis.V1_is - Chassis.V4_is) * Kx;
 839:Application/chassis_task.c ****     Chassis.Vy_is = (Chassis.V1_is + Chassis.V2_is - Chassis.V3_is - Chassis.V4_is) * Ky;
 840:Application/chassis_task.c **** 
 841:Application/chassis_task.c ****     // Chassis.VxTransfer_is = Chassis.Vx_is * cosf(-Chassis.FollowTheta / RADIAN_COEF) + Chassis.V
 842:Application/chassis_task.c ****     // Chassis.VyTransfer_is = Chassis.Vy_is * cosf(-Chassis.FollowTheta / RADIAN_COEF) - Chassis.V
 843:Application/chassis_task.c **** 
 844:Application/chassis_task.c ****     Chassis.ChassisMotionEst.MeasuredVector[0] = Chassis.Vx_is;
 845:Application/chassis_task.c ****     Chassis.ChassisMotionEst.MeasuredVector[1] = BMI088.Accel[0] * 100.0f;
 846:Application/chassis_task.c ****     Chassis.ChassisMotionEst.MeasuredVector[2] = Chassis.Vy_is;
 847:Application/chassis_task.c ****     Chassis.ChassisMotionEst.MeasuredVector[3] = BMI088.Accel[1] * 100.0f;
 848:Application/chassis_task.c **** 
 849:Application/chassis_task.c ****     Kalman_Filter_Update(&Chassis.ChassisMotionEst);
 850:Application/chassis_task.c **** 
 851:Application/chassis_task.c ****     for (uint8_t i = 0; i < Chassis.ChassisMotionEst.xhatSize; i++)
 852:Application/chassis_task.c ****     {
 853:Application/chassis_task.c ****         if (!isnormal(Chassis.ChassisMotionEst.xhat_data[i]))
 854:Application/chassis_task.c ****             Chassis.ChassisMotionEst.xhat_data[i] = 0;
 855:Application/chassis_task.c ****         if (!isnormal(Chassis.ChassisMotionEst.FilteredValue[i]))
 856:Application/chassis_task.c ****             Chassis.ChassisMotionEst.FilteredValue[i] = 0;
 857:Application/chassis_task.c ****     }
 858:Application/chassis_task.c **** 
 859:Application/chassis_task.c ****     for (uint8_t i = 0; i < 2; i++)
 860:Application/chassis_task.c ****     {
 861:Application/chassis_task.c ****         Chassis.Position[i] = Chassis.ChassisMotionEst.FilteredValue[i * 3];
 862:Application/chassis_task.c ****         Chassis.Velocity[i] = Chassis.ChassisMotionEst.FilteredValue[i * 3 + 1];
 863:Application/chassis_task.c ****         Chassis.Accel[i] = Chassis.ChassisMotionEst.FilteredValue[i * 3 + 2];
 864:Application/chassis_task.c ****     }
 865:Application/chassis_task.c **** 
 866:Application/chassis_task.c ****     Chassis.V_Position[0] += Chassis.Vx_is * dt;
 867:Application/chassis_task.c ****     Chassis.V_Position[1] += Chassis.Vy_is * dt;
 868:Application/chassis_task.c **** }
 869:Application/chassis_task.c **** 
 870:Application/chassis_task.c **** static float Max_4(float num1, float num2, float num3, float num4)
 871:Application/chassis_task.c **** {
  29              		.loc 1 871 1 view -0
  30              		.cfi_startproc
  31              		@ args = 0, pretend = 0, frame = 0
  32              		@ frame_needed = 0, uses_anonymous_args = 0
  33              		@ link register save eliminated.
 872:Application/chassis_task.c ****     static float max_num = 0;
  34              		.loc 1 872 5 view .LVU1
 873:Application/chassis_task.c **** 
 874:Application/chassis_task.c ****     max_num = fabsf(num1);
  35              		.loc 1 874 5 view .LVU2
  36              		.loc 1 874 15 is_stmt 0 view .LVU3
  37 0000 B0EEC00A 		vabs.f32	s0, s0
  38              	.LVL1:
  39              		.loc 1 874 13 view .LVU4
ARM GAS  C:\Users\86152\AppData\Local\Temp\ccWGVtEI.s 			page 17


  40 0004 134B     		ldr	r3, .L11
  41 0006 83ED000A 		vstr.32	s0, [r3]
 875:Application/chassis_task.c ****     if (fabsf(num2) > max_num)
  42              		.loc 1 875 5 is_stmt 1 view .LVU5
  43              		.loc 1 875 9 is_stmt 0 view .LVU6
  44 000a F0EEE00A 		vabs.f32	s1, s1
  45              	.LVL2:
  46              		.loc 1 875 8 view .LVU7
  47 000e B4EEE00A 		vcmpe.f32	s0, s1
  48 0012 F1EE10FA 		vmrs	APSR_nzcv, FPSCR
  49 0016 01D5     		bpl	.L2
 876:Application/chassis_task.c ****         max_num = fabsf(num2);
  50              		.loc 1 876 9 is_stmt 1 view .LVU8
  51              		.loc 1 876 17 is_stmt 0 view .LVU9
  52 0018 C3ED000A 		vstr.32	s1, [r3]
  53              	.L2:
 877:Application/chassis_task.c ****     if (fabsf(num3) > max_num)
  54              		.loc 1 877 5 is_stmt 1 view .LVU10
  55              		.loc 1 877 9 is_stmt 0 view .LVU11
  56 001c B0EEC11A 		vabs.f32	s2, s2
  57              	.LVL3:
  58              		.loc 1 877 21 view .LVU12
  59 0020 0C4B     		ldr	r3, .L11
  60 0022 D3ED007A 		vldr.32	s15, [r3]
  61              		.loc 1 877 8 view .LVU13
  62 0026 B4EEE71A 		vcmpe.f32	s2, s15
  63 002a F1EE10FA 		vmrs	APSR_nzcv, FPSCR
  64 002e 01DD     		ble	.L4
 878:Application/chassis_task.c ****         max_num = fabsf(num3);
  65              		.loc 1 878 9 is_stmt 1 view .LVU14
  66              		.loc 1 878 17 is_stmt 0 view .LVU15
  67 0030 83ED001A 		vstr.32	s2, [r3]
  68              	.L4:
 879:Application/chassis_task.c ****     if (fabsf(num4) > max_num)
  69              		.loc 1 879 5 is_stmt 1 view .LVU16
  70              		.loc 1 879 9 is_stmt 0 view .LVU17
  71 0034 F0EEE11A 		vabs.f32	s3, s3
  72              	.LVL4:
  73              		.loc 1 879 21 view .LVU18
  74 0038 064B     		ldr	r3, .L11
  75 003a D3ED007A 		vldr.32	s15, [r3]
  76              		.loc 1 879 8 view .LVU19
  77 003e F4EEE71A 		vcmpe.f32	s3, s15
  78 0042 F1EE10FA 		vmrs	APSR_nzcv, FPSCR
  79 0046 01DD     		ble	.L6
 880:Application/chassis_task.c ****         max_num = fabsf(num4);
  80              		.loc 1 880 9 is_stmt 1 view .LVU20
  81              		.loc 1 880 17 is_stmt 0 view .LVU21
  82 0048 C3ED001A 		vstr.32	s3, [r3]
  83              	.L6:
 881:Application/chassis_task.c **** 
 882:Application/chassis_task.c ****     return max_num;
  84              		.loc 1 882 5 is_stmt 1 view .LVU22
 883:Application/chassis_task.c **** }
  85              		.loc 1 883 1 is_stmt 0 view .LVU23
  86 004c 014B     		ldr	r3, .L11
  87 004e 93ED000A 		vldr.32	s0, [r3]
ARM GAS  C:\Users\86152\AppData\Local\Temp\ccWGVtEI.s 			page 18


  88 0052 7047     		bx	lr
  89              	.L12:
  90              		.align	2
  91              	.L11:
  92 0054 00000000 		.word	.LANCHOR0
  93              		.cfi_endproc
  94              	.LFE180:
  96              		.section	.text.Velocity_MAXLimit,"ax",%progbits
  97              		.align	1
  98              		.syntax unified
  99              		.thumb
 100              		.thumb_func
 102              	Velocity_MAXLimit:
 103              	.LFB183:
 884:Application/chassis_task.c **** 
 885:Application/chassis_task.c **** void Chassis_Power_Limit(void)
 886:Application/chassis_task.c **** {
 887:Application/chassis_task.c ****     static float coef[4] = {1, 1, 1, 1};
 888:Application/chassis_task.c **** 
 889:Application/chassis_task.c ****     // 电容电压小于14.5V时
 890:Application/chassis_task.c ****     if (ina226[0].Bus_Voltage < 14.5f)
 891:Application/chassis_task.c ****     {
 892:Application/chassis_task.c ****         Chassis.PowerControl.Power_Limit = Chassis.PowerControl.LowVoltage_Gain * robot_state.chass
 893:Application/chassis_task.c ****     }
 894:Application/chassis_task.c ****     else
 895:Application/chassis_task.c ****     {
 896:Application/chassis_task.c ****         // 计算修正后的功率限制
 897:Application/chassis_task.c ****         Chassis.PowerControl.Power_Limit = Chassis.PowerControl.Power_correction_gain * robot_state
 898:Application/chassis_task.c **** 
 899:Application/chassis_task.c ****         // 缓冲能量充足时，可放宽限制
 900:Application/chassis_task.c ****         if (power_heat_data_t.chassis_power_buffer > 30)
 901:Application/chassis_task.c ****             Chassis.PowerControl.Power_Limit = 1.5f * Chassis.PowerControl.Power_correction_gain * 
 902:Application/chassis_task.c ****     }
 903:Application/chassis_task.c **** 
 904:Application/chassis_task.c ****     // 底盘功率大于功率限制时
 905:Application/chassis_task.c ****     if (Chassis.PowerControl.Power_Calculation > Chassis.PowerControl.Power_Limit)
 906:Application/chassis_task.c ****     {
 907:Application/chassis_task.c ****         Chassis.PowerControl.PowerScale = Chassis.PowerControl.Power_Limit / Chassis.PowerControl.P
 908:Application/chassis_task.c ****         if (Chassis.Mode == Spinning_Mode)
 909:Application/chassis_task.c ****             Chassis.PowerControl.PowerScale = Chassis.PowerControl.PowerScale * 0.95;
 910:Application/chassis_task.c ****     }
 911:Application/chassis_task.c ****     else
 912:Application/chassis_task.c ****         Chassis.PowerControl.PowerScale = 1.0f;
 913:Application/chassis_task.c **** 
 914:Application/chassis_task.c ****     // 急停时无功率限制
 915:Application/chassis_task.c ****     if ((USER_GetTick() - time_temp < 500 && USER_GetTick() - time_temp > 5) || (USER_GetTick() - t
 916:Application/chassis_task.c ****         Chassis.PowerControl.PowerScale = 1.0f;
 917:Application/chassis_task.c **** 
 918:Application/chassis_task.c ****     for (uint8_t i = 0; i < 4; i++)
 919:Application/chassis_task.c ****     {
 920:Application/chassis_task.c ****         Chassis.ChassisMotor[i].Output *= Chassis.PowerControl.PowerScale * coef[i];
 921:Application/chassis_task.c ****     }
 922:Application/chassis_task.c **** }
 923:Application/chassis_task.c **** 
 924:Application/chassis_task.c **** // 计算可能底盘功率
 925:Application/chassis_task.c **** static void Chassis_Power_Exp(void)
 926:Application/chassis_task.c **** {
ARM GAS  C:\Users\86152\AppData\Local\Temp\ccWGVtEI.s 			page 19


 927:Application/chassis_task.c ****     if (is_TOE_Error(CAP_TOE))         // CAP是电容
 928:Application/chassis_task.c ****         ina226[0].Bus_Voltage = 24.0f; // 电容掉线，默认为24v;
 929:Application/chassis_task.c **** 
 930:Application/chassis_task.c ****     Chassis.PowerControl.Power_Calculation = 0;
 931:Application/chassis_task.c ****     for (uint8_t i = 0; i < 4; i++)
 932:Application/chassis_task.c ****     {
 933:Application/chassis_task.c ****         Chassis.PowerControl.Power_Calculation += ina226[0].Bus_Voltage * fabsf(Chassis.ChassisMoto
 934:Application/chassis_task.c ****     }
 935:Application/chassis_task.c ****     Chassis.PowerControl.Power_Calculation *= 0.0000001732f;
 936:Application/chassis_task.c ****     if (!isnormal(Chassis.PowerControl.Power_Calculation))
 937:Application/chassis_task.c ****         Chassis.PowerControl.Power_Calculation = 0.0f;
 938:Application/chassis_task.c **** }
 939:Application/chassis_task.c **** 
 940:Application/chassis_task.c **** static void Velocity_MAXLimit(void)
 941:Application/chassis_task.c **** {
 104              		.loc 1 941 1 is_stmt 1 view -0
 105              		.cfi_startproc
 106              		@ args = 0, pretend = 0, frame = 0
 107              		@ frame_needed = 0, uses_anonymous_args = 0
 108 0000 10B5     		push	{r4, lr}
 109              	.LCFI0:
 110              		.cfi_def_cfa_offset 8
 111              		.cfi_offset 4, -8
 112              		.cfi_offset 14, -4
 942:Application/chassis_task.c ****     static float TempMaxVelocity;
 113              		.loc 1 942 5 view .LVU25
 943:Application/chassis_task.c ****     if (Max_4(fabsf(Chassis.V1), fabsf(Chassis.V2), fabsf(Chassis.V3), fabsf(Chassis.V4)) > MAX_RPM
 114              		.loc 1 943 5 view .LVU26
 115              		.loc 1 943 28 is_stmt 0 view .LVU27
 116 0002 284B     		ldr	r3, .L19
 117 0004 93ED550A 		vldr.32	s0, [r3, #340]
 118              		.loc 1 943 47 view .LVU28
 119 0008 D3ED560A 		vldr.32	s1, [r3, #344]
 120              		.loc 1 943 66 view .LVU29
 121 000c 93ED571A 		vldr.32	s2, [r3, #348]
 122              		.loc 1 943 85 view .LVU30
 123 0010 D3ED581A 		vldr.32	s3, [r3, #352]
 124              		.loc 1 943 9 view .LVU31
 125 0014 F0EEE11A 		vabs.f32	s3, s3
 126 0018 B0EEC11A 		vabs.f32	s2, s2
 127 001c F0EEE00A 		vabs.f32	s1, s1
 128 0020 B0EEC00A 		vabs.f32	s0, s0
 129 0024 FFF7FEFF 		bl	Max_4
 130              	.LVL5:
 131              		.loc 1 943 91 view .LVU32
 132 0028 1F4B     		ldr	r3, .L19+4
 133 002a D3ED007A 		vldr.32	s15, [r3]
 134              		.loc 1 943 8 view .LVU33
 135 002e B4EEE70A 		vcmpe.f32	s0, s15
 136 0032 F1EE10FA 		vmrs	APSR_nzcv, FPSCR
 137 0036 00DC     		bgt	.L18
 138              	.L13:
 944:Application/chassis_task.c ****     {
 945:Application/chassis_task.c ****         TempMaxVelocity = Max_4(fabsf(Chassis.V1), fabsf(Chassis.V2), fabsf(Chassis.V3), fabsf(Chas
 946:Application/chassis_task.c ****         Chassis.V1 *= MAX_RPM / TempMaxVelocity;
 947:Application/chassis_task.c ****         Chassis.V2 *= MAX_RPM / TempMaxVelocity;
 948:Application/chassis_task.c ****         Chassis.V3 *= MAX_RPM / TempMaxVelocity;
ARM GAS  C:\Users\86152\AppData\Local\Temp\ccWGVtEI.s 			page 20


 949:Application/chassis_task.c ****         Chassis.V4 *= MAX_RPM / TempMaxVelocity;
 950:Application/chassis_task.c ****     }
 951:Application/chassis_task.c **** }
 139              		.loc 1 951 1 view .LVU34
 140 0038 10BD     		pop	{r4, pc}
 141              	.L18:
 945:Application/chassis_task.c ****         Chassis.V1 *= MAX_RPM / TempMaxVelocity;
 142              		.loc 1 945 9 is_stmt 1 view .LVU35
 945:Application/chassis_task.c ****         Chassis.V1 *= MAX_RPM / TempMaxVelocity;
 143              		.loc 1 945 46 is_stmt 0 view .LVU36
 144 003a 1A4C     		ldr	r4, .L19
 145 003c 94ED550A 		vldr.32	s0, [r4, #340]
 945:Application/chassis_task.c ****         Chassis.V1 *= MAX_RPM / TempMaxVelocity;
 146              		.loc 1 945 65 view .LVU37
 147 0040 D4ED560A 		vldr.32	s1, [r4, #344]
 945:Application/chassis_task.c ****         Chassis.V1 *= MAX_RPM / TempMaxVelocity;
 148              		.loc 1 945 84 view .LVU38
 149 0044 94ED571A 		vldr.32	s2, [r4, #348]
 945:Application/chassis_task.c ****         Chassis.V1 *= MAX_RPM / TempMaxVelocity;
 150              		.loc 1 945 103 view .LVU39
 151 0048 D4ED581A 		vldr.32	s3, [r4, #352]
 945:Application/chassis_task.c ****         Chassis.V1 *= MAX_RPM / TempMaxVelocity;
 152              		.loc 1 945 27 view .LVU40
 153 004c F0EEE11A 		vabs.f32	s3, s3
 154 0050 B0EEC11A 		vabs.f32	s2, s2
 155 0054 F0EEE00A 		vabs.f32	s1, s1
 156 0058 B0EEC00A 		vabs.f32	s0, s0
 157 005c FFF7FEFF 		bl	Max_4
 158              	.LVL6:
 945:Application/chassis_task.c ****         Chassis.V1 *= MAX_RPM / TempMaxVelocity;
 159              		.loc 1 945 25 view .LVU41
 160 0060 124B     		ldr	r3, .L19+8
 161 0062 83ED000A 		vstr.32	s0, [r3]
 946:Application/chassis_task.c ****         Chassis.V2 *= MAX_RPM / TempMaxVelocity;
 162              		.loc 1 946 9 is_stmt 1 view .LVU42
 946:Application/chassis_task.c ****         Chassis.V2 *= MAX_RPM / TempMaxVelocity;
 163              		.loc 1 946 31 is_stmt 0 view .LVU43
 164 0066 104B     		ldr	r3, .L19+4
 165 0068 93ED007A 		vldr.32	s14, [r3]
 166 006c C7EE007A 		vdiv.f32	s15, s14, s0
 946:Application/chassis_task.c ****         Chassis.V2 *= MAX_RPM / TempMaxVelocity;
 167              		.loc 1 946 20 view .LVU44
 168 0070 94ED557A 		vldr.32	s14, [r4, #340]
 169 0074 27EE277A 		vmul.f32	s14, s14, s15
 170 0078 84ED557A 		vstr.32	s14, [r4, #340]
 947:Application/chassis_task.c ****         Chassis.V3 *= MAX_RPM / TempMaxVelocity;
 171              		.loc 1 947 9 is_stmt 1 view .LVU45
 947:Application/chassis_task.c ****         Chassis.V3 *= MAX_RPM / TempMaxVelocity;
 172              		.loc 1 947 20 is_stmt 0 view .LVU46
 173 007c 94ED567A 		vldr.32	s14, [r4, #344]
 174 0080 27EE277A 		vmul.f32	s14, s14, s15
 175 0084 84ED567A 		vstr.32	s14, [r4, #344]
 948:Application/chassis_task.c ****         Chassis.V4 *= MAX_RPM / TempMaxVelocity;
 176              		.loc 1 948 9 is_stmt 1 view .LVU47
 948:Application/chassis_task.c ****         Chassis.V4 *= MAX_RPM / TempMaxVelocity;
 177              		.loc 1 948 20 is_stmt 0 view .LVU48
 178 0088 94ED577A 		vldr.32	s14, [r4, #348]
ARM GAS  C:\Users\86152\AppData\Local\Temp\ccWGVtEI.s 			page 21


 179 008c 27EE277A 		vmul.f32	s14, s14, s15
 180 0090 84ED577A 		vstr.32	s14, [r4, #348]
 949:Application/chassis_task.c ****     }
 181              		.loc 1 949 9 is_stmt 1 view .LVU49
 949:Application/chassis_task.c ****     }
 182              		.loc 1 949 20 is_stmt 0 view .LVU50
 183 0094 94ED587A 		vldr.32	s14, [r4, #352]
 184 0098 67EE277A 		vmul.f32	s15, s14, s15
 185 009c C4ED587A 		vstr.32	s15, [r4, #352]
 186              		.loc 1 951 1 view .LVU51
 187 00a0 CAE7     		b	.L13
 188              	.L20:
 189 00a2 00BF     		.align	2
 190              	.L19:
 191 00a4 00000000 		.word	Chassis
 192 00a8 00000000 		.word	.LANCHOR1
 193 00ac 00000000 		.word	.LANCHOR2
 194              		.cfi_endproc
 195              	.LFE183:
 197              		.section	.text.ChassisMotionEst_Init,"ax",%progbits
 198              		.align	1
 199              		.syntax unified
 200              		.thumb
 201              		.thumb_func
 203              	ChassisMotionEst_Init:
 204              	.LFB172:
 159:Application/chassis_task.c ****     // Chassis.ChassisMotionEst.UseAutoAdjustment = TRUE;
 205              		.loc 1 159 1 is_stmt 1 view -0
 206              		.cfi_startproc
 207              		@ args = 0, pretend = 0, frame = 0
 208              		@ frame_needed = 0, uses_anonymous_args = 0
 209 0000 38B5     		push	{r3, r4, r5, lr}
 210              	.LCFI1:
 211              		.cfi_def_cfa_offset 16
 212              		.cfi_offset 3, -16
 213              		.cfi_offset 4, -12
 214              		.cfi_offset 5, -8
 215              		.cfi_offset 14, -4
 161:Application/chassis_task.c ****     Chassis.ChassisMotionEst.MeasurementMap[0] = 2;
 216              		.loc 1 161 5 view .LVU53
 217 0002 244C     		ldr	r4, .L24
 218 0004 0423     		movs	r3, #4
 219 0006 0022     		movs	r2, #0
 220 0008 0621     		movs	r1, #6
 221 000a 2046     		mov	r0, r4
 222 000c FFF7FEFF 		bl	Kalman_Filter_Init
 223              	.LVL7:
 162:Application/chassis_task.c ****     Chassis.ChassisMotionEst.MeasurementMap[1] = 3;
 224              		.loc 1 162 5 view .LVU54
 162:Application/chassis_task.c ****     Chassis.ChassisMotionEst.MeasurementMap[1] = 3;
 225              		.loc 1 162 29 is_stmt 0 view .LVU55
 226 0010 6369     		ldr	r3, [r4, #20]
 162:Application/chassis_task.c ****     Chassis.ChassisMotionEst.MeasurementMap[1] = 3;
 227              		.loc 1 162 48 view .LVU56
 228 0012 0222     		movs	r2, #2
 229 0014 1A70     		strb	r2, [r3]
 163:Application/chassis_task.c ****     Chassis.ChassisMotionEst.MeasurementMap[2] = 5;
ARM GAS  C:\Users\86152\AppData\Local\Temp\ccWGVtEI.s 			page 22


 230              		.loc 1 163 5 is_stmt 1 view .LVU57
 163:Application/chassis_task.c ****     Chassis.ChassisMotionEst.MeasurementMap[2] = 5;
 231              		.loc 1 163 29 is_stmt 0 view .LVU58
 232 0016 6369     		ldr	r3, [r4, #20]
 163:Application/chassis_task.c ****     Chassis.ChassisMotionEst.MeasurementMap[2] = 5;
 233              		.loc 1 163 48 view .LVU59
 234 0018 0322     		movs	r2, #3
 235 001a 5A70     		strb	r2, [r3, #1]
 164:Application/chassis_task.c ****     Chassis.ChassisMotionEst.MeasurementMap[3] = 6;
 236              		.loc 1 164 5 is_stmt 1 view .LVU60
 164:Application/chassis_task.c ****     Chassis.ChassisMotionEst.MeasurementMap[3] = 6;
 237              		.loc 1 164 29 is_stmt 0 view .LVU61
 238 001c 6369     		ldr	r3, [r4, #20]
 164:Application/chassis_task.c ****     Chassis.ChassisMotionEst.MeasurementMap[3] = 6;
 239              		.loc 1 164 48 view .LVU62
 240 001e 0522     		movs	r2, #5
 241 0020 9A70     		strb	r2, [r3, #2]
 165:Application/chassis_task.c ****     Chassis.ChassisMotionEst.MeasurementDegree[0] = 1;
 242              		.loc 1 165 5 is_stmt 1 view .LVU63
 165:Application/chassis_task.c ****     Chassis.ChassisMotionEst.MeasurementDegree[0] = 1;
 243              		.loc 1 165 29 is_stmt 0 view .LVU64
 244 0022 6369     		ldr	r3, [r4, #20]
 165:Application/chassis_task.c ****     Chassis.ChassisMotionEst.MeasurementDegree[0] = 1;
 245              		.loc 1 165 48 view .LVU65
 246 0024 0622     		movs	r2, #6
 247 0026 DA70     		strb	r2, [r3, #3]
 166:Application/chassis_task.c ****     Chassis.ChassisMotionEst.MeasurementDegree[1] = 1;
 248              		.loc 1 166 5 is_stmt 1 view .LVU66
 166:Application/chassis_task.c ****     Chassis.ChassisMotionEst.MeasurementDegree[1] = 1;
 249              		.loc 1 166 29 is_stmt 0 view .LVU67
 250 0028 A269     		ldr	r2, [r4, #24]
 166:Application/chassis_task.c ****     Chassis.ChassisMotionEst.MeasurementDegree[1] = 1;
 251              		.loc 1 166 51 view .LVU68
 252 002a 4FF07E53 		mov	r3, #1065353216
 253 002e 1360     		str	r3, [r2]	@ float
 167:Application/chassis_task.c ****     Chassis.ChassisMotionEst.MeasurementDegree[2] = 1;
 254              		.loc 1 167 5 is_stmt 1 view .LVU69
 167:Application/chassis_task.c ****     Chassis.ChassisMotionEst.MeasurementDegree[2] = 1;
 255              		.loc 1 167 29 is_stmt 0 view .LVU70
 256 0030 A269     		ldr	r2, [r4, #24]
 167:Application/chassis_task.c ****     Chassis.ChassisMotionEst.MeasurementDegree[2] = 1;
 257              		.loc 1 167 51 view .LVU71
 258 0032 5360     		str	r3, [r2, #4]	@ float
 168:Application/chassis_task.c ****     Chassis.ChassisMotionEst.MeasurementDegree[3] = 1;
 259              		.loc 1 168 5 is_stmt 1 view .LVU72
 168:Application/chassis_task.c ****     Chassis.ChassisMotionEst.MeasurementDegree[3] = 1;
 260              		.loc 1 168 29 is_stmt 0 view .LVU73
 261 0034 A269     		ldr	r2, [r4, #24]
 168:Application/chassis_task.c ****     Chassis.ChassisMotionEst.MeasurementDegree[3] = 1;
 262              		.loc 1 168 51 view .LVU74
 263 0036 9360     		str	r3, [r2, #8]	@ float
 169:Application/chassis_task.c ****     // Chassis.ChassisMotionEst.MatR_DiagonalElements[0] = 100;
 264              		.loc 1 169 5 is_stmt 1 view .LVU75
 169:Application/chassis_task.c ****     // Chassis.ChassisMotionEst.MatR_DiagonalElements[0] = 100;
 265              		.loc 1 169 29 is_stmt 0 view .LVU76
 266 0038 A269     		ldr	r2, [r4, #24]
 169:Application/chassis_task.c ****     // Chassis.ChassisMotionEst.MatR_DiagonalElements[0] = 100;
ARM GAS  C:\Users\86152\AppData\Local\Temp\ccWGVtEI.s 			page 23


 267              		.loc 1 169 51 view .LVU77
 268 003a D360     		str	r3, [r2, #12]	@ float
 174:Application/chassis_task.c ****     memcpy(Chassis.ChassisMotionEst.P_data, ChassisMotionEst_Pinit, sizeof(ChassisMotionEst_Pinit))
 269              		.loc 1 174 5 is_stmt 1 view .LVU78
 270 003c 9025     		movs	r5, #144
 271 003e 2A46     		mov	r2, r5
 272 0040 1549     		ldr	r1, .L24+4
 273 0042 D4F80001 		ldr	r0, [r4, #256]
 274 0046 FFF7FEFF 		bl	memcpy
 275              	.LVL8:
 175:Application/chassis_task.c ****     memcpy(Chassis.ChassisMotionEst.Q_data, ChassisMotionEst_Q, sizeof(ChassisMotionEst_Q));
 276              		.loc 1 175 5 view .LVU79
 277 004a 2A46     		mov	r2, r5
 278 004c 1349     		ldr	r1, .L24+8
 279 004e D4F8F800 		ldr	r0, [r4, #248]
 280 0052 FFF7FEFF 		bl	memcpy
 281              	.LVL9:
 176:Application/chassis_task.c ****     memcpy(Chassis.ChassisMotionEst.R_data, ChassisMotionEst_R, sizeof(ChassisMotionEst_R));
 282              		.loc 1 176 5 view .LVU80
 283 0056 2A46     		mov	r2, r5
 284 0058 1149     		ldr	r1, .L24+12
 285 005a D4F81401 		ldr	r0, [r4, #276]
 162:Application/chassis_task.c ****     Chassis.ChassisMotionEst.MeasurementMap[1] = 3;
 286              		.loc 1 162 29 is_stmt 0 view .LVU81
 287 005e 203C     		subs	r4, r4, #32
 176:Application/chassis_task.c ****     memcpy(Chassis.ChassisMotionEst.R_data, ChassisMotionEst_R, sizeof(ChassisMotionEst_R));
 288              		.loc 1 176 5 view .LVU82
 289 0060 FFF7FEFF 		bl	memcpy
 290              	.LVL10:
 177:Application/chassis_task.c ****     memcpy(Chassis.ChassisMotionEst.H_data, ChassisMotionEst_H, sizeof(ChassisMotionEst_H));
 291              		.loc 1 177 5 is_stmt 1 view .LVU83
 292 0064 0F4D     		ldr	r5, .L24+16
 293 0066 D4F83841 		ldr	r4, [r4, #312]
 294 006a 05F1400E 		add	lr, r5, #64
 295              	.L22:
 296 006e AC46     		mov	ip, r5
 297 0070 BCE80F00 		ldmia	ip!, {r0, r1, r2, r3}
 298 0074 2060     		str	r0, [r4]	@ unaligned
 299 0076 6160     		str	r1, [r4, #4]	@ unaligned
 300 0078 A260     		str	r2, [r4, #8]	@ unaligned
 301 007a E360     		str	r3, [r4, #12]	@ unaligned
 302 007c 6546     		mov	r5, ip
 303 007e 1034     		adds	r4, r4, #16
 304 0080 F445     		cmp	ip, lr
 305 0082 F4D1     		bne	.L22
 178:Application/chassis_task.c ****     // Chassis.ChassisMotionEst.User_Func0_f = ChassisMotionEst_Tuning;
 306              		.loc 1 178 5 view .LVU84
 307 0084 6022     		movs	r2, #96
 308 0086 0849     		ldr	r1, .L24+20
 309 0088 084B     		ldr	r3, .L24+24
 310 008a D3F82C01 		ldr	r0, [r3, #300]
 311 008e FFF7FEFF 		bl	memcpy
 312              	.LVL11:
 181:Application/chassis_task.c **** 
 313              		.loc 1 181 1 is_stmt 0 view .LVU85
 314 0092 38BD     		pop	{r3, r4, r5, pc}
 315              	.L25:
ARM GAS  C:\Users\86152\AppData\Local\Temp\ccWGVtEI.s 			page 24


 316              		.align	2
 317              	.L24:
 318 0094 20000000 		.word	Chassis+32
 319 0098 00000000 		.word	.LANCHOR3
 320 009c 00000000 		.word	.LANCHOR4
 321 00a0 00000000 		.word	.LANCHOR5
 322 00a4 00000000 		.word	.LANCHOR6
 323 00a8 00000000 		.word	.LANCHOR7
 324 00ac 00000000 		.word	Chassis
 325              		.cfi_endproc
 326              	.LFE172:
 328              		.section	.text.ChassisMotionEst_Update,"ax",%progbits
 329              		.align	1
 330              		.syntax unified
 331              		.thumb
 332              		.thumb_func
 334              	ChassisMotionEst_Update:
 335              	.LVL12:
 336              	.LFB179:
 793:Application/chassis_task.c ****     static float sigmaSqrt[2];
 337              		.loc 1 793 1 is_stmt 1 view -0
 338              		.cfi_startproc
 339              		@ args = 0, pretend = 0, frame = 0
 340              		@ frame_needed = 0, uses_anonymous_args = 0
 793:Application/chassis_task.c ****     static float sigmaSqrt[2];
 341              		.loc 1 793 1 is_stmt 0 view .LVU87
 342 0000 08B5     		push	{r3, lr}
 343              	.LCFI2:
 344              		.cfi_def_cfa_offset 8
 345              		.cfi_offset 3, -8
 346              		.cfi_offset 14, -4
 347 0002 2DED028B 		vpush.64	{d8}
 348              	.LCFI3:
 349              		.cfi_def_cfa_offset 16
 350              		.cfi_offset 80, -16
 351              		.cfi_offset 81, -12
 352 0006 B0EE408A 		vmov.f32	s16, s0
 794:Application/chassis_task.c ****     /*
 353              		.loc 1 794 5 is_stmt 1 view .LVU88
 803:Application/chassis_task.c ****         sigmaSqrt[i] = ChassisMotionEst_Sigma[i] * ChassisMotionEst_Sigma[i];
 354              		.loc 1 803 5 view .LVU89
 355              	.LBB6:
 803:Application/chassis_task.c ****         sigmaSqrt[i] = ChassisMotionEst_Sigma[i] * ChassisMotionEst_Sigma[i];
 356              		.loc 1 803 10 view .LVU90
 357              	.LVL13:
 803:Application/chassis_task.c ****         sigmaSqrt[i] = ChassisMotionEst_Sigma[i] * ChassisMotionEst_Sigma[i];
 358              		.loc 1 803 18 is_stmt 0 view .LVU91
 359 000a 0023     		movs	r3, #0
 803:Application/chassis_task.c ****         sigmaSqrt[i] = ChassisMotionEst_Sigma[i] * ChassisMotionEst_Sigma[i];
 360              		.loc 1 803 5 view .LVU92
 361 000c 0DE0     		b	.L27
 362              	.LVL14:
 363              	.L28:
 804:Application/chassis_task.c **** 
 364              		.loc 1 804 9 is_stmt 1 discriminator 3 view .LVU93
 804:Application/chassis_task.c **** 
 365              		.loc 1 804 46 is_stmt 0 discriminator 3 view .LVU94
ARM GAS  C:\Users\86152\AppData\Local\Temp\ccWGVtEI.s 			page 25


 366 000e C54A     		ldr	r2, .L37
 367 0010 02EB8302 		add	r2, r2, r3, lsl #2
 368 0014 D2ED007A 		vldr.32	s15, [r2]
 804:Application/chassis_task.c **** 
 369              		.loc 1 804 50 discriminator 3 view .LVU95
 370 0018 67EEA77A 		vmul.f32	s15, s15, s15
 804:Application/chassis_task.c **** 
 371              		.loc 1 804 22 discriminator 3 view .LVU96
 372 001c C24A     		ldr	r2, .L37+4
 373 001e 02EB8302 		add	r2, r2, r3, lsl #2
 374 0022 C2ED007A 		vstr.32	s15, [r2]
 803:Application/chassis_task.c ****         sigmaSqrt[i] = ChassisMotionEst_Sigma[i] * ChassisMotionEst_Sigma[i];
 375              		.loc 1 803 32 is_stmt 1 discriminator 3 view .LVU97
 803:Application/chassis_task.c ****         sigmaSqrt[i] = ChassisMotionEst_Sigma[i] * ChassisMotionEst_Sigma[i];
 376              		.loc 1 803 33 is_stmt 0 discriminator 3 view .LVU98
 377 0026 0133     		adds	r3, r3, #1
 378              	.LVL15:
 803:Application/chassis_task.c ****         sigmaSqrt[i] = ChassisMotionEst_Sigma[i] * ChassisMotionEst_Sigma[i];
 379              		.loc 1 803 33 discriminator 3 view .LVU99
 380 0028 DBB2     		uxtb	r3, r3
 381              	.LVL16:
 382              	.L27:
 803:Application/chassis_task.c ****         sigmaSqrt[i] = ChassisMotionEst_Sigma[i] * ChassisMotionEst_Sigma[i];
 383              		.loc 1 803 25 is_stmt 1 discriminator 1 view .LVU100
 803:Application/chassis_task.c ****         sigmaSqrt[i] = ChassisMotionEst_Sigma[i] * ChassisMotionEst_Sigma[i];
 384              		.loc 1 803 5 is_stmt 0 discriminator 1 view .LVU101
 385 002a 012B     		cmp	r3, #1
 386 002c EFD9     		bls	.L28
 387              	.LBE6:
 806:Application/chassis_task.c ****     Chassis.ChassisMotionEst.F_data[2] = dt * dt * 0.5f;
 388              		.loc 1 806 5 is_stmt 1 view .LVU102
 806:Application/chassis_task.c ****     Chassis.ChassisMotionEst.F_data[2] = dt * dt * 0.5f;
 389              		.loc 1 806 29 is_stmt 0 view .LVU103
 390 002e BF48     		ldr	r0, .L37+8
 391 0030 D0F82031 		ldr	r3, [r0, #288]
 392              	.LVL17:
 806:Application/chassis_task.c ****     Chassis.ChassisMotionEst.F_data[2] = dt * dt * 0.5f;
 393              		.loc 1 806 40 view .LVU104
 394 0034 83ED018A 		vstr.32	s16, [r3, #4]
 807:Application/chassis_task.c ****     Chassis.ChassisMotionEst.F_data[8] = dt;
 395              		.loc 1 807 5 is_stmt 1 view .LVU105
 807:Application/chassis_task.c ****     Chassis.ChassisMotionEst.F_data[8] = dt;
 396              		.loc 1 807 45 is_stmt 0 view .LVU106
 397 0038 68EE085A 		vmul.f32	s11, s16, s16
 807:Application/chassis_task.c ****     Chassis.ChassisMotionEst.F_data[8] = dt;
 398              		.loc 1 807 29 view .LVU107
 399 003c D0F82031 		ldr	r3, [r0, #288]
 807:Application/chassis_task.c ****     Chassis.ChassisMotionEst.F_data[8] = dt;
 400              		.loc 1 807 50 view .LVU108
 401 0040 F6EE007A 		vmov.f32	s15, #5.0e-1
 402 0044 25EEA77A 		vmul.f32	s14, s11, s15
 807:Application/chassis_task.c ****     Chassis.ChassisMotionEst.F_data[8] = dt;
 403              		.loc 1 807 40 view .LVU109
 404 0048 83ED027A 		vstr.32	s14, [r3, #8]
 808:Application/chassis_task.c ****     Chassis.ChassisMotionEst.F_data[22] = dt;
 405              		.loc 1 808 5 is_stmt 1 view .LVU110
 808:Application/chassis_task.c ****     Chassis.ChassisMotionEst.F_data[22] = dt;
ARM GAS  C:\Users\86152\AppData\Local\Temp\ccWGVtEI.s 			page 26


 406              		.loc 1 808 29 is_stmt 0 view .LVU111
 407 004c D0F82031 		ldr	r3, [r0, #288]
 808:Application/chassis_task.c ****     Chassis.ChassisMotionEst.F_data[22] = dt;
 408              		.loc 1 808 40 view .LVU112
 409 0050 83ED088A 		vstr.32	s16, [r3, #32]
 809:Application/chassis_task.c ****     Chassis.ChassisMotionEst.F_data[23] = dt * dt * 0.5f;
 410              		.loc 1 809 5 is_stmt 1 view .LVU113
 809:Application/chassis_task.c ****     Chassis.ChassisMotionEst.F_data[23] = dt * dt * 0.5f;
 411              		.loc 1 809 29 is_stmt 0 view .LVU114
 412 0054 D0F82031 		ldr	r3, [r0, #288]
 809:Application/chassis_task.c ****     Chassis.ChassisMotionEst.F_data[23] = dt * dt * 0.5f;
 413              		.loc 1 809 41 view .LVU115
 414 0058 83ED168A 		vstr.32	s16, [r3, #88]
 810:Application/chassis_task.c ****     Chassis.ChassisMotionEst.F_data[29] = dt;
 415              		.loc 1 810 5 is_stmt 1 view .LVU116
 810:Application/chassis_task.c ****     Chassis.ChassisMotionEst.F_data[29] = dt;
 416              		.loc 1 810 29 is_stmt 0 view .LVU117
 417 005c D0F82031 		ldr	r3, [r0, #288]
 810:Application/chassis_task.c ****     Chassis.ChassisMotionEst.F_data[29] = dt;
 418              		.loc 1 810 41 view .LVU118
 419 0060 83ED177A 		vstr.32	s14, [r3, #92]
 811:Application/chassis_task.c **** 
 420              		.loc 1 811 5 is_stmt 1 view .LVU119
 811:Application/chassis_task.c **** 
 421              		.loc 1 811 29 is_stmt 0 view .LVU120
 422 0064 D0F82031 		ldr	r3, [r0, #288]
 811:Application/chassis_task.c **** 
 423              		.loc 1 811 41 view .LVU121
 424 0068 83ED1D8A 		vstr.32	s16, [r3, #116]
 813:Application/chassis_task.c ****     ChassisMotionEst_Q[1] = dt * dt * dt * dt * dt / 12.0f * sigmaSqrt[X];
 425              		.loc 1 813 5 is_stmt 1 view .LVU122
 813:Application/chassis_task.c ****     ChassisMotionEst_Q[1] = dt * dt * dt * dt * dt / 12.0f * sigmaSqrt[X];
 426              		.loc 1 813 37 is_stmt 0 view .LVU123
 427 006c 25EE887A 		vmul.f32	s14, s11, s16
 813:Application/chassis_task.c ****     ChassisMotionEst_Q[1] = dt * dt * dt * dt * dt / 12.0f * sigmaSqrt[X];
 428              		.loc 1 813 42 view .LVU124
 429 0070 67EE086A 		vmul.f32	s13, s14, s16
 813:Application/chassis_task.c ****     ChassisMotionEst_Q[1] = dt * dt * dt * dt * dt / 12.0f * sigmaSqrt[X];
 430              		.loc 1 813 47 view .LVU125
 431 0074 26EE885A 		vmul.f32	s10, s13, s16
 813:Application/chassis_task.c ****     ChassisMotionEst_Q[1] = dt * dt * dt * dt * dt / 12.0f * sigmaSqrt[X];
 432              		.loc 1 813 52 view .LVU126
 433 0078 65EE084A 		vmul.f32	s9, s10, s16
 813:Application/chassis_task.c ****     ChassisMotionEst_Q[1] = dt * dt * dt * dt * dt / 12.0f * sigmaSqrt[X];
 434              		.loc 1 813 57 view .LVU127
 435 007c 9FEDAC6A 		vldr.32	s12, .L37+12
 436 0080 C4EE863A 		vdiv.f32	s7, s9, s12
 813:Application/chassis_task.c ****     ChassisMotionEst_Q[1] = dt * dt * dt * dt * dt / 12.0f * sigmaSqrt[X];
 437              		.loc 1 813 76 view .LVU128
 438 0084 A84A     		ldr	r2, .L37+4
 439 0086 92ED006A 		vldr.32	s12, [r2]
 813:Application/chassis_task.c ****     ChassisMotionEst_Q[1] = dt * dt * dt * dt * dt / 12.0f * sigmaSqrt[X];
 440              		.loc 1 813 65 view .LVU129
 441 008a 63EE864A 		vmul.f32	s9, s7, s12
 813:Application/chassis_task.c ****     ChassisMotionEst_Q[1] = dt * dt * dt * dt * dt / 12.0f * sigmaSqrt[X];
 442              		.loc 1 813 27 view .LVU130
 443 008e A94B     		ldr	r3, .L37+16
ARM GAS  C:\Users\86152\AppData\Local\Temp\ccWGVtEI.s 			page 27


 444 0090 C3ED004A 		vstr.32	s9, [r3]
 814:Application/chassis_task.c ****     ChassisMotionEst_Q[2] = dt * dt * dt * dt / 6.0f * sigmaSqrt[X];
 445              		.loc 1 814 5 is_stmt 1 view .LVU131
 814:Application/chassis_task.c ****     ChassisMotionEst_Q[2] = dt * dt * dt * dt / 6.0f * sigmaSqrt[X];
 446              		.loc 1 814 52 is_stmt 0 view .LVU132
 447 0094 F2EE084A 		vmov.f32	s9, #1.2e+1
 448 0098 85EE244A 		vdiv.f32	s8, s10, s9
 814:Application/chassis_task.c ****     ChassisMotionEst_Q[2] = dt * dt * dt * dt / 6.0f * sigmaSqrt[X];
 449              		.loc 1 814 60 view .LVU133
 450 009c 26EE045A 		vmul.f32	s10, s12, s8
 814:Application/chassis_task.c ****     ChassisMotionEst_Q[2] = dt * dt * dt * dt / 6.0f * sigmaSqrt[X];
 451              		.loc 1 814 27 view .LVU134
 452 00a0 83ED015A 		vstr.32	s10, [r3, #4]
 815:Application/chassis_task.c ****     ChassisMotionEst_Q[6] = dt * dt * dt * dt * dt / 12.0f * sigmaSqrt[X];
 453              		.loc 1 815 5 is_stmt 1 view .LVU135
 815:Application/chassis_task.c ****     ChassisMotionEst_Q[6] = dt * dt * dt * dt * dt / 12.0f * sigmaSqrt[X];
 454              		.loc 1 815 47 is_stmt 0 view .LVU136
 455 00a4 B1EE083A 		vmov.f32	s6, #6.0e+0
 456 00a8 C6EE834A 		vdiv.f32	s9, s13, s6
 815:Application/chassis_task.c ****     ChassisMotionEst_Q[6] = dt * dt * dt * dt * dt / 12.0f * sigmaSqrt[X];
 457              		.loc 1 815 54 view .LVU137
 458 00ac 26EE243A 		vmul.f32	s6, s12, s9
 815:Application/chassis_task.c ****     ChassisMotionEst_Q[6] = dt * dt * dt * dt * dt / 12.0f * sigmaSqrt[X];
 459              		.loc 1 815 27 view .LVU138
 460 00b0 83ED023A 		vstr.32	s6, [r3, #8]
 816:Application/chassis_task.c ****     ChassisMotionEst_Q[7] = dt * dt * dt * dt / 4.0f * sigmaSqrt[X];
 461              		.loc 1 816 5 is_stmt 1 view .LVU139
 816:Application/chassis_task.c ****     ChassisMotionEst_Q[7] = dt * dt * dt * dt / 4.0f * sigmaSqrt[X];
 462              		.loc 1 816 27 is_stmt 0 view .LVU140
 463 00b4 83ED065A 		vstr.32	s10, [r3, #24]
 817:Application/chassis_task.c ****     ChassisMotionEst_Q[8] = dt * dt * dt / 2.0f * sigmaSqrt[X];
 464              		.loc 1 817 5 is_stmt 1 view .LVU141
 817:Application/chassis_task.c ****     ChassisMotionEst_Q[8] = dt * dt * dt / 2.0f * sigmaSqrt[X];
 465              		.loc 1 817 47 is_stmt 0 view .LVU142
 466 00b8 B5EE005A 		vmov.f32	s10, #2.5e-1
 467 00bc 66EE856A 		vmul.f32	s13, s13, s10
 817:Application/chassis_task.c ****     ChassisMotionEst_Q[8] = dt * dt * dt / 2.0f * sigmaSqrt[X];
 468              		.loc 1 817 54 view .LVU143
 469 00c0 66EE262A 		vmul.f32	s5, s12, s13
 817:Application/chassis_task.c ****     ChassisMotionEst_Q[8] = dt * dt * dt / 2.0f * sigmaSqrt[X];
 470              		.loc 1 817 27 view .LVU144
 471 00c4 C3ED072A 		vstr.32	s5, [r3, #28]
 818:Application/chassis_task.c ****     ChassisMotionEst_Q[12] = dt * dt * dt * dt / 6.0f * sigmaSqrt[X];
 472              		.loc 1 818 5 is_stmt 1 view .LVU145
 818:Application/chassis_task.c ****     ChassisMotionEst_Q[12] = dt * dt * dt * dt / 6.0f * sigmaSqrt[X];
 473              		.loc 1 818 42 is_stmt 0 view .LVU146
 474 00c8 27EE277A 		vmul.f32	s14, s14, s15
 818:Application/chassis_task.c ****     ChassisMotionEst_Q[12] = dt * dt * dt * dt / 6.0f * sigmaSqrt[X];
 475              		.loc 1 818 49 view .LVU147
 476 00cc 66EE077A 		vmul.f32	s15, s12, s14
 818:Application/chassis_task.c ****     ChassisMotionEst_Q[12] = dt * dt * dt * dt / 6.0f * sigmaSqrt[X];
 477              		.loc 1 818 27 view .LVU148
 478 00d0 C3ED087A 		vstr.32	s15, [r3, #32]
 819:Application/chassis_task.c ****     ChassisMotionEst_Q[13] = dt * dt * dt / 2.0f * sigmaSqrt[X];
 479              		.loc 1 819 5 is_stmt 1 view .LVU149
 819:Application/chassis_task.c ****     ChassisMotionEst_Q[13] = dt * dt * dt / 2.0f * sigmaSqrt[X];
 480              		.loc 1 819 28 is_stmt 0 view .LVU150
ARM GAS  C:\Users\86152\AppData\Local\Temp\ccWGVtEI.s 			page 28


 481 00d4 83ED0C3A 		vstr.32	s6, [r3, #48]
 820:Application/chassis_task.c ****     ChassisMotionEst_Q[14] = dt * dt * sigmaSqrt[X];
 482              		.loc 1 820 5 is_stmt 1 view .LVU151
 820:Application/chassis_task.c ****     ChassisMotionEst_Q[14] = dt * dt * sigmaSqrt[X];
 483              		.loc 1 820 28 is_stmt 0 view .LVU152
 484 00d8 C3ED0D7A 		vstr.32	s15, [r3, #52]
 821:Application/chassis_task.c **** 
 485              		.loc 1 821 5 is_stmt 1 view .LVU153
 821:Application/chassis_task.c **** 
 486              		.loc 1 821 38 is_stmt 0 view .LVU154
 487 00dc 25EE866A 		vmul.f32	s12, s11, s12
 821:Application/chassis_task.c **** 
 488              		.loc 1 821 28 view .LVU155
 489 00e0 83ED0E6A 		vstr.32	s12, [r3, #56]
 823:Application/chassis_task.c ****     ChassisMotionEst_Q[22] = dt * dt * dt * dt * dt / 12.0f * sigmaSqrt[Y];
 490              		.loc 1 823 5 is_stmt 1 view .LVU156
 823:Application/chassis_task.c ****     ChassisMotionEst_Q[22] = dt * dt * dt * dt * dt / 12.0f * sigmaSqrt[Y];
 491              		.loc 1 823 77 is_stmt 0 view .LVU157
 492 00e4 D2ED017A 		vldr.32	s15, [r2, #4]
 823:Application/chassis_task.c ****     ChassisMotionEst_Q[22] = dt * dt * dt * dt * dt / 12.0f * sigmaSqrt[Y];
 493              		.loc 1 823 66 view .LVU158
 494 00e8 63EEA73A 		vmul.f32	s7, s7, s15
 823:Application/chassis_task.c ****     ChassisMotionEst_Q[22] = dt * dt * dt * dt * dt / 12.0f * sigmaSqrt[Y];
 495              		.loc 1 823 28 view .LVU159
 496 00ec C3ED153A 		vstr.32	s7, [r3, #84]
 824:Application/chassis_task.c ****     ChassisMotionEst_Q[23] = dt * dt * dt * dt / 6.0f * sigmaSqrt[Y];
 497              		.loc 1 824 5 is_stmt 1 view .LVU160
 824:Application/chassis_task.c ****     ChassisMotionEst_Q[23] = dt * dt * dt * dt / 6.0f * sigmaSqrt[Y];
 498              		.loc 1 824 61 is_stmt 0 view .LVU161
 499 00f0 24EE274A 		vmul.f32	s8, s8, s15
 824:Application/chassis_task.c ****     ChassisMotionEst_Q[23] = dt * dt * dt * dt / 6.0f * sigmaSqrt[Y];
 500              		.loc 1 824 28 view .LVU162
 501 00f4 83ED164A 		vstr.32	s8, [r3, #88]
 825:Application/chassis_task.c ****     ChassisMotionEst_Q[27] = dt * dt * dt * dt * dt / 12.0f * sigmaSqrt[Y];
 502              		.loc 1 825 5 is_stmt 1 view .LVU163
 825:Application/chassis_task.c ****     ChassisMotionEst_Q[27] = dt * dt * dt * dt * dt / 12.0f * sigmaSqrt[Y];
 503              		.loc 1 825 55 is_stmt 0 view .LVU164
 504 00f8 24EEA76A 		vmul.f32	s12, s9, s15
 825:Application/chassis_task.c ****     ChassisMotionEst_Q[27] = dt * dt * dt * dt * dt / 12.0f * sigmaSqrt[Y];
 505              		.loc 1 825 28 view .LVU165
 506 00fc 83ED176A 		vstr.32	s12, [r3, #92]
 826:Application/chassis_task.c ****     ChassisMotionEst_Q[28] = dt * dt * dt * dt / 4.0f * sigmaSqrt[Y];
 507              		.loc 1 826 5 is_stmt 1 view .LVU166
 826:Application/chassis_task.c ****     ChassisMotionEst_Q[28] = dt * dt * dt * dt / 4.0f * sigmaSqrt[Y];
 508              		.loc 1 826 28 is_stmt 0 view .LVU167
 509 0100 83ED1B4A 		vstr.32	s8, [r3, #108]
 827:Application/chassis_task.c ****     ChassisMotionEst_Q[29] = dt * dt * dt / 2.0f * sigmaSqrt[Y];
 510              		.loc 1 827 5 is_stmt 1 view .LVU168
 827:Application/chassis_task.c ****     ChassisMotionEst_Q[29] = dt * dt * dt / 2.0f * sigmaSqrt[Y];
 511              		.loc 1 827 55 is_stmt 0 view .LVU169
 512 0104 66EEA76A 		vmul.f32	s13, s13, s15
 827:Application/chassis_task.c ****     ChassisMotionEst_Q[29] = dt * dt * dt / 2.0f * sigmaSqrt[Y];
 513              		.loc 1 827 28 view .LVU170
 514 0108 C3ED1C6A 		vstr.32	s13, [r3, #112]
 828:Application/chassis_task.c ****     ChassisMotionEst_Q[33] = dt * dt * dt * dt / 6.0f * sigmaSqrt[Y];
 515              		.loc 1 828 5 is_stmt 1 view .LVU171
 828:Application/chassis_task.c ****     ChassisMotionEst_Q[33] = dt * dt * dt * dt / 6.0f * sigmaSqrt[Y];
ARM GAS  C:\Users\86152\AppData\Local\Temp\ccWGVtEI.s 			page 29


 516              		.loc 1 828 50 is_stmt 0 view .LVU172
 517 010c 27EE277A 		vmul.f32	s14, s14, s15
 828:Application/chassis_task.c ****     ChassisMotionEst_Q[33] = dt * dt * dt * dt / 6.0f * sigmaSqrt[Y];
 518              		.loc 1 828 28 view .LVU173
 519 0110 83ED1D7A 		vstr.32	s14, [r3, #116]
 829:Application/chassis_task.c ****     ChassisMotionEst_Q[34] = dt * dt * dt / 2.0f * sigmaSqrt[Y];
 520              		.loc 1 829 5 is_stmt 1 view .LVU174
 829:Application/chassis_task.c ****     ChassisMotionEst_Q[34] = dt * dt * dt / 2.0f * sigmaSqrt[Y];
 521              		.loc 1 829 28 is_stmt 0 view .LVU175
 522 0114 83ED216A 		vstr.32	s12, [r3, #132]
 830:Application/chassis_task.c ****     ChassisMotionEst_Q[35] = dt * dt * sigmaSqrt[Y];
 523              		.loc 1 830 5 is_stmt 1 view .LVU176
 830:Application/chassis_task.c ****     ChassisMotionEst_Q[35] = dt * dt * sigmaSqrt[Y];
 524              		.loc 1 830 28 is_stmt 0 view .LVU177
 525 0118 83ED227A 		vstr.32	s14, [r3, #136]
 831:Application/chassis_task.c **** 
 526              		.loc 1 831 5 is_stmt 1 view .LVU178
 831:Application/chassis_task.c **** 
 527              		.loc 1 831 38 is_stmt 0 view .LVU179
 528 011c 65EEA75A 		vmul.f32	s11, s11, s15
 831:Application/chassis_task.c **** 
 529              		.loc 1 831 28 view .LVU180
 530 0120 C3ED235A 		vstr.32	s11, [r3, #140]
 833:Application/chassis_task.c ****     Chassis.V2_is = ((Chassis.ChassisMotor[1].Velocity_RPM) * 2 * pi / 60) * wheel_radius / 10 / 14
 531              		.loc 1 833 5 is_stmt 1 view .LVU181
 833:Application/chassis_task.c ****     Chassis.V2_is = ((Chassis.ChassisMotor[1].Velocity_RPM) * 2 * pi / 60) * wheel_radius / 10 / 14
 532              		.loc 1 833 46 is_stmt 0 view .LVU182
 533 0124 90ED907A 		vldr.32	s14, [r0, #576]
 833:Application/chassis_task.c ****     Chassis.V2_is = ((Chassis.ChassisMotor[1].Velocity_RPM) * 2 * pi / 60) * wheel_radius / 10 / 14
 534              		.loc 1 833 61 view .LVU183
 535 0128 37EE077A 		vadd.f32	s14, s14, s14
 833:Application/chassis_task.c ****     Chassis.V2_is = ((Chassis.ChassisMotor[1].Velocity_RPM) * 2 * pi / 60) * wheel_radius / 10 / 14
 536              		.loc 1 833 65 view .LVU184
 537 012c DFED823A 		vldr.32	s7, .L37+20
 538 0130 67EE236A 		vmul.f32	s13, s14, s7
 833:Application/chassis_task.c ****     Chassis.V2_is = ((Chassis.ChassisMotor[1].Velocity_RPM) * 2 * pi / 60) * wheel_radius / 10 / 14
 539              		.loc 1 833 70 view .LVU185
 540 0134 9FED814A 		vldr.32	s8, .L37+24
 541 0138 C6EE847A 		vdiv.f32	s15, s13, s8
 833:Application/chassis_task.c ****     Chassis.V2_is = ((Chassis.ChassisMotor[1].Velocity_RPM) * 2 * pi / 60) * wheel_radius / 10 / 14
 542              		.loc 1 833 76 view .LVU186
 543 013c DFED804A 		vldr.32	s9, .L37+28
 544 0140 67EEA47A 		vmul.f32	s15, s15, s9
 833:Application/chassis_task.c ****     Chassis.V2_is = ((Chassis.ChassisMotor[1].Velocity_RPM) * 2 * pi / 60) * wheel_radius / 10 / 14
 545              		.loc 1 833 91 view .LVU187
 546 0144 F2EE045A 		vmov.f32	s11, #1.0e+1
 547 0148 87EEA57A 		vdiv.f32	s14, s15, s11
 833:Application/chassis_task.c ****     Chassis.V2_is = ((Chassis.ChassisMotor[1].Velocity_RPM) * 2 * pi / 60) * wheel_radius / 10 / 14
 548              		.loc 1 833 96 view .LVU188
 549 014c B2EE0C6A 		vmov.f32	s12, #1.4e+1
 550 0150 C7EE067A 		vdiv.f32	s15, s14, s12
 833:Application/chassis_task.c ****     Chassis.V2_is = ((Chassis.ChassisMotor[1].Velocity_RPM) * 2 * pi / 60) * wheel_radius / 10 / 14
 551              		.loc 1 833 19 view .LVU189
 552 0154 C0ED617A 		vstr.32	s15, [r0, #388]
 834:Application/chassis_task.c ****     Chassis.V3_is = ((Chassis.ChassisMotor[2].Velocity_RPM) * 2 * pi / 60) * wheel_radius / 10 / 14
 553              		.loc 1 834 5 is_stmt 1 view .LVU190
 834:Application/chassis_task.c ****     Chassis.V3_is = ((Chassis.ChassisMotor[2].Velocity_RPM) * 2 * pi / 60) * wheel_radius / 10 / 14
ARM GAS  C:\Users\86152\AppData\Local\Temp\ccWGVtEI.s 			page 30


 554              		.loc 1 834 46 is_stmt 0 view .LVU191
 555 0158 00F5E563 		add	r3, r0, #1832
 556 015c D3ED006A 		vldr.32	s13, [r3]
 834:Application/chassis_task.c ****     Chassis.V3_is = ((Chassis.ChassisMotor[2].Velocity_RPM) * 2 * pi / 60) * wheel_radius / 10 / 14
 557              		.loc 1 834 61 view .LVU192
 558 0160 76EEA66A 		vadd.f32	s13, s13, s13
 834:Application/chassis_task.c ****     Chassis.V3_is = ((Chassis.ChassisMotor[2].Velocity_RPM) * 2 * pi / 60) * wheel_radius / 10 / 14
 559              		.loc 1 834 65 view .LVU193
 560 0164 66EEA36A 		vmul.f32	s13, s13, s7
 834:Application/chassis_task.c ****     Chassis.V3_is = ((Chassis.ChassisMotor[2].Velocity_RPM) * 2 * pi / 60) * wheel_radius / 10 / 14
 561              		.loc 1 834 70 view .LVU194
 562 0168 86EE847A 		vdiv.f32	s14, s13, s8
 834:Application/chassis_task.c ****     Chassis.V3_is = ((Chassis.ChassisMotor[2].Velocity_RPM) * 2 * pi / 60) * wheel_radius / 10 / 14
 563              		.loc 1 834 76 view .LVU195
 564 016c 27EE247A 		vmul.f32	s14, s14, s9
 834:Application/chassis_task.c ****     Chassis.V3_is = ((Chassis.ChassisMotor[2].Velocity_RPM) * 2 * pi / 60) * wheel_radius / 10 / 14
 565              		.loc 1 834 91 view .LVU196
 566 0170 C7EE256A 		vdiv.f32	s13, s14, s11
 834:Application/chassis_task.c ****     Chassis.V3_is = ((Chassis.ChassisMotor[2].Velocity_RPM) * 2 * pi / 60) * wheel_radius / 10 / 14
 567              		.loc 1 834 96 view .LVU197
 568 0174 C6EE862A 		vdiv.f32	s5, s13, s12
 834:Application/chassis_task.c ****     Chassis.V3_is = ((Chassis.ChassisMotor[2].Velocity_RPM) * 2 * pi / 60) * wheel_radius / 10 / 14
 569              		.loc 1 834 19 view .LVU198
 570 0178 C0ED622A 		vstr.32	s5, [r0, #392]
 835:Application/chassis_task.c ****     Chassis.V4_is = ((Chassis.ChassisMotor[3].Velocity_RPM) * 2 * pi / 60) * wheel_radius / 10 / 14
 571              		.loc 1 835 5 is_stmt 1 view .LVU199
 835:Application/chassis_task.c ****     Chassis.V4_is = ((Chassis.ChassisMotor[3].Velocity_RPM) * 2 * pi / 60) * wheel_radius / 10 / 14
 572              		.loc 1 835 46 is_stmt 0 view .LVU200
 573 017c 00F54163 		add	r3, r0, #3088
 574 0180 D3ED006A 		vldr.32	s13, [r3]
 835:Application/chassis_task.c ****     Chassis.V4_is = ((Chassis.ChassisMotor[3].Velocity_RPM) * 2 * pi / 60) * wheel_radius / 10 / 14
 575              		.loc 1 835 61 view .LVU201
 576 0184 76EEA66A 		vadd.f32	s13, s13, s13
 835:Application/chassis_task.c ****     Chassis.V4_is = ((Chassis.ChassisMotor[3].Velocity_RPM) * 2 * pi / 60) * wheel_radius / 10 / 14
 577              		.loc 1 835 65 view .LVU202
 578 0188 66EEA36A 		vmul.f32	s13, s13, s7
 835:Application/chassis_task.c ****     Chassis.V4_is = ((Chassis.ChassisMotor[3].Velocity_RPM) * 2 * pi / 60) * wheel_radius / 10 / 14
 579              		.loc 1 835 70 view .LVU203
 580 018c 86EE847A 		vdiv.f32	s14, s13, s8
 835:Application/chassis_task.c ****     Chassis.V4_is = ((Chassis.ChassisMotor[3].Velocity_RPM) * 2 * pi / 60) * wheel_radius / 10 / 14
 581              		.loc 1 835 76 view .LVU204
 582 0190 27EE247A 		vmul.f32	s14, s14, s9
 835:Application/chassis_task.c ****     Chassis.V4_is = ((Chassis.ChassisMotor[3].Velocity_RPM) * 2 * pi / 60) * wheel_radius / 10 / 14
 583              		.loc 1 835 91 view .LVU205
 584 0194 C7EE256A 		vdiv.f32	s13, s14, s11
 835:Application/chassis_task.c ****     Chassis.V4_is = ((Chassis.ChassisMotor[3].Velocity_RPM) * 2 * pi / 60) * wheel_radius / 10 / 14
 585              		.loc 1 835 96 view .LVU206
 586 0198 86EE863A 		vdiv.f32	s6, s13, s12
 835:Application/chassis_task.c ****     Chassis.V4_is = ((Chassis.ChassisMotor[3].Velocity_RPM) * 2 * pi / 60) * wheel_radius / 10 / 14
 587              		.loc 1 835 19 view .LVU207
 588 019c 80ED633A 		vstr.32	s6, [r0, #396]
 836:Application/chassis_task.c **** 
 589              		.loc 1 836 5 is_stmt 1 view .LVU208
 836:Application/chassis_task.c **** 
 590              		.loc 1 836 46 is_stmt 0 view .LVU209
 591 01a0 00F58053 		add	r3, r0, #4096
 592 01a4 93ED3E7A 		vldr.32	s14, [r3, #248]
ARM GAS  C:\Users\86152\AppData\Local\Temp\ccWGVtEI.s 			page 31


 836:Application/chassis_task.c **** 
 593              		.loc 1 836 61 view .LVU210
 594 01a8 37EE077A 		vadd.f32	s14, s14, s14
 836:Application/chassis_task.c **** 
 595              		.loc 1 836 65 view .LVU211
 596 01ac 27EE237A 		vmul.f32	s14, s14, s7
 836:Application/chassis_task.c **** 
 597              		.loc 1 836 70 view .LVU212
 598 01b0 C7EE046A 		vdiv.f32	s13, s14, s8
 836:Application/chassis_task.c **** 
 599              		.loc 1 836 76 view .LVU213
 600 01b4 66EEA44A 		vmul.f32	s9, s13, s9
 836:Application/chassis_task.c **** 
 601              		.loc 1 836 91 view .LVU214
 602 01b8 84EEA57A 		vdiv.f32	s14, s9, s11
 836:Application/chassis_task.c **** 
 603              		.loc 1 836 96 view .LVU215
 604 01bc C7EE066A 		vdiv.f32	s13, s14, s12
 836:Application/chassis_task.c **** 
 605              		.loc 1 836 19 view .LVU216
 606 01c0 C0ED646A 		vstr.32	s13, [r0, #400]
 838:Application/chassis_task.c ****     Chassis.Vy_is = (Chassis.V1_is + Chassis.V2_is - Chassis.V3_is - Chassis.V4_is) * Ky;
 607              		.loc 1 838 5 is_stmt 1 view .LVU217
 838:Application/chassis_task.c ****     Chassis.Vy_is = (Chassis.V1_is + Chassis.V2_is - Chassis.V3_is - Chassis.V4_is) * Ky;
 608              		.loc 1 838 36 is_stmt 0 view .LVU218
 609 01c4 32EE837A 		vadd.f32	s14, s5, s6
 838:Application/chassis_task.c ****     Chassis.Vy_is = (Chassis.V1_is + Chassis.V2_is - Chassis.V3_is - Chassis.V4_is) * Ky;
 610              		.loc 1 838 52 view .LVU219
 611 01c8 37EE677A 		vsub.f32	s14, s14, s15
 838:Application/chassis_task.c ****     Chassis.Vy_is = (Chassis.V1_is + Chassis.V2_is - Chassis.V3_is - Chassis.V4_is) * Ky;
 612              		.loc 1 838 68 view .LVU220
 613 01cc 37EE667A 		vsub.f32	s14, s14, s13
 838:Application/chassis_task.c ****     Chassis.Vy_is = (Chassis.V1_is + Chassis.V2_is - Chassis.V3_is - Chassis.V4_is) * Ky;
 614              		.loc 1 838 85 view .LVU221
 615 01d0 27EE057A 		vmul.f32	s14, s14, s10
 838:Application/chassis_task.c ****     Chassis.Vy_is = (Chassis.V1_is + Chassis.V2_is - Chassis.V3_is - Chassis.V4_is) * Ky;
 616              		.loc 1 838 19 view .LVU222
 617 01d4 80ED657A 		vstr.32	s14, [r0, #404]
 839:Application/chassis_task.c **** 
 618              		.loc 1 839 5 is_stmt 1 view .LVU223
 839:Application/chassis_task.c **** 
 619              		.loc 1 839 36 is_stmt 0 view .LVU224
 620 01d8 77EEA27A 		vadd.f32	s15, s15, s5
 839:Application/chassis_task.c **** 
 621              		.loc 1 839 52 view .LVU225
 622 01dc 77EEC37A 		vsub.f32	s15, s15, s6
 839:Application/chassis_task.c **** 
 623              		.loc 1 839 68 view .LVU226
 624 01e0 77EEE67A 		vsub.f32	s15, s15, s13
 839:Application/chassis_task.c **** 
 625              		.loc 1 839 85 view .LVU227
 626 01e4 67EE857A 		vmul.f32	s15, s15, s10
 839:Application/chassis_task.c **** 
 627              		.loc 1 839 19 view .LVU228
 628 01e8 C0ED667A 		vstr.32	s15, [r0, #408]
 844:Application/chassis_task.c ****     Chassis.ChassisMotionEst.MeasuredVector[1] = BMI088.Accel[0] * 100.0f;
 629              		.loc 1 844 5 is_stmt 1 view .LVU229
ARM GAS  C:\Users\86152\AppData\Local\Temp\ccWGVtEI.s 			page 32


 844:Application/chassis_task.c ****     Chassis.ChassisMotionEst.MeasuredVector[1] = BMI088.Accel[0] * 100.0f;
 630              		.loc 1 844 29 is_stmt 0 view .LVU230
 631 01ec 436A     		ldr	r3, [r0, #36]
 844:Application/chassis_task.c ****     Chassis.ChassisMotionEst.MeasuredVector[1] = BMI088.Accel[0] * 100.0f;
 632              		.loc 1 844 48 view .LVU231
 633 01ee 83ED007A 		vstr.32	s14, [r3]
 845:Application/chassis_task.c ****     Chassis.ChassisMotionEst.MeasuredVector[2] = Chassis.Vy_is;
 634              		.loc 1 845 5 is_stmt 1 view .LVU232
 845:Application/chassis_task.c ****     Chassis.ChassisMotionEst.MeasuredVector[2] = Chassis.Vy_is;
 635              		.loc 1 845 62 is_stmt 0 view .LVU233
 636 01f2 544B     		ldr	r3, .L37+32
 637 01f4 93ED007A 		vldr.32	s14, [r3]
 845:Application/chassis_task.c ****     Chassis.ChassisMotionEst.MeasuredVector[2] = Chassis.Vy_is;
 638              		.loc 1 845 29 view .LVU234
 639 01f8 426A     		ldr	r2, [r0, #36]
 845:Application/chassis_task.c ****     Chassis.ChassisMotionEst.MeasuredVector[2] = Chassis.Vy_is;
 640              		.loc 1 845 66 view .LVU235
 641 01fa DFED536A 		vldr.32	s13, .L37+36
 642 01fe 27EE267A 		vmul.f32	s14, s14, s13
 845:Application/chassis_task.c ****     Chassis.ChassisMotionEst.MeasuredVector[2] = Chassis.Vy_is;
 643              		.loc 1 845 48 view .LVU236
 644 0202 82ED017A 		vstr.32	s14, [r2, #4]
 846:Application/chassis_task.c ****     Chassis.ChassisMotionEst.MeasuredVector[3] = BMI088.Accel[1] * 100.0f;
 645              		.loc 1 846 5 is_stmt 1 view .LVU237
 846:Application/chassis_task.c ****     Chassis.ChassisMotionEst.MeasuredVector[3] = BMI088.Accel[1] * 100.0f;
 646              		.loc 1 846 29 is_stmt 0 view .LVU238
 647 0206 426A     		ldr	r2, [r0, #36]
 846:Application/chassis_task.c ****     Chassis.ChassisMotionEst.MeasuredVector[3] = BMI088.Accel[1] * 100.0f;
 648              		.loc 1 846 57 view .LVU239
 649 0208 D0F89811 		ldr	r1, [r0, #408]	@ float
 846:Application/chassis_task.c ****     Chassis.ChassisMotionEst.MeasuredVector[3] = BMI088.Accel[1] * 100.0f;
 650              		.loc 1 846 48 view .LVU240
 651 020c 9160     		str	r1, [r2, #8]	@ float
 847:Application/chassis_task.c **** 
 652              		.loc 1 847 5 is_stmt 1 view .LVU241
 847:Application/chassis_task.c **** 
 653              		.loc 1 847 62 is_stmt 0 view .LVU242
 654 020e D3ED017A 		vldr.32	s15, [r3, #4]
 847:Application/chassis_task.c **** 
 655              		.loc 1 847 29 view .LVU243
 656 0212 436A     		ldr	r3, [r0, #36]
 847:Application/chassis_task.c **** 
 657              		.loc 1 847 66 view .LVU244
 658 0214 67EEA67A 		vmul.f32	s15, s15, s13
 847:Application/chassis_task.c **** 
 659              		.loc 1 847 48 view .LVU245
 660 0218 C3ED037A 		vstr.32	s15, [r3, #12]
 849:Application/chassis_task.c **** 
 661              		.loc 1 849 5 is_stmt 1 view .LVU246
 662 021c 2030     		adds	r0, r0, #32
 663 021e FFF7FEFF 		bl	Kalman_Filter_Update
 664              	.LVL18:
 851:Application/chassis_task.c ****     {
 665              		.loc 1 851 5 view .LVU247
 666              	.LBB7:
 851:Application/chassis_task.c ****     {
 667              		.loc 1 851 10 view .LVU248
ARM GAS  C:\Users\86152\AppData\Local\Temp\ccWGVtEI.s 			page 33


 851:Application/chassis_task.c ****     {
 668              		.loc 1 851 18 is_stmt 0 view .LVU249
 669 0222 0023     		movs	r3, #0
 851:Application/chassis_task.c ****     {
 670              		.loc 1 851 5 view .LVU250
 671 0224 01E0     		b	.L29
 672              	.LVL19:
 673              	.L31:
 851:Application/chassis_task.c ****     {
 674              		.loc 1 851 64 is_stmt 1 discriminator 2 view .LVU251
 851:Application/chassis_task.c ****     {
 675              		.loc 1 851 65 is_stmt 0 discriminator 2 view .LVU252
 676 0226 0133     		adds	r3, r3, #1
 677              	.LVL20:
 851:Application/chassis_task.c ****     {
 678              		.loc 1 851 65 discriminator 2 view .LVU253
 679 0228 DBB2     		uxtb	r3, r3
 680              	.LVL21:
 681              	.L29:
 851:Application/chassis_task.c ****     {
 682              		.loc 1 851 25 is_stmt 1 discriminator 1 view .LVU254
 851:Application/chassis_task.c ****     {
 683              		.loc 1 851 53 is_stmt 0 discriminator 1 view .LVU255
 684 022a 404A     		ldr	r2, .L37+8
 685 022c 92F82C20 		ldrb	r2, [r2, #44]	@ zero_extendqisi2
 851:Application/chassis_task.c ****     {
 686              		.loc 1 851 5 discriminator 1 view .LVU256
 687 0230 9A42     		cmp	r2, r3
 688 0232 3DD9     		bls	.L36
 853:Application/chassis_task.c ****             Chassis.ChassisMotionEst.xhat_data[i] = 0;
 689              		.loc 1 853 9 is_stmt 1 view .LVU257
 853:Application/chassis_task.c ****             Chassis.ChassisMotionEst.xhat_data[i] = 0;
 690              		.loc 1 853 14 is_stmt 0 view .LVU258
 691 0234 3D4A     		ldr	r2, .L37+8
 692 0236 D2F80811 		ldr	r1, [r2, #264]
 693 023a 4FEA830C 		lsl	ip, r3, #2
 694 023e 01EB8301 		add	r1, r1, r3, lsl #2
 695 0242 D1ED007A 		vldr.32	s15, [r1]
 696 0246 F0EEE77A 		vabs.f32	s15, s15
 853:Application/chassis_task.c ****             Chassis.ChassisMotionEst.xhat_data[i] = 0;
 697              		.loc 1 853 13 view .LVU259
 698 024a 9FED407A 		vldr.32	s14, .L37+40
 699 024e F4EE477A 		vcmp.f32	s15, s14
 700 0252 F1EE10FA 		vmrs	APSR_nzcv, FPSCR
 701 0256 8CBF     		ite	hi
 702 0258 0120     		movhi	r0, #1
 703 025a 0020     		movls	r0, #0
 704 025c 9FED3C7A 		vldr.32	s14, .L37+44
 705 0260 F4EE477A 		vcmp.f32	s15, s14
 706 0264 F1EE10FA 		vmrs	APSR_nzcv, FPSCR
 707 0268 B8BF     		it	lt
 708 026a 40F00100 		orrlt	r0, r0, #1
 853:Application/chassis_task.c ****             Chassis.ChassisMotionEst.xhat_data[i] = 0;
 709              		.loc 1 853 12 view .LVU260
 710 026e 08B1     		cbz	r0, .L30
 854:Application/chassis_task.c ****         if (!isnormal(Chassis.ChassisMotionEst.FilteredValue[i]))
 711              		.loc 1 854 13 is_stmt 1 view .LVU261
ARM GAS  C:\Users\86152\AppData\Local\Temp\ccWGVtEI.s 			page 34


 854:Application/chassis_task.c ****         if (!isnormal(Chassis.ChassisMotionEst.FilteredValue[i]))
 712              		.loc 1 854 51 is_stmt 0 view .LVU262
 713 0270 0022     		movs	r2, #0
 714 0272 0A60     		str	r2, [r1]	@ float
 715              	.L30:
 855:Application/chassis_task.c ****             Chassis.ChassisMotionEst.FilteredValue[i] = 0;
 716              		.loc 1 855 9 is_stmt 1 view .LVU263
 855:Application/chassis_task.c ****             Chassis.ChassisMotionEst.FilteredValue[i] = 0;
 717              		.loc 1 855 14 is_stmt 0 view .LVU264
 718 0274 2D4A     		ldr	r2, .L37+8
 719 0276 126A     		ldr	r2, [r2, #32]
 720 0278 6244     		add	r2, r2, ip
 721 027a D2ED007A 		vldr.32	s15, [r2]
 722 027e F0EEE77A 		vabs.f32	s15, s15
 855:Application/chassis_task.c ****             Chassis.ChassisMotionEst.FilteredValue[i] = 0;
 723              		.loc 1 855 13 view .LVU265
 724 0282 9FED327A 		vldr.32	s14, .L37+40
 725 0286 F4EE477A 		vcmp.f32	s15, s14
 726 028a F1EE10FA 		vmrs	APSR_nzcv, FPSCR
 727 028e 8CBF     		ite	hi
 728 0290 0121     		movhi	r1, #1
 729 0292 0021     		movls	r1, #0
 730 0294 9FED2E7A 		vldr.32	s14, .L37+44
 731 0298 F4EE477A 		vcmp.f32	s15, s14
 732 029c F1EE10FA 		vmrs	APSR_nzcv, FPSCR
 733 02a0 B8BF     		it	lt
 734 02a2 41F00101 		orrlt	r1, r1, #1
 855:Application/chassis_task.c ****             Chassis.ChassisMotionEst.FilteredValue[i] = 0;
 735              		.loc 1 855 12 view .LVU266
 736 02a6 0029     		cmp	r1, #0
 737 02a8 BDD0     		beq	.L31
 856:Application/chassis_task.c ****     }
 738              		.loc 1 856 13 is_stmt 1 view .LVU267
 856:Application/chassis_task.c ****     }
 739              		.loc 1 856 55 is_stmt 0 view .LVU268
 740 02aa 0021     		movs	r1, #0
 741 02ac 1160     		str	r1, [r2]	@ float
 742 02ae BAE7     		b	.L31
 743              	.L36:
 744              	.LBE7:
 745              	.LBB8:
 859:Application/chassis_task.c ****     {
 746              		.loc 1 859 18 view .LVU269
 747 02b0 0023     		movs	r3, #0
 748              	.LVL22:
 859:Application/chassis_task.c ****     {
 749              		.loc 1 859 18 view .LVU270
 750 02b2 1DE0     		b	.L33
 751              	.LVL23:
 752              	.L34:
 861:Application/chassis_task.c ****         Chassis.Velocity[i] = Chassis.ChassisMotionEst.FilteredValue[i * 3 + 1];
 753              		.loc 1 861 9 is_stmt 1 discriminator 3 view .LVU271
 861:Application/chassis_task.c ****         Chassis.Velocity[i] = Chassis.ChassisMotionEst.FilteredValue[i * 3 + 1];
 754              		.loc 1 861 55 is_stmt 0 discriminator 3 view .LVU272
 755 02b4 1D4A     		ldr	r2, .L37+8
 756 02b6 116A     		ldr	r1, [r2, #32]
 861:Application/chassis_task.c ****         Chassis.Velocity[i] = Chassis.ChassisMotionEst.FilteredValue[i * 3 + 1];
ARM GAS  C:\Users\86152\AppData\Local\Temp\ccWGVtEI.s 			page 35


 757              		.loc 1 861 69 discriminator 3 view .LVU273
 758 02b8 03EB4300 		add	r0, r3, r3, lsl #1
 759 02bc 01EB8001 		add	r1, r1, r0, lsl #2
 760 02c0 D1F800C0 		ldr	ip, [r1]	@ float
 861:Application/chassis_task.c ****         Chassis.Velocity[i] = Chassis.ChassisMotionEst.FilteredValue[i * 3 + 1];
 761              		.loc 1 861 29 discriminator 3 view .LVU274
 762 02c4 03F16A00 		add	r0, r3, #106
 763 02c8 02EB8000 		add	r0, r2, r0, lsl #2
 764 02cc C0F800C0 		str	ip, [r0]	@ float
 862:Application/chassis_task.c ****         Chassis.Accel[i] = Chassis.ChassisMotionEst.FilteredValue[i * 3 + 2];
 765              		.loc 1 862 9 is_stmt 1 discriminator 3 view .LVU275
 862:Application/chassis_task.c ****         Chassis.Accel[i] = Chassis.ChassisMotionEst.FilteredValue[i * 3 + 2];
 766              		.loc 1 862 69 is_stmt 0 discriminator 3 view .LVU276
 767 02d0 D1F804C0 		ldr	ip, [r1, #4]	@ float
 862:Application/chassis_task.c ****         Chassis.Accel[i] = Chassis.ChassisMotionEst.FilteredValue[i * 3 + 2];
 768              		.loc 1 862 29 discriminator 3 view .LVU277
 769 02d4 03F16E00 		add	r0, r3, #110
 770 02d8 02EB8000 		add	r0, r2, r0, lsl #2
 771 02dc C0F800C0 		str	ip, [r0]	@ float
 863:Application/chassis_task.c ****     }
 772              		.loc 1 863 9 is_stmt 1 discriminator 3 view .LVU278
 863:Application/chassis_task.c ****     }
 773              		.loc 1 863 66 is_stmt 0 discriminator 3 view .LVU279
 774 02e0 8968     		ldr	r1, [r1, #8]	@ float
 863:Application/chassis_task.c ****     }
 775              		.loc 1 863 26 discriminator 3 view .LVU280
 776 02e2 03F17000 		add	r0, r3, #112
 777 02e6 02EB8002 		add	r2, r2, r0, lsl #2
 778 02ea 1160     		str	r1, [r2]	@ float
 859:Application/chassis_task.c ****     {
 779              		.loc 1 859 32 is_stmt 1 discriminator 3 view .LVU281
 859:Application/chassis_task.c ****     {
 780              		.loc 1 859 33 is_stmt 0 discriminator 3 view .LVU282
 781 02ec 0133     		adds	r3, r3, #1
 782              	.LVL24:
 859:Application/chassis_task.c ****     {
 783              		.loc 1 859 33 discriminator 3 view .LVU283
 784 02ee DBB2     		uxtb	r3, r3
 785              	.LVL25:
 786              	.L33:
 859:Application/chassis_task.c ****     {
 787              		.loc 1 859 25 is_stmt 1 discriminator 1 view .LVU284
 859:Application/chassis_task.c ****     {
 788              		.loc 1 859 5 is_stmt 0 discriminator 1 view .LVU285
 789 02f0 012B     		cmp	r3, #1
 790 02f2 DFD9     		bls	.L34
 791              	.LBE8:
 866:Application/chassis_task.c ****     Chassis.V_Position[1] += Chassis.Vy_is * dt;
 792              		.loc 1 866 5 is_stmt 1 view .LVU286
 866:Application/chassis_task.c ****     Chassis.V_Position[1] += Chassis.Vy_is * dt;
 793              		.loc 1 866 37 is_stmt 0 view .LVU287
 794 02f4 0D4B     		ldr	r3, .L37+8
 795              	.LVL26:
 866:Application/chassis_task.c ****     Chassis.V_Position[1] += Chassis.Vy_is * dt;
 796              		.loc 1 866 37 view .LVU288
 797 02f6 D3ED657A 		vldr.32	s15, [r3, #404]
 866:Application/chassis_task.c ****     Chassis.V_Position[1] += Chassis.Vy_is * dt;
ARM GAS  C:\Users\86152\AppData\Local\Temp\ccWGVtEI.s 			page 36


 798              		.loc 1 866 44 view .LVU289
 799 02fa 27EE887A 		vmul.f32	s14, s15, s16
 866:Application/chassis_task.c ****     Chassis.V_Position[1] += Chassis.Vy_is * dt;
 800              		.loc 1 866 27 view .LVU290
 801 02fe D3ED6C7A 		vldr.32	s15, [r3, #432]
 802 0302 77EE877A 		vadd.f32	s15, s15, s14
 803 0306 C3ED6C7A 		vstr.32	s15, [r3, #432]
 867:Application/chassis_task.c **** }
 804              		.loc 1 867 5 is_stmt 1 view .LVU291
 867:Application/chassis_task.c **** }
 805              		.loc 1 867 37 is_stmt 0 view .LVU292
 806 030a 93ED660A 		vldr.32	s0, [r3, #408]
 867:Application/chassis_task.c **** }
 807              		.loc 1 867 44 view .LVU293
 808 030e 20EE080A 		vmul.f32	s0, s0, s16
 867:Application/chassis_task.c **** }
 809              		.loc 1 867 27 view .LVU294
 810 0312 93ED6D8A 		vldr.32	s16, [r3, #436]
 811              	.LVL27:
 867:Application/chassis_task.c **** }
 812              		.loc 1 867 27 view .LVU295
 813 0316 38EE008A 		vadd.f32	s16, s16, s0
 814 031a 83ED6D8A 		vstr.32	s16, [r3, #436]
 868:Application/chassis_task.c **** 
 815              		.loc 1 868 1 view .LVU296
 816 031e BDEC028B 		vldm	sp!, {d8}
 817              	.LCFI4:
 818              		.cfi_restore 80
 819              		.cfi_restore 81
 820              		.cfi_def_cfa_offset 8
 821 0322 08BD     		pop	{r3, pc}
 822              	.L38:
 823              		.align	2
 824              	.L37:
 825 0324 00000000 		.word	.LANCHOR8
 826 0328 00000000 		.word	.LANCHOR9
 827 032c 00000000 		.word	Chassis
 828 0330 00001042 		.word	1108344832
 829 0334 00000000 		.word	.LANCHOR5
 830 0338 DA0F4940 		.word	1078530010
 831 033c 00007042 		.word	1114636288
 832 0340 00009842 		.word	1117257728
 833 0344 00000000 		.word	BMI088
 834 0348 0000C842 		.word	1120403456
 835 034c FFFF7F7F 		.word	2139095039
 836 0350 00008000 		.word	8388608
 837              		.cfi_endproc
 838              	.LFE179:
 840              		.section	.text.Chassis_Power_Exp,"ax",%progbits
 841              		.align	1
 842              		.syntax unified
 843              		.thumb
 844              		.thumb_func
 846              	Chassis_Power_Exp:
 847              	.LFB182:
 926:Application/chassis_task.c ****     if (is_TOE_Error(CAP_TOE))         // CAP是电容
 848              		.loc 1 926 1 is_stmt 1 view -0
ARM GAS  C:\Users\86152\AppData\Local\Temp\ccWGVtEI.s 			page 37


 849              		.cfi_startproc
 850              		@ args = 0, pretend = 0, frame = 0
 851              		@ frame_needed = 0, uses_anonymous_args = 0
 852 0000 08B5     		push	{r3, lr}
 853              	.LCFI5:
 854              		.cfi_def_cfa_offset 8
 855              		.cfi_offset 3, -8
 856              		.cfi_offset 14, -4
 927:Application/chassis_task.c ****         ina226[0].Bus_Voltage = 24.0f; // 电容掉线，默认为24v;
 857              		.loc 1 927 5 view .LVU298
 927:Application/chassis_task.c ****         ina226[0].Bus_Voltage = 24.0f; // 电容掉线，默认为24v;
 858              		.loc 1 927 9 is_stmt 0 view .LVU299
 859 0002 0820     		movs	r0, #8
 860 0004 FFF7FEFF 		bl	is_TOE_Error
 861              	.LVL28:
 927:Application/chassis_task.c ****         ina226[0].Bus_Voltage = 24.0f; // 电容掉线，默认为24v;
 862              		.loc 1 927 8 view .LVU300
 863 0008 10B1     		cbz	r0, .L40
 928:Application/chassis_task.c **** 
 864              		.loc 1 928 9 is_stmt 1 view .LVU301
 928:Application/chassis_task.c **** 
 865              		.loc 1 928 31 is_stmt 0 view .LVU302
 866 000a 244B     		ldr	r3, .L45
 867 000c 244A     		ldr	r2, .L45+4
 868 000e 1A60     		str	r2, [r3]	@ float
 869              	.L40:
 930:Application/chassis_task.c ****     for (uint8_t i = 0; i < 4; i++)
 870              		.loc 1 930 5 is_stmt 1 view .LVU303
 930:Application/chassis_task.c ****     for (uint8_t i = 0; i < 4; i++)
 871              		.loc 1 930 44 is_stmt 0 view .LVU304
 872 0010 244B     		ldr	r3, .L45+8
 873 0012 0022     		movs	r2, #0
 874 0014 C3F82422 		str	r2, [r3, #548]	@ float
 931:Application/chassis_task.c ****     {
 875              		.loc 1 931 5 is_stmt 1 view .LVU305
 876              	.LBB9:
 931:Application/chassis_task.c ****     {
 877              		.loc 1 931 10 view .LVU306
 878              	.LVL29:
 931:Application/chassis_task.c ****     {
 879              		.loc 1 931 18 is_stmt 0 view .LVU307
 880 0018 0023     		movs	r3, #0
 931:Application/chassis_task.c ****     {
 881              		.loc 1 931 5 view .LVU308
 882 001a 19E0     		b	.L41
 883              	.LVL30:
 884              	.L42:
 933:Application/chassis_task.c ****     }
 885              		.loc 1 933 9 is_stmt 1 discriminator 3 view .LVU309
 933:Application/chassis_task.c ****     }
 886              		.loc 1 933 60 is_stmt 0 discriminator 3 view .LVU310
 887 001c 1F4A     		ldr	r2, .L45
 888 001e 92ED007A 		vldr.32	s14, [r2]
 933:Application/chassis_task.c ****     }
 889              		.loc 1 933 104 discriminator 3 view .LVU311
 890 0022 2049     		ldr	r1, .L45+8
 891 0024 4FF49D62 		mov	r2, #1256
ARM GAS  C:\Users\86152\AppData\Local\Temp\ccWGVtEI.s 			page 38


 892 0028 02FB0312 		mla	r2, r2, r3, r1
 893 002c D2ED9E7A 		vldr.32	s15, [r2, #632]
 933:Application/chassis_task.c ****     }
 894              		.loc 1 933 137 discriminator 3 view .LVU312
 895 0030 D2ED906A 		vldr.32	s13, [r2, #576]
 933:Application/chassis_task.c ****     }
 896              		.loc 1 933 112 discriminator 3 view .LVU313
 897 0034 67EEA67A 		vmul.f32	s15, s15, s13
 933:Application/chassis_task.c ****     }
 898              		.loc 1 933 75 discriminator 3 view .LVU314
 899 0038 F0EEE77A 		vabs.f32	s15, s15
 933:Application/chassis_task.c ****     }
 900              		.loc 1 933 73 discriminator 3 view .LVU315
 901 003c 27EE277A 		vmul.f32	s14, s14, s15
 933:Application/chassis_task.c ****     }
 902              		.loc 1 933 48 discriminator 3 view .LVU316
 903 0040 D1ED897A 		vldr.32	s15, [r1, #548]
 904 0044 77EE877A 		vadd.f32	s15, s15, s14
 905 0048 C1ED897A 		vstr.32	s15, [r1, #548]
 931:Application/chassis_task.c ****     {
 906              		.loc 1 931 32 is_stmt 1 discriminator 3 view .LVU317
 931:Application/chassis_task.c ****     {
 907              		.loc 1 931 33 is_stmt 0 discriminator 3 view .LVU318
 908 004c 0133     		adds	r3, r3, #1
 909              	.LVL31:
 931:Application/chassis_task.c ****     {
 910              		.loc 1 931 33 discriminator 3 view .LVU319
 911 004e DBB2     		uxtb	r3, r3
 912              	.LVL32:
 913              	.L41:
 931:Application/chassis_task.c ****     {
 914              		.loc 1 931 25 is_stmt 1 discriminator 1 view .LVU320
 931:Application/chassis_task.c ****     {
 915              		.loc 1 931 5 is_stmt 0 discriminator 1 view .LVU321
 916 0050 032B     		cmp	r3, #3
 917 0052 E3D9     		bls	.L42
 918              	.LBE9:
 935:Application/chassis_task.c ****     if (!isnormal(Chassis.PowerControl.Power_Calculation))
 919              		.loc 1 935 5 is_stmt 1 view .LVU322
 935:Application/chassis_task.c ****     if (!isnormal(Chassis.PowerControl.Power_Calculation))
 920              		.loc 1 935 44 is_stmt 0 view .LVU323
 921 0054 134B     		ldr	r3, .L45+8
 922              	.LVL33:
 935:Application/chassis_task.c ****     if (!isnormal(Chassis.PowerControl.Power_Calculation))
 923              		.loc 1 935 44 view .LVU324
 924 0056 D3ED897A 		vldr.32	s15, [r3, #548]
 925 005a 9FED137A 		vldr.32	s14, .L45+12
 926 005e 67EE877A 		vmul.f32	s15, s15, s14
 927 0062 C3ED897A 		vstr.32	s15, [r3, #548]
 936:Application/chassis_task.c ****         Chassis.PowerControl.Power_Calculation = 0.0f;
 928              		.loc 1 936 5 is_stmt 1 view .LVU325
 936:Application/chassis_task.c ****         Chassis.PowerControl.Power_Calculation = 0.0f;
 929              		.loc 1 936 10 is_stmt 0 view .LVU326
 930 0066 F0EEE77A 		vabs.f32	s15, s15
 936:Application/chassis_task.c ****         Chassis.PowerControl.Power_Calculation = 0.0f;
 931              		.loc 1 936 9 view .LVU327
 932 006a 9FED107A 		vldr.32	s14, .L45+16
ARM GAS  C:\Users\86152\AppData\Local\Temp\ccWGVtEI.s 			page 39


 933 006e F4EE477A 		vcmp.f32	s15, s14
 934 0072 F1EE10FA 		vmrs	APSR_nzcv, FPSCR
 935 0076 8CBF     		ite	hi
 936 0078 0123     		movhi	r3, #1
 937 007a 0023     		movls	r3, #0
 938 007c 9FED0C7A 		vldr.32	s14, .L45+20
 939 0080 F4EE477A 		vcmp.f32	s15, s14
 940 0084 F1EE10FA 		vmrs	APSR_nzcv, FPSCR
 941 0088 B8BF     		it	lt
 942 008a 43F00103 		orrlt	r3, r3, #1
 936:Application/chassis_task.c ****         Chassis.PowerControl.Power_Calculation = 0.0f;
 943              		.loc 1 936 8 view .LVU328
 944 008e 1BB1     		cbz	r3, .L39
 937:Application/chassis_task.c **** }
 945              		.loc 1 937 9 is_stmt 1 view .LVU329
 937:Application/chassis_task.c **** }
 946              		.loc 1 937 48 is_stmt 0 view .LVU330
 947 0090 044B     		ldr	r3, .L45+8
 948 0092 0022     		movs	r2, #0
 949 0094 C3F82422 		str	r2, [r3, #548]	@ float
 950              	.L39:
 938:Application/chassis_task.c **** 
 951              		.loc 1 938 1 view .LVU331
 952 0098 08BD     		pop	{r3, pc}
 953              	.L46:
 954 009a 00BF     		.align	2
 955              	.L45:
 956 009c 00000000 		.word	ina226
 957 00a0 0000C041 		.word	1103101952
 958 00a4 00000000 		.word	Chassis
 959 00a8 DAF83934 		.word	876214490
 960 00ac FFFF7F7F 		.word	2139095039
 961 00b0 00008000 		.word	8388608
 962              		.cfi_endproc
 963              	.LFE182:
 965              		.section	.text.Chassis_Get_CtrlValue,"ax",%progbits
 966              		.align	1
 967              		.syntax unified
 968              		.thumb
 969              		.thumb_func
 971              	Chassis_Get_CtrlValue:
 972              	.LFB175:
 222:Application/chassis_task.c ****     static float Temp_Vx, Temp_Vy; // 速度的期望值
 973              		.loc 1 222 1 is_stmt 1 view -0
 974              		.cfi_startproc
 975              		@ args = 0, pretend = 0, frame = 0
 976              		@ frame_needed = 0, uses_anonymous_args = 0
 977 0000 10B5     		push	{r4, lr}
 978              	.LCFI6:
 979              		.cfi_def_cfa_offset 8
 980              		.cfi_offset 4, -8
 981              		.cfi_offset 14, -4
 982 0002 2DED028B 		vpush.64	{d8}
 983              	.LCFI7:
 984              		.cfi_def_cfa_offset 16
 985              		.cfi_offset 80, -16
 986              		.cfi_offset 81, -12
ARM GAS  C:\Users\86152\AppData\Local\Temp\ccWGVtEI.s 			page 40


 223:Application/chassis_task.c ****     static float tempVal;
 987              		.loc 1 223 5 view .LVU333
 224:Application/chassis_task.c ****     static float RC = 0.000001f;
 988              		.loc 1 224 5 view .LVU334
 225:Application/chassis_task.c **** 
 989              		.loc 1 225 5 view .LVU335
 228:Application/chassis_task.c ****         robot_state.chassis_power_limit /= 256;
 990              		.loc 1 228 5 view .LVU336
 228:Application/chassis_task.c ****         robot_state.chassis_power_limit /= 256;
 991              		.loc 1 228 20 is_stmt 0 view .LVU337
 992 0006 C14B     		ldr	r3, .L90
 993 0008 1B8B     		ldrh	r3, [r3, #24]
 228:Application/chassis_task.c ****         robot_state.chassis_power_limit /= 256;
 994              		.loc 1 228 8 view .LVU338
 995 000a B3F5205F 		cmp	r3, #10240
 996 000e 02D3     		bcc	.L48
 229:Application/chassis_task.c ****     // 功率限幅
 997              		.loc 1 229 9 is_stmt 1 view .LVU339
 229:Application/chassis_task.c ****     // 功率限幅
 998              		.loc 1 229 41 is_stmt 0 view .LVU340
 999 0010 1B0A     		lsrs	r3, r3, #8
 1000 0012 BE4A     		ldr	r2, .L90
 1001 0014 1383     		strh	r3, [r2, #24]	@ movhi
 1002              	.L48:
 231:Application/chassis_task.c ****         robot_state.chassis_power_limit = 120;
 1003              		.loc 1 231 5 is_stmt 1 view .LVU341
 231:Application/chassis_task.c ****         robot_state.chassis_power_limit = 120;
 1004              		.loc 1 231 20 is_stmt 0 view .LVU342
 1005 0016 BD4B     		ldr	r3, .L90
 1006 0018 1B8B     		ldrh	r3, [r3, #24]
 231:Application/chassis_task.c ****         robot_state.chassis_power_limit = 120;
 1007              		.loc 1 231 8 view .LVU343
 1008 001a 782B     		cmp	r3, #120
 1009 001c 02D9     		bls	.L49
 232:Application/chassis_task.c ****     // 功率最低限制
 1010              		.loc 1 232 9 is_stmt 1 view .LVU344
 232:Application/chassis_task.c ****     // 功率最低限制
 1011              		.loc 1 232 41 is_stmt 0 view .LVU345
 1012 001e BB4B     		ldr	r3, .L90
 1013 0020 7822     		movs	r2, #120
 1014 0022 1A83     		strh	r2, [r3, #24]	@ movhi
 1015              	.L49:
 234:Application/chassis_task.c ****         robot_state.chassis_power_limit = 45;
 1016              		.loc 1 234 5 is_stmt 1 view .LVU346
 234:Application/chassis_task.c ****         robot_state.chassis_power_limit = 45;
 1017              		.loc 1 234 20 is_stmt 0 view .LVU347
 1018 0024 B94B     		ldr	r3, .L90
 1019 0026 1B8B     		ldrh	r3, [r3, #24]
 234:Application/chassis_task.c ****         robot_state.chassis_power_limit = 45;
 1020              		.loc 1 234 8 view .LVU348
 1021 0028 13B9     		cbnz	r3, .L50
 235:Application/chassis_task.c **** 
 1022              		.loc 1 235 9 is_stmt 1 view .LVU349
 235:Application/chassis_task.c **** 
 1023              		.loc 1 235 41 is_stmt 0 view .LVU350
 1024 002a B84B     		ldr	r3, .L90
 1025 002c 2D22     		movs	r2, #45
ARM GAS  C:\Users\86152\AppData\Local\Temp\ccWGVtEI.s 			page 41


 1026 002e 1A83     		strh	r2, [r3, #24]	@ movhi
 1027              	.L50:
 237:Application/chassis_task.c ****         Chassis.VelocityRatio = float_constrain(robot_state.chassis_power_limit / 10.0f + 2, 3, 7);
 1028              		.loc 1 237 5 is_stmt 1 view .LVU351
 237:Application/chassis_task.c ****         Chassis.VelocityRatio = float_constrain(robot_state.chassis_power_limit / 10.0f + 2, 3, 7);
 1029              		.loc 1 237 20 is_stmt 0 view .LVU352
 1030 0030 B64B     		ldr	r3, .L90
 1031 0032 1B8B     		ldrh	r3, [r3, #24]
 237:Application/chassis_task.c ****         Chassis.VelocityRatio = float_constrain(robot_state.chassis_power_limit / 10.0f + 2, 3, 7);
 1032              		.loc 1 237 8 view .LVU353
 1033 0034 002B     		cmp	r3, #0
 1034 0036 40F0E780 		bne	.L86
 1035              	.L51:
 240:Application/chassis_task.c ****     Temp_Vy = 0;
 1036              		.loc 1 240 5 is_stmt 1 view .LVU354
 240:Application/chassis_task.c ****     Temp_Vy = 0;
 1037              		.loc 1 240 13 is_stmt 0 view .LVU355
 1038 003a B54A     		ldr	r2, .L90+4
 1039 003c DFEDB57A 		vldr.32	s15, .L90+8
 1040 0040 C2ED007A 		vstr.32	s15, [r2]
 241:Application/chassis_task.c ****     Temp_Vx += remote_control.ch3;
 1041              		.loc 1 241 5 is_stmt 1 view .LVU356
 241:Application/chassis_task.c ****     Temp_Vx += remote_control.ch3;
 1042              		.loc 1 241 13 is_stmt 0 view .LVU357
 1043 0044 B44B     		ldr	r3, .L90+12
 1044 0046 C3ED007A 		vstr.32	s15, [r3]
 242:Application/chassis_task.c ****     Temp_Vy += remote_control.ch4 == -660 ? 0 : remote_control.ch4; // ch4 != -660 ?
 1045              		.loc 1 242 5 is_stmt 1 view .LVU358
 242:Application/chassis_task.c ****     Temp_Vy += remote_control.ch4 == -660 ? 0 : remote_control.ch4; // ch4 != -660 ?
 1046              		.loc 1 242 30 is_stmt 0 view .LVU359
 1047 004a B44B     		ldr	r3, .L90+16
 1048 004c B3F90810 		ldrsh	r1, [r3, #8]
 1049 0050 07EE101A 		vmov	s14, r1	@ int
 242:Application/chassis_task.c ****     Temp_Vy += remote_control.ch4 == -660 ? 0 : remote_control.ch4; // ch4 != -660 ?
 1050              		.loc 1 242 13 view .LVU360
 1051 0054 B8EEC77A 		vcvt.f32.s32	s14, s14
 1052 0058 37EE277A 		vadd.f32	s14, s14, s15
 1053 005c 82ED007A 		vstr.32	s14, [r2]
 243:Application/chassis_task.c **** 
 1054              		.loc 1 243 5 is_stmt 1 view .LVU361
 243:Application/chassis_task.c **** 
 1055              		.loc 1 243 30 is_stmt 0 view .LVU362
 1056 0060 B3F90A30 		ldrsh	r3, [r3, #10]
 243:Application/chassis_task.c **** 
 1057              		.loc 1 243 13 view .LVU363
 1058 0064 13F5257F 		cmn	r3, #660
 1059 0068 00F0E480 		beq	.L72
 243:Application/chassis_task.c **** 
 1060              		.loc 1 243 13 discriminator 1 view .LVU364
 1061 006c 07EE903A 		vmov	s15, r3	@ int
 1062 0070 F8EEE77A 		vcvt.f32.s32	s15, s15
 1063              	.L52:
 243:Application/chassis_task.c **** 
 1064              		.loc 1 243 13 discriminator 4 view .LVU365
 1065 0074 DFEDA76A 		vldr.32	s13, .L90+8
 1066 0078 77EEA67A 		vadd.f32	s15, s15, s13
 1067 007c A64B     		ldr	r3, .L90+12
ARM GAS  C:\Users\86152\AppData\Local\Temp\ccWGVtEI.s 			page 42


 1068 007e C3ED007A 		vstr.32	s15, [r3]
 245:Application/chassis_task.c ****     {
 1069              		.loc 1 245 5 is_stmt 1 discriminator 4 view .LVU366
 245:Application/chassis_task.c ****     {
 1070              		.loc 1 245 23 is_stmt 0 discriminator 4 view .LVU367
 1071 0082 A64B     		ldr	r3, .L90+16
 1072 0084 1B7B     		ldrb	r3, [r3, #12]	@ zero_extendqisi2
 245:Application/chassis_task.c ****     {
 1073              		.loc 1 245 8 discriminator 4 view .LVU368
 1074 0086 012B     		cmp	r3, #1
 1075 0088 00F0D780 		beq	.L87
 1076              	.L53:
 251:Application/chassis_task.c ****     {
 1077              		.loc 1 251 5 is_stmt 1 view .LVU369
 251:Application/chassis_task.c ****     {
 1078              		.loc 1 251 9 is_stmt 0 view .LVU370
 1079 008c A04B     		ldr	r3, .L90+4
 1080 008e D3ED007A 		vldr.32	s15, [r3]
 1081 0092 F0EEE76A 		vabs.f32	s13, s15
 251:Application/chassis_task.c ****     {
 1082              		.loc 1 251 8 view .LVU371
 1083 0096 9FEDA27A 		vldr.32	s14, .L90+20
 1084 009a F4EEC76A 		vcmpe.f32	s13, s14
 1085 009e F1EE10FA 		vmrs	APSR_nzcv, FPSCR
 1086 00a2 40F3E580 		ble	.L81
 253:Application/chassis_task.c ****             Chassis.Vx = 0;
 1087              		.loc 1 253 9 is_stmt 1 view .LVU372
 253:Application/chassis_task.c ****             Chassis.Vx = 0;
 1088              		.loc 1 253 20 is_stmt 0 view .LVU373
 1089 00a6 9F4B     		ldr	r3, .L90+24
 1090 00a8 B3F90030 		ldrsh	r3, [r3]
 1091 00ac 07EE103A 		vmov	s14, r3	@ int
 253:Application/chassis_task.c ****             Chassis.Vx = 0;
 1092              		.loc 1 253 24 view .LVU374
 1093 00b0 B8EEC77A 		vcvt.f32.s32	s14, s14
 1094 00b4 27EE277A 		vmul.f32	s14, s14, s15
 253:Application/chassis_task.c ****             Chassis.Vx = 0;
 1095              		.loc 1 253 12 view .LVU375
 1096 00b8 B5EEC07A 		vcmpe.f32	s14, #0
 1097 00bc F1EE10FA 		vmrs	APSR_nzcv, FPSCR
 1098 00c0 00F1C680 		bmi	.L88
 1099              	.L56:
 256:Application/chassis_task.c ****         if (tempVal > Vx_k)
 1100              		.loc 1 256 9 is_stmt 1 view .LVU376
 256:Application/chassis_task.c ****         if (tempVal > Vx_k)
 1101              		.loc 1 256 37 is_stmt 0 view .LVU377
 1102 00c4 974B     		ldr	r3, .L90+24
 1103 00c6 B3F90030 		ldrsh	r3, [r3]
 1104 00ca 07EE103A 		vmov	s14, r3	@ int
 256:Application/chassis_task.c ****         if (tempVal > Vx_k)
 1105              		.loc 1 256 28 view .LVU378
 1106 00ce B8EEC77A 		vcvt.f32.s32	s14, s14
 1107 00d2 77EEC77A 		vsub.f32	s15, s15, s14
 256:Application/chassis_task.c ****         if (tempVal > Vx_k)
 1108              		.loc 1 256 48 view .LVU379
 1109 00d6 944B     		ldr	r3, .L90+28
 1110 00d8 D3ED006A 		vldr.32	s13, [r3]
ARM GAS  C:\Users\86152\AppData\Local\Temp\ccWGVtEI.s 			page 43


 1111 00dc 9FED936A 		vldr.32	s12, .L90+32
 1112 00e0 36EE866A 		vadd.f32	s12, s13, s12
 256:Application/chassis_task.c ****         if (tempVal > Vx_k)
 1113              		.loc 1 256 42 view .LVU380
 1114 00e4 C7EE865A 		vdiv.f32	s11, s15, s12
 256:Application/chassis_task.c ****         if (tempVal > Vx_k)
 1115              		.loc 1 256 17 view .LVU381
 1116 00e8 914B     		ldr	r3, .L90+36
 1117 00ea C3ED005A 		vstr.32	s11, [r3]
 257:Application/chassis_task.c ****             tempVal = Vx_k;
 1118              		.loc 1 257 9 is_stmt 1 view .LVU382
 257:Application/chassis_task.c ****             tempVal = Vx_k;
 1119              		.loc 1 257 21 is_stmt 0 view .LVU383
 1120 00ee 914B     		ldr	r3, .L90+40
 1121 00f0 D3ED007A 		vldr.32	s15, [r3]
 257:Application/chassis_task.c ****             tempVal = Vx_k;
 1122              		.loc 1 257 12 view .LVU384
 1123 00f4 F4EEE75A 		vcmpe.f32	s11, s15
 1124 00f8 F1EE10FA 		vmrs	APSR_nzcv, FPSCR
 1125 00fc 40F3AC80 		ble	.L82
 258:Application/chassis_task.c ****         else if (tempVal < -Vx_k)
 1126              		.loc 1 258 13 is_stmt 1 view .LVU385
 258:Application/chassis_task.c ****         else if (tempVal < -Vx_k)
 1127              		.loc 1 258 21 is_stmt 0 view .LVU386
 1128 0100 8B4B     		ldr	r3, .L90+36
 1129 0102 C3ED007A 		vstr.32	s15, [r3]
 1130              	.L60:
 261:Application/chassis_task.c ****     }
 1131              		.loc 1 261 9 is_stmt 1 view .LVU387
 261:Application/chassis_task.c ****     }
 1132              		.loc 1 261 31 is_stmt 0 view .LVU388
 1133 0106 8A4B     		ldr	r3, .L90+36
 1134 0108 D3ED007A 		vldr.32	s15, [r3]
 1135 010c 66EEA76A 		vmul.f32	s13, s13, s15
 261:Application/chassis_task.c ****     }
 1136              		.loc 1 261 20 view .LVU389
 1137 0110 37EE267A 		vadd.f32	s14, s14, s13
 1138 0114 BDEEC77A 		vcvt.s32.f32	s14, s14
 1139 0118 824B     		ldr	r3, .L90+24
 1140 011a 17EE102A 		vmov	r2, s14	@ int
 1141 011e 1A80     		strh	r2, [r3]	@ movhi
 1142              	.L62:
 269:Application/chassis_task.c ****     {
 1143              		.loc 1 269 5 is_stmt 1 view .LVU390
 269:Application/chassis_task.c ****     {
 1144              		.loc 1 269 9 is_stmt 0 view .LVU391
 1145 0120 7D4B     		ldr	r3, .L90+12
 1146 0122 D3ED007A 		vldr.32	s15, [r3]
 1147 0126 F0EEE76A 		vabs.f32	s13, s15
 269:Application/chassis_task.c ****     {
 1148              		.loc 1 269 8 view .LVU392
 1149 012a 9FED7D7A 		vldr.32	s14, .L90+20
 1150 012e F4EEC76A 		vcmpe.f32	s13, s14
 1151 0132 F1EE10FA 		vmrs	APSR_nzcv, FPSCR
 1152 0136 40F3CA80 		ble	.L83
 271:Application/chassis_task.c ****             Chassis.Vy = 0;
 1153              		.loc 1 271 9 is_stmt 1 view .LVU393
ARM GAS  C:\Users\86152\AppData\Local\Temp\ccWGVtEI.s 			page 44


 271:Application/chassis_task.c ****             Chassis.Vy = 0;
 1154              		.loc 1 271 20 is_stmt 0 view .LVU394
 1155 013a 7A4B     		ldr	r3, .L90+24
 1156 013c B3F90230 		ldrsh	r3, [r3, #2]
 1157 0140 07EE103A 		vmov	s14, r3	@ int
 271:Application/chassis_task.c ****             Chassis.Vy = 0;
 1158              		.loc 1 271 24 view .LVU395
 1159 0144 B8EEC77A 		vcvt.f32.s32	s14, s14
 1160 0148 27EE277A 		vmul.f32	s14, s14, s15
 271:Application/chassis_task.c ****             Chassis.Vy = 0;
 1161              		.loc 1 271 12 view .LVU396
 1162 014c B5EEC07A 		vcmpe.f32	s14, #0
 1163 0150 F1EE10FA 		vmrs	APSR_nzcv, FPSCR
 1164 0154 00F1AB80 		bmi	.L89
 1165              	.L65:
 273:Application/chassis_task.c ****         if (tempVal > Vy_k)
 1166              		.loc 1 273 9 is_stmt 1 view .LVU397
 273:Application/chassis_task.c ****         if (tempVal > Vy_k)
 1167              		.loc 1 273 37 is_stmt 0 view .LVU398
 1168 0158 724B     		ldr	r3, .L90+24
 1169 015a B3F90230 		ldrsh	r3, [r3, #2]
 1170 015e 07EE103A 		vmov	s14, r3	@ int
 273:Application/chassis_task.c ****         if (tempVal > Vy_k)
 1171              		.loc 1 273 28 view .LVU399
 1172 0162 B8EEC77A 		vcvt.f32.s32	s14, s14
 1173 0166 77EEC77A 		vsub.f32	s15, s15, s14
 273:Application/chassis_task.c ****         if (tempVal > Vy_k)
 1174              		.loc 1 273 48 view .LVU400
 1175 016a 6F4B     		ldr	r3, .L90+28
 1176 016c D3ED006A 		vldr.32	s13, [r3]
 1177 0170 9FED6E6A 		vldr.32	s12, .L90+32
 1178 0174 36EE866A 		vadd.f32	s12, s13, s12
 273:Application/chassis_task.c ****         if (tempVal > Vy_k)
 1179              		.loc 1 273 42 view .LVU401
 1180 0178 C7EE865A 		vdiv.f32	s11, s15, s12
 273:Application/chassis_task.c ****         if (tempVal > Vy_k)
 1181              		.loc 1 273 17 view .LVU402
 1182 017c 6C4B     		ldr	r3, .L90+36
 1183 017e C3ED005A 		vstr.32	s11, [r3]
 274:Application/chassis_task.c ****             tempVal = Vy_k;
 1184              		.loc 1 274 9 is_stmt 1 view .LVU403
 274:Application/chassis_task.c ****             tempVal = Vy_k;
 1185              		.loc 1 274 21 is_stmt 0 view .LVU404
 1186 0182 6D4B     		ldr	r3, .L90+44
 1187 0184 D3ED007A 		vldr.32	s15, [r3]
 274:Application/chassis_task.c ****             tempVal = Vy_k;
 1188              		.loc 1 274 12 view .LVU405
 1189 0188 F4EEE75A 		vcmpe.f32	s11, s15
 1190 018c F1EE10FA 		vmrs	APSR_nzcv, FPSCR
 1191 0190 40F39180 		ble	.L84
 275:Application/chassis_task.c ****         else if (tempVal < -Vy_k)
 1192              		.loc 1 275 13 is_stmt 1 view .LVU406
 275:Application/chassis_task.c ****         else if (tempVal < -Vy_k)
 1193              		.loc 1 275 21 is_stmt 0 view .LVU407
 1194 0194 664B     		ldr	r3, .L90+36
 1195 0196 C3ED007A 		vstr.32	s15, [r3]
 1196              	.L69:
ARM GAS  C:\Users\86152\AppData\Local\Temp\ccWGVtEI.s 			page 45


 278:Application/chassis_task.c ****     }
 1197              		.loc 1 278 9 is_stmt 1 view .LVU408
 278:Application/chassis_task.c ****     }
 1198              		.loc 1 278 31 is_stmt 0 view .LVU409
 1199 019a 654B     		ldr	r3, .L90+36
 1200 019c D3ED007A 		vldr.32	s15, [r3]
 1201 01a0 66EEA76A 		vmul.f32	s13, s13, s15
 278:Application/chassis_task.c ****     }
 1202              		.loc 1 278 20 view .LVU410
 1203 01a4 37EE267A 		vadd.f32	s14, s14, s13
 1204 01a8 BDEEC77A 		vcvt.s32.f32	s14, s14
 1205 01ac 5D4B     		ldr	r3, .L90+24
 1206 01ae 17EE102A 		vmov	r2, s14	@ int
 1207 01b2 5A80     		strh	r2, [r3, #2]	@ movhi
 1208              	.L71:
 286:Application/chassis_task.c ****     Chassis.Vy = float_constrain(Chassis.Vy, -400.0f, 400.0f);
 1209              		.loc 1 286 5 is_stmt 1 view .LVU411
 286:Application/chassis_task.c ****     Chassis.Vy = float_constrain(Chassis.Vy, -400.0f, 400.0f);
 1210              		.loc 1 286 41 is_stmt 0 view .LVU412
 1211 01b4 5B4C     		ldr	r4, .L90+24
 1212 01b6 B4F90030 		ldrsh	r3, [r4]
 1213 01ba 00EE103A 		vmov	s0, r3	@ int
 286:Application/chassis_task.c ****     Chassis.Vy = float_constrain(Chassis.Vy, -400.0f, 400.0f);
 1214              		.loc 1 286 18 view .LVU413
 1215 01be DFED5F8A 		vldr.32	s17, .L90+48
 1216 01c2 9FED5F8A 		vldr.32	s16, .L90+52
 1217 01c6 B0EE681A 		vmov.f32	s2, s17
 1218 01ca F0EE480A 		vmov.f32	s1, s16
 1219 01ce B8EEC00A 		vcvt.f32.s32	s0, s0
 1220 01d2 FFF7FEFF 		bl	float_constrain
 1221              	.LVL34:
 286:Application/chassis_task.c ****     Chassis.Vy = float_constrain(Chassis.Vy, -400.0f, 400.0f);
 1222              		.loc 1 286 16 view .LVU414
 1223 01d6 BDEEC00A 		vcvt.s32.f32	s0, s0
 1224 01da 10EE103A 		vmov	r3, s0	@ int
 1225 01de 2380     		strh	r3, [r4]	@ movhi
 287:Application/chassis_task.c **** }
 1226              		.loc 1 287 5 is_stmt 1 view .LVU415
 287:Application/chassis_task.c **** }
 1227              		.loc 1 287 41 is_stmt 0 view .LVU416
 1228 01e0 B4F90230 		ldrsh	r3, [r4, #2]
 1229 01e4 00EE103A 		vmov	s0, r3	@ int
 287:Application/chassis_task.c **** }
 1230              		.loc 1 287 18 view .LVU417
 1231 01e8 B0EE681A 		vmov.f32	s2, s17
 1232 01ec F0EE480A 		vmov.f32	s1, s16
 1233 01f0 B8EEC00A 		vcvt.f32.s32	s0, s0
 1234 01f4 FFF7FEFF 		bl	float_constrain
 1235              	.LVL35:
 287:Application/chassis_task.c **** }
 1236              		.loc 1 287 16 view .LVU418
 1237 01f8 BDEEC00A 		vcvt.s32.f32	s0, s0
 1238 01fc 10EE103A 		vmov	r3, s0	@ int
 1239 0200 6380     		strh	r3, [r4, #2]	@ movhi
 288:Application/chassis_task.c **** 
 1240              		.loc 1 288 1 view .LVU419
 1241 0202 BDEC028B 		vldm	sp!, {d8}
ARM GAS  C:\Users\86152\AppData\Local\Temp\ccWGVtEI.s 			page 46


 1242              	.LCFI8:
 1243              		.cfi_remember_state
 1244              		.cfi_restore 80
 1245              		.cfi_restore 81
 1246              		.cfi_def_cfa_offset 8
 1247 0206 10BD     		pop	{r4, pc}
 1248              	.L86:
 1249              	.LCFI9:
 1250              		.cfi_restore_state
 238:Application/chassis_task.c **** 
 1251              		.loc 1 238 9 is_stmt 1 view .LVU420
 238:Application/chassis_task.c **** 
 1252              		.loc 1 238 81 is_stmt 0 view .LVU421
 1253 0208 07EE903A 		vmov	s15, r3	@ int
 1254 020c F8EEE77A 		vcvt.f32.s32	s15, s15
 1255 0210 B2EE047A 		vmov.f32	s14, #1.0e+1
 1256 0214 87EE870A 		vdiv.f32	s0, s15, s14
 238:Application/chassis_task.c **** 
 1257              		.loc 1 238 33 view .LVU422
 1258 0218 B1EE0C1A 		vmov.f32	s2, #7.0e+0
 1259 021c F0EE080A 		vmov.f32	s1, #3.0e+0
 1260 0220 F0EE007A 		vmov.f32	s15, #2.0e+0
 1261 0224 30EE270A 		vadd.f32	s0, s0, s15
 1262 0228 FFF7FEFF 		bl	float_constrain
 1263              	.LVL36:
 238:Application/chassis_task.c **** 
 1264              		.loc 1 238 31 view .LVU423
 1265 022c 3D4B     		ldr	r3, .L90+24
 1266 022e 83ED050A 		vstr.32	s0, [r3, #20]
 1267 0232 02E7     		b	.L51
 1268              	.L72:
 243:Application/chassis_task.c **** 
 1269              		.loc 1 243 13 view .LVU424
 1270 0234 DFED377A 		vldr.32	s15, .L90+8
 1271 0238 1CE7     		b	.L52
 1272              	.L87:
 247:Application/chassis_task.c ****         Temp_Vy *= 2;
 1273              		.loc 1 247 9 is_stmt 1 view .LVU425
 247:Application/chassis_task.c ****         Temp_Vy *= 2;
 1274              		.loc 1 247 17 is_stmt 0 view .LVU426
 1275 023a 37EE077A 		vadd.f32	s14, s14, s14
 1276 023e 344B     		ldr	r3, .L90+4
 1277 0240 83ED007A 		vstr.32	s14, [r3]
 248:Application/chassis_task.c ****     }
 1278              		.loc 1 248 9 is_stmt 1 view .LVU427
 248:Application/chassis_task.c ****     }
 1279              		.loc 1 248 17 is_stmt 0 view .LVU428
 1280 0244 77EEA77A 		vadd.f32	s15, s15, s15
 1281 0248 334B     		ldr	r3, .L90+12
 1282 024a C3ED007A 		vstr.32	s15, [r3]
 1283 024e 1DE7     		b	.L53
 1284              	.L88:
 254:Application/chassis_task.c **** 
 1285              		.loc 1 254 13 is_stmt 1 view .LVU429
 254:Application/chassis_task.c **** 
 1286              		.loc 1 254 24 is_stmt 0 view .LVU430
 1287 0250 344B     		ldr	r3, .L90+24
ARM GAS  C:\Users\86152\AppData\Local\Temp\ccWGVtEI.s 			page 47


 1288 0252 0022     		movs	r2, #0
 1289 0254 1A80     		strh	r2, [r3]	@ movhi
 1290 0256 35E7     		b	.L56
 1291              	.L82:
 259:Application/chassis_task.c ****             tempVal = -Vx_k;
 1292              		.loc 1 259 14 is_stmt 1 view .LVU431
 259:Application/chassis_task.c ****             tempVal = -Vx_k;
 1293              		.loc 1 259 28 is_stmt 0 view .LVU432
 1294 0258 F1EE677A 		vneg.f32	s15, s15
 259:Application/chassis_task.c ****             tempVal = -Vx_k;
 1295              		.loc 1 259 17 view .LVU433
 1296 025c F4EEE75A 		vcmpe.f32	s11, s15
 1297 0260 F1EE10FA 		vmrs	APSR_nzcv, FPSCR
 1298 0264 7FF54FAF 		bpl	.L60
 260:Application/chassis_task.c ****         Chassis.Vx += tempVal * dt;
 1299              		.loc 1 260 13 is_stmt 1 view .LVU434
 260:Application/chassis_task.c ****         Chassis.Vx += tempVal * dt;
 1300              		.loc 1 260 21 is_stmt 0 view .LVU435
 1301 0268 314B     		ldr	r3, .L90+36
 1302 026a C3ED007A 		vstr.32	s15, [r3]
 1303 026e 4AE7     		b	.L60
 1304              	.L81:
 265:Application/chassis_task.c ****         Chassis.Vx += tempVal * dt;
 1305              		.loc 1 265 9 is_stmt 1 view .LVU436
 265:Application/chassis_task.c ****         Chassis.Vx += tempVal * dt;
 1306              		.loc 1 265 37 is_stmt 0 view .LVU437
 1307 0270 2C4B     		ldr	r3, .L90+24
 1308 0272 B3F90020 		ldrsh	r2, [r3]
 1309 0276 07EE102A 		vmov	s14, r2	@ int
 265:Application/chassis_task.c ****         Chassis.Vx += tempVal * dt;
 1310              		.loc 1 265 28 view .LVU438
 1311 027a B8EEC77A 		vcvt.f32.s32	s14, s14
 1312 027e 77EEC77A 		vsub.f32	s15, s15, s14
 265:Application/chassis_task.c ****         Chassis.Vx += tempVal * dt;
 1313              		.loc 1 265 51 view .LVU439
 1314 0282 294A     		ldr	r2, .L90+28
 1315 0284 D2ED006A 		vldr.32	s13, [r2]
 1316 0288 9FED2E6A 		vldr.32	s12, .L90+56
 1317 028c 36EE866A 		vadd.f32	s12, s13, s12
 265:Application/chassis_task.c ****         Chassis.Vx += tempVal * dt;
 1318              		.loc 1 265 42 view .LVU440
 1319 0290 C7EE865A 		vdiv.f32	s11, s15, s12
 265:Application/chassis_task.c ****         Chassis.Vx += tempVal * dt;
 1320              		.loc 1 265 17 view .LVU441
 1321 0294 264A     		ldr	r2, .L90+36
 1322 0296 C2ED005A 		vstr.32	s11, [r2]
 266:Application/chassis_task.c ****     }
 1323              		.loc 1 266 9 is_stmt 1 view .LVU442
 266:Application/chassis_task.c ****     }
 1324              		.loc 1 266 31 is_stmt 0 view .LVU443
 1325 029a 66EEA56A 		vmul.f32	s13, s13, s11
 266:Application/chassis_task.c ****     }
 1326              		.loc 1 266 20 view .LVU444
 1327 029e 37EE267A 		vadd.f32	s14, s14, s13
 1328 02a2 BDEEC77A 		vcvt.s32.f32	s14, s14
 1329 02a6 17EE102A 		vmov	r2, s14	@ int
 1330 02aa 1A80     		strh	r2, [r3]	@ movhi
ARM GAS  C:\Users\86152\AppData\Local\Temp\ccWGVtEI.s 			page 48


 1331 02ac 38E7     		b	.L62
 1332              	.L89:
 272:Application/chassis_task.c ****         tempVal = (Temp_Vy - Chassis.Vy) / (RC + dt);
 1333              		.loc 1 272 13 is_stmt 1 view .LVU445
 272:Application/chassis_task.c ****         tempVal = (Temp_Vy - Chassis.Vy) / (RC + dt);
 1334              		.loc 1 272 24 is_stmt 0 view .LVU446
 1335 02ae 1D4B     		ldr	r3, .L90+24
 1336 02b0 0022     		movs	r2, #0
 1337 02b2 5A80     		strh	r2, [r3, #2]	@ movhi
 1338 02b4 50E7     		b	.L65
 1339              	.L84:
 276:Application/chassis_task.c ****             tempVal = -Vy_k;
 1340              		.loc 1 276 14 is_stmt 1 view .LVU447
 276:Application/chassis_task.c ****             tempVal = -Vy_k;
 1341              		.loc 1 276 28 is_stmt 0 view .LVU448
 1342 02b6 F1EE677A 		vneg.f32	s15, s15
 276:Application/chassis_task.c ****             tempVal = -Vy_k;
 1343              		.loc 1 276 17 view .LVU449
 1344 02ba F4EEE75A 		vcmpe.f32	s11, s15
 1345 02be F1EE10FA 		vmrs	APSR_nzcv, FPSCR
 1346 02c2 7FF56AAF 		bpl	.L69
 277:Application/chassis_task.c ****         Chassis.Vy += tempVal * dt;
 1347              		.loc 1 277 13 is_stmt 1 view .LVU450
 277:Application/chassis_task.c ****         Chassis.Vy += tempVal * dt;
 1348              		.loc 1 277 21 is_stmt 0 view .LVU451
 1349 02c6 1A4B     		ldr	r3, .L90+36
 1350 02c8 C3ED007A 		vstr.32	s15, [r3]
 1351 02cc 65E7     		b	.L69
 1352              	.L83:
 282:Application/chassis_task.c ****         Chassis.Vy += tempVal * dt;
 1353              		.loc 1 282 9 is_stmt 1 view .LVU452
 282:Application/chassis_task.c ****         Chassis.Vy += tempVal * dt;
 1354              		.loc 1 282 37 is_stmt 0 view .LVU453
 1355 02ce 154B     		ldr	r3, .L90+24
 1356 02d0 B3F90220 		ldrsh	r2, [r3, #2]
 1357 02d4 07EE102A 		vmov	s14, r2	@ int
 282:Application/chassis_task.c ****         Chassis.Vy += tempVal * dt;
 1358              		.loc 1 282 28 view .LVU454
 1359 02d8 B8EEC77A 		vcvt.f32.s32	s14, s14
 1360 02dc 77EEC77A 		vsub.f32	s15, s15, s14
 282:Application/chassis_task.c ****         Chassis.Vy += tempVal * dt;
 1361              		.loc 1 282 51 view .LVU455
 1362 02e0 114A     		ldr	r2, .L90+28
 1363 02e2 D2ED006A 		vldr.32	s13, [r2]
 1364 02e6 9FED176A 		vldr.32	s12, .L90+56
 1365 02ea 36EE866A 		vadd.f32	s12, s13, s12
 282:Application/chassis_task.c ****         Chassis.Vy += tempVal * dt;
 1366              		.loc 1 282 42 view .LVU456
 1367 02ee C7EE865A 		vdiv.f32	s11, s15, s12
 282:Application/chassis_task.c ****         Chassis.Vy += tempVal * dt;
 1368              		.loc 1 282 17 view .LVU457
 1369 02f2 0F4A     		ldr	r2, .L90+36
 1370 02f4 C2ED005A 		vstr.32	s11, [r2]
 283:Application/chassis_task.c ****     }
 1371              		.loc 1 283 9 is_stmt 1 view .LVU458
 283:Application/chassis_task.c ****     }
 1372              		.loc 1 283 31 is_stmt 0 view .LVU459
ARM GAS  C:\Users\86152\AppData\Local\Temp\ccWGVtEI.s 			page 49


 1373 02f8 66EEA56A 		vmul.f32	s13, s13, s11
 283:Application/chassis_task.c ****     }
 1374              		.loc 1 283 20 view .LVU460
 1375 02fc 37EE267A 		vadd.f32	s14, s14, s13
 1376 0300 BDEEC77A 		vcvt.s32.f32	s14, s14
 1377 0304 17EE102A 		vmov	r2, s14	@ int
 1378 0308 5A80     		strh	r2, [r3, #2]	@ movhi
 1379 030a 53E7     		b	.L71
 1380              	.L91:
 1381              		.align	2
 1382              	.L90:
 1383 030c 00000000 		.word	robot_state
 1384 0310 00000000 		.word	.LANCHOR10
 1385 0314 00000000 		.word	0
 1386 0318 00000000 		.word	.LANCHOR11
 1387 031c 00000000 		.word	remote_control
 1388 0320 6F12833A 		.word	981668463
 1389 0324 00000000 		.word	Chassis
 1390 0328 00000000 		.word	.LANCHOR12
 1391 032c BD378635 		.word	897988541
 1392 0330 00000000 		.word	.LANCHOR13
 1393 0334 00000000 		.word	.LANCHOR14
 1394 0338 00000000 		.word	.LANCHOR15
 1395 033c 0000C843 		.word	1137180672
 1396 0340 0000C8C3 		.word	-1010302976
 1397 0344 0AD7233C 		.word	1008981770
 1398              		.cfi_endproc
 1399              	.LFE175:
 1401              		.global	__aeabi_f2d
 1402              		.global	__aeabi_dmul
 1403              		.global	__aeabi_d2f
 1404              		.section	.text.Chassis_Power_Limit,"ax",%progbits
 1405              		.align	1
 1406              		.syntax unified
 1407              		.thumb
 1408              		.thumb_func
 1410              	Chassis_Power_Limit:
 1411              	.LFB181:
 886:Application/chassis_task.c ****     static float coef[4] = {1, 1, 1, 1};
 1412              		.loc 1 886 1 is_stmt 1 view -0
 1413              		.cfi_startproc
 1414              		@ args = 0, pretend = 0, frame = 0
 1415              		@ frame_needed = 0, uses_anonymous_args = 0
 1416 0000 08B5     		push	{r3, lr}
 1417              	.LCFI10:
 1418              		.cfi_def_cfa_offset 8
 1419              		.cfi_offset 3, -8
 1420              		.cfi_offset 14, -4
 887:Application/chassis_task.c **** 
 1421              		.loc 1 887 5 view .LVU462
 890:Application/chassis_task.c ****     {
 1422              		.loc 1 890 5 view .LVU463
 890:Application/chassis_task.c ****     {
 1423              		.loc 1 890 18 is_stmt 0 view .LVU464
 1424 0002 4D4B     		ldr	r3, .L110+8
 1425 0004 93ED007A 		vldr.32	s14, [r3]
 890:Application/chassis_task.c ****     {
ARM GAS  C:\Users\86152\AppData\Local\Temp\ccWGVtEI.s 			page 50


 1426              		.loc 1 890 8 view .LVU465
 1427 0008 F2EE0D7A 		vmov.f32	s15, #1.45e+1
 1428 000c B4EEE77A 		vcmpe.f32	s14, s15
 1429 0010 F1EE10FA 		vmrs	APSR_nzcv, FPSCR
 1430 0014 2DD5     		bpl	.L106
 892:Application/chassis_task.c ****     }
 1431              		.loc 1 892 9 is_stmt 1 view .LVU466
 892:Application/chassis_task.c ****     }
 1432              		.loc 1 892 64 is_stmt 0 view .LVU467
 1433 0016 494B     		ldr	r3, .L110+12
 1434 0018 93ED8C7A 		vldr.32	s14, [r3, #560]
 892:Application/chassis_task.c ****     }
 1435              		.loc 1 892 94 view .LVU468
 1436 001c 484A     		ldr	r2, .L110+16
 1437 001e 128B     		ldrh	r2, [r2, #24]
 1438 0020 07EE902A 		vmov	s15, r2	@ int
 892:Application/chassis_task.c ****     }
 1439              		.loc 1 892 81 view .LVU469
 1440 0024 F8EEE77A 		vcvt.f32.s32	s15, s15
 1441 0028 67EE877A 		vmul.f32	s15, s15, s14
 892:Application/chassis_task.c ****     }
 1442              		.loc 1 892 42 view .LVU470
 1443 002c C3ED887A 		vstr.32	s15, [r3, #544]
 1444              	.L95:
 905:Application/chassis_task.c ****     {
 1445              		.loc 1 905 5 is_stmt 1 view .LVU471
 905:Application/chassis_task.c ****     {
 1446              		.loc 1 905 29 is_stmt 0 view .LVU472
 1447 0030 424B     		ldr	r3, .L110+12
 1448 0032 D3ED897A 		vldr.32	s15, [r3, #548]
 905:Application/chassis_task.c ****     {
 1449              		.loc 1 905 70 view .LVU473
 1450 0036 93ED887A 		vldr.32	s14, [r3, #544]
 905:Application/chassis_task.c ****     {
 1451              		.loc 1 905 8 view .LVU474
 1452 003a F4EEC77A 		vcmpe.f32	s15, s14
 1453 003e F1EE10FA 		vmrs	APSR_nzcv, FPSCR
 1454 0042 31DD     		ble	.L107
 907:Application/chassis_task.c ****         if (Chassis.Mode == Spinning_Mode)
 1455              		.loc 1 907 9 is_stmt 1 view .LVU475
 907:Application/chassis_task.c ****         if (Chassis.Mode == Spinning_Mode)
 1456              		.loc 1 907 76 is_stmt 0 view .LVU476
 1457 0044 C7EE276A 		vdiv.f32	s13, s14, s15
 907:Application/chassis_task.c ****         if (Chassis.Mode == Spinning_Mode)
 1458              		.loc 1 907 41 view .LVU477
 1459 0048 C3ED866A 		vstr.32	s13, [r3, #536]
 908:Application/chassis_task.c ****             Chassis.PowerControl.PowerScale = Chassis.PowerControl.PowerScale * 0.95;
 1460              		.loc 1 908 9 is_stmt 1 view .LVU478
 908:Application/chassis_task.c ****             Chassis.PowerControl.PowerScale = Chassis.PowerControl.PowerScale * 0.95;
 1461              		.loc 1 908 20 is_stmt 0 view .LVU479
 1462 004c 93F8D431 		ldrb	r3, [r3, #468]	@ zero_extendqisi2
 908:Application/chassis_task.c ****             Chassis.PowerControl.PowerScale = Chassis.PowerControl.PowerScale * 0.95;
 1463              		.loc 1 908 12 view .LVU480
 1464 0050 012B     		cmp	r3, #1
 1465 0052 2ED1     		bne	.L98
 909:Application/chassis_task.c ****     }
 1466              		.loc 1 909 13 is_stmt 1 view .LVU481
ARM GAS  C:\Users\86152\AppData\Local\Temp\ccWGVtEI.s 			page 51


 909:Application/chassis_task.c ****     }
 1467              		.loc 1 909 67 is_stmt 0 view .LVU482
 1468 0054 16EE900A 		vmov	r0, s13
 1469 0058 FFF7FEFF 		bl	__aeabi_f2d
 1470              	.LVL37:
 909:Application/chassis_task.c ****     }
 1471              		.loc 1 909 79 view .LVU483
 1472 005c 34A3     		adr	r3, .L110
 1473 005e D3E90023 		ldrd	r2, [r3]
 1474 0062 FFF7FEFF 		bl	__aeabi_dmul
 1475              	.LVL38:
 1476 0066 FFF7FEFF 		bl	__aeabi_d2f
 1477              	.LVL39:
 909:Application/chassis_task.c ****     }
 1478              		.loc 1 909 45 view .LVU484
 1479 006a 344B     		ldr	r3, .L110+12
 1480 006c C3F81802 		str	r0, [r3, #536]	@ float
 1481 0070 1FE0     		b	.L98
 1482              	.L106:
 897:Application/chassis_task.c **** 
 1483              		.loc 1 897 9 is_stmt 1 view .LVU485
 897:Application/chassis_task.c **** 
 1484              		.loc 1 897 64 is_stmt 0 view .LVU486
 1485 0072 324B     		ldr	r3, .L110+12
 1486 0074 93ED8B7A 		vldr.32	s14, [r3, #556]
 897:Application/chassis_task.c **** 
 1487              		.loc 1 897 100 view .LVU487
 1488 0078 314A     		ldr	r2, .L110+16
 1489 007a 128B     		ldrh	r2, [r2, #24]
 1490 007c 07EE902A 		vmov	s15, r2	@ int
 897:Application/chassis_task.c **** 
 1491              		.loc 1 897 87 view .LVU488
 1492 0080 F8EEE77A 		vcvt.f32.s32	s15, s15
 1493 0084 67EE276A 		vmul.f32	s13, s14, s15
 897:Application/chassis_task.c **** 
 1494              		.loc 1 897 42 view .LVU489
 1495 0088 C3ED886A 		vstr.32	s13, [r3, #544]
 900:Application/chassis_task.c ****             Chassis.PowerControl.Power_Limit = 1.5f * Chassis.PowerControl.Power_correction_gain * 
 1496              		.loc 1 900 9 is_stmt 1 view .LVU490
 900:Application/chassis_task.c ****             Chassis.PowerControl.Power_Limit = 1.5f * Chassis.PowerControl.Power_correction_gain * 
 1497              		.loc 1 900 30 is_stmt 0 view .LVU491
 1498 008c 2D4B     		ldr	r3, .L110+20
 1499 008e 1B89     		ldrh	r3, [r3, #8]
 900:Application/chassis_task.c ****             Chassis.PowerControl.Power_Limit = 1.5f * Chassis.PowerControl.Power_correction_gain * 
 1500              		.loc 1 900 12 view .LVU492
 1501 0090 1E2B     		cmp	r3, #30
 1502 0092 CDD9     		bls	.L95
 901:Application/chassis_task.c ****     }
 1503              		.loc 1 901 13 is_stmt 1 view .LVU493
 901:Application/chassis_task.c ****     }
 1504              		.loc 1 901 53 is_stmt 0 view .LVU494
 1505 0094 F7EE086A 		vmov.f32	s13, #1.5e+0
 1506 0098 27EE267A 		vmul.f32	s14, s14, s13
 901:Application/chassis_task.c ****     }
 1507              		.loc 1 901 98 view .LVU495
 1508 009c 67EE877A 		vmul.f32	s15, s15, s14
 901:Application/chassis_task.c ****     }
ARM GAS  C:\Users\86152\AppData\Local\Temp\ccWGVtEI.s 			page 52


 1509              		.loc 1 901 46 view .LVU496
 1510 00a0 264B     		ldr	r3, .L110+12
 1511 00a2 C3ED887A 		vstr.32	s15, [r3, #544]
 1512 00a6 C3E7     		b	.L95
 1513              	.L107:
 912:Application/chassis_task.c **** 
 1514              		.loc 1 912 9 is_stmt 1 view .LVU497
 912:Application/chassis_task.c **** 
 1515              		.loc 1 912 41 is_stmt 0 view .LVU498
 1516 00a8 244B     		ldr	r3, .L110+12
 1517 00aa 4FF07E52 		mov	r2, #1065353216
 1518 00ae C3F81822 		str	r2, [r3, #536]	@ float
 1519              	.L98:
 915:Application/chassis_task.c ****         Chassis.PowerControl.PowerScale = 1.0f;
 1520              		.loc 1 915 5 is_stmt 1 view .LVU499
 915:Application/chassis_task.c ****         Chassis.PowerControl.PowerScale = 1.0f;
 1521              		.loc 1 915 10 is_stmt 0 view .LVU500
 1522 00b2 FFF7FEFF 		bl	xTaskGetTickCount
 1523              	.LVL40:
 915:Application/chassis_task.c ****         Chassis.PowerControl.PowerScale = 1.0f;
 1524              		.loc 1 915 25 view .LVU501
 1525 00b6 244B     		ldr	r3, .L110+24
 1526 00b8 1B68     		ldr	r3, [r3]
 1527 00ba C01A     		subs	r0, r0, r3
 915:Application/chassis_task.c ****         Chassis.PowerControl.PowerScale = 1.0f;
 1528              		.loc 1 915 8 view .LVU502
 1529 00bc B0F5FA7F 		cmp	r0, #500
 1530 00c0 06D2     		bcs	.L99
 915:Application/chassis_task.c ****         Chassis.PowerControl.PowerScale = 1.0f;
 1531              		.loc 1 915 46 discriminator 1 view .LVU503
 1532 00c2 FFF7FEFF 		bl	xTaskGetTickCount
 1533              	.LVL41:
 915:Application/chassis_task.c ****         Chassis.PowerControl.PowerScale = 1.0f;
 1534              		.loc 1 915 61 discriminator 1 view .LVU504
 1535 00c6 204B     		ldr	r3, .L110+24
 1536 00c8 1B68     		ldr	r3, [r3]
 1537 00ca C01A     		subs	r0, r0, r3
 915:Application/chassis_task.c ****         Chassis.PowerControl.PowerScale = 1.0f;
 1538              		.loc 1 915 43 discriminator 1 view .LVU505
 1539 00cc 0528     		cmp	r0, #5
 1540 00ce 10D8     		bhi	.L100
 1541              	.L99:
 915:Application/chassis_task.c ****         Chassis.PowerControl.PowerScale = 1.0f;
 1542              		.loc 1 915 82 discriminator 3 view .LVU506
 1543 00d0 FFF7FEFF 		bl	xTaskGetTickCount
 1544              	.LVL42:
 915:Application/chassis_task.c ****         Chassis.PowerControl.PowerScale = 1.0f;
 1545              		.loc 1 915 97 discriminator 3 view .LVU507
 1546 00d4 1D4B     		ldr	r3, .L110+28
 1547 00d6 1B68     		ldr	r3, [r3]
 1548 00d8 C01A     		subs	r0, r0, r3
 915:Application/chassis_task.c ****         Chassis.PowerControl.PowerScale = 1.0f;
 1549              		.loc 1 915 78 discriminator 3 view .LVU508
 1550 00da B0F5FA7F 		cmp	r0, #500
 1551 00de 01D3     		bcc	.L109
 1552              	.L101:
 886:Application/chassis_task.c ****     static float coef[4] = {1, 1, 1, 1};
ARM GAS  C:\Users\86152\AppData\Local\Temp\ccWGVtEI.s 			page 53


 1553              		.loc 1 886 1 discriminator 1 view .LVU509
 1554 00e0 0023     		movs	r3, #0
 1555 00e2 22E0     		b	.L102
 1556              	.L109:
 915:Application/chassis_task.c ****         Chassis.PowerControl.PowerScale = 1.0f;
 1557              		.loc 1 915 124 discriminator 4 view .LVU510
 1558 00e4 FFF7FEFF 		bl	xTaskGetTickCount
 1559              	.LVL43:
 915:Application/chassis_task.c ****         Chassis.PowerControl.PowerScale = 1.0f;
 1560              		.loc 1 915 139 discriminator 4 view .LVU511
 1561 00e8 184B     		ldr	r3, .L110+28
 1562 00ea 1B68     		ldr	r3, [r3]
 1563 00ec C01A     		subs	r0, r0, r3
 915:Application/chassis_task.c ****         Chassis.PowerControl.PowerScale = 1.0f;
 1564              		.loc 1 915 121 discriminator 4 view .LVU512
 1565 00ee 0528     		cmp	r0, #5
 1566 00f0 F6D9     		bls	.L101
 1567              	.L100:
 916:Application/chassis_task.c **** 
 1568              		.loc 1 916 9 is_stmt 1 view .LVU513
 916:Application/chassis_task.c **** 
 1569              		.loc 1 916 41 is_stmt 0 view .LVU514
 1570 00f2 124B     		ldr	r3, .L110+12
 1571 00f4 4FF07E52 		mov	r2, #1065353216
 1572 00f8 C3F81822 		str	r2, [r3, #536]	@ float
 1573 00fc F0E7     		b	.L101
 1574              	.LVL44:
 1575              	.L103:
 1576              	.LBB10:
 920:Application/chassis_task.c ****     }
 1577              		.loc 1 920 9 is_stmt 1 discriminator 3 view .LVU515
 920:Application/chassis_task.c ****     }
 1578              		.loc 1 920 63 is_stmt 0 discriminator 3 view .LVU516
 1579 00fe 0F4A     		ldr	r2, .L110+12
 1580 0100 D2ED867A 		vldr.32	s15, [r2, #536]
 920:Application/chassis_task.c ****     }
 1581              		.loc 1 920 81 discriminator 3 view .LVU517
 1582 0104 1249     		ldr	r1, .L110+32
 1583 0106 01EB8301 		add	r1, r1, r3, lsl #2
 1584 010a 91ED007A 		vldr.32	s14, [r1]
 920:Application/chassis_task.c ****     }
 1585              		.loc 1 920 75 discriminator 3 view .LVU518
 1586 010e 27EE877A 		vmul.f32	s14, s15, s14
 920:Application/chassis_task.c ****     }
 1587              		.loc 1 920 40 discriminator 3 view .LVU519
 1588 0112 4FF49D61 		mov	r1, #1256
 1589 0116 01FB0322 		mla	r2, r1, r3, r2
 1590 011a D2ED9E7A 		vldr.32	s15, [r2, #632]
 1591 011e 67EE877A 		vmul.f32	s15, s15, s14
 1592 0122 C2ED9E7A 		vstr.32	s15, [r2, #632]
 918:Application/chassis_task.c ****     {
 1593              		.loc 1 918 32 is_stmt 1 discriminator 3 view .LVU520
 918:Application/chassis_task.c ****     {
 1594              		.loc 1 918 33 is_stmt 0 discriminator 3 view .LVU521
 1595 0126 0133     		adds	r3, r3, #1
 1596              	.LVL45:
 918:Application/chassis_task.c ****     {
ARM GAS  C:\Users\86152\AppData\Local\Temp\ccWGVtEI.s 			page 54


 1597              		.loc 1 918 33 discriminator 3 view .LVU522
 1598 0128 DBB2     		uxtb	r3, r3
 1599              	.LVL46:
 1600              	.L102:
 918:Application/chassis_task.c ****     {
 1601              		.loc 1 918 25 is_stmt 1 discriminator 1 view .LVU523
 918:Application/chassis_task.c ****     {
 1602              		.loc 1 918 5 is_stmt 0 discriminator 1 view .LVU524
 1603 012a 032B     		cmp	r3, #3
 1604 012c E7D9     		bls	.L103
 1605              	.LBE10:
 922:Application/chassis_task.c **** 
 1606              		.loc 1 922 1 view .LVU525
 1607 012e 08BD     		pop	{r3, pc}
 1608              	.LVL47:
 1609              	.L111:
 922:Application/chassis_task.c **** 
 1610              		.loc 1 922 1 view .LVU526
 1611              		.align	3
 1612              	.L110:
 1613 0130 66666666 		.word	1717986918
 1614 0134 6666EE3F 		.word	1072588390
 1615 0138 00000000 		.word	ina226
 1616 013c 00000000 		.word	Chassis
 1617 0140 00000000 		.word	robot_state
 1618 0144 00000000 		.word	power_heat_data_t
 1619 0148 00000000 		.word	.LANCHOR16
 1620 014c 00000000 		.word	.LANCHOR17
 1621 0150 00000000 		.word	.LANCHOR18
 1622              		.cfi_endproc
 1623              	.LFE181:
 1625              		.section	.text.Send_Chassis_Current,"ax",%progbits
 1626              		.align	1
 1627              		.syntax unified
 1628              		.thumb
 1629              		.thumb_func
 1631              	Send_Chassis_Current:
 1632              	.LFB178:
 755:Application/chassis_task.c ****     static uint32_t count = 0;
 1633              		.loc 1 755 1 is_stmt 1 view -0
 1634              		.cfi_startproc
 1635              		@ args = 0, pretend = 0, frame = 0
 1636              		@ frame_needed = 0, uses_anonymous_args = 0
 1637 0000 00B5     		push	{lr}
 1638              	.LCFI11:
 1639              		.cfi_def_cfa_offset 4
 1640              		.cfi_offset 14, -4
 1641 0002 83B0     		sub	sp, sp, #12
 1642              	.LCFI12:
 1643              		.cfi_def_cfa_offset 16
 756:Application/chassis_task.c ****     // 发送裁判系统功率部分给电容板
 1644              		.loc 1 756 5 view .LVU528
 760:Application/chassis_task.c ****     {
 1645              		.loc 1 760 5 view .LVU529
 760:Application/chassis_task.c ****     {
 1646              		.loc 1 760 9 is_stmt 0 view .LVU530
 1647 0004 0420     		movs	r0, #4
ARM GAS  C:\Users\86152\AppData\Local\Temp\ccWGVtEI.s 			page 55


 1648 0006 FFF7FEFF 		bl	is_TOE_Error
 1649              	.LVL48:
 760:Application/chassis_task.c ****     {
 1650              		.loc 1 760 8 view .LVU531
 1651 000a 18B1     		cbz	r0, .L113
 760:Application/chassis_task.c ****     {
 1652              		.loc 1 760 33 discriminator 1 view .LVU532
 1653 000c 0720     		movs	r0, #7
 1654 000e FFF7FEFF 		bl	is_TOE_Error
 1655              	.LVL49:
 760:Application/chassis_task.c ****     {
 1656              		.loc 1 760 30 discriminator 1 view .LVU533
 1657 0012 68B9     		cbnz	r0, .L120
 1658              	.L113:
 771:Application/chassis_task.c ****             HAL_IWDG_Refresh(&hiwdg);
 1659              		.loc 1 771 9 is_stmt 1 view .LVU534
 771:Application/chassis_task.c ****             HAL_IWDG_Refresh(&hiwdg);
 1660              		.loc 1 771 13 is_stmt 0 view .LVU535
 1661 0014 0021     		movs	r1, #0
 1662 0016 0091     		str	r1, [sp]
 1663 0018 0B46     		mov	r3, r1
 1664 001a 0A46     		mov	r2, r1
 1665 001c 2D48     		ldr	r0, .L122
 1666 001e FFF7FEFF 		bl	Send_Motor_Current_1_4
 1667              	.LVL50:
 771:Application/chassis_task.c ****             HAL_IWDG_Refresh(&hiwdg);
 1668              		.loc 1 771 12 view .LVU536
 1669 0022 90B1     		cbz	r0, .L121
 1670              	.L114:
 773:Application/chassis_task.c ****     }
 1671              		.loc 1 773 9 is_stmt 1 view .LVU537
 776:Application/chassis_task.c ****     for (uint8_t i = 0; i < 4; i++)
 1672              		.loc 1 776 5 view .LVU538
 776:Application/chassis_task.c ****     for (uint8_t i = 0; i < 4; i++)
 1673              		.loc 1 776 53 is_stmt 0 view .LVU539
 1674 0024 2C4B     		ldr	r3, .L122+4
 1675 0026 0022     		movs	r2, #0
 1676 0028 C3F82822 		str	r2, [r3, #552]	@ float
 777:Application/chassis_task.c ****     {
 1677              		.loc 1 777 5 is_stmt 1 view .LVU540
 1678              	.LBB11:
 777:Application/chassis_task.c ****     {
 1679              		.loc 1 777 10 view .LVU541
 1680              	.LVL51:
 777:Application/chassis_task.c ****     {
 1681              		.loc 1 777 18 is_stmt 0 view .LVU542
 1682 002c 0023     		movs	r3, #0
 777:Application/chassis_task.c ****     {
 1683              		.loc 1 777 5 view .LVU543
 1684 002e 2AE0     		b	.L115
 1685              	.LVL52:
 1686              	.L120:
 777:Application/chassis_task.c ****     {
 1687              		.loc 1 777 5 view .LVU544
 1688              	.LBE11:
 762:Application/chassis_task.c ****             HAL_IWDG_Refresh(&hiwdg);
 1689              		.loc 1 762 9 is_stmt 1 view .LVU545
ARM GAS  C:\Users\86152\AppData\Local\Temp\ccWGVtEI.s 			page 56


 762:Application/chassis_task.c ****             HAL_IWDG_Refresh(&hiwdg);
 1690              		.loc 1 762 13 is_stmt 0 view .LVU546
 1691 0030 0021     		movs	r1, #0
 1692 0032 0091     		str	r1, [sp]
 1693 0034 0B46     		mov	r3, r1
 1694 0036 0A46     		mov	r2, r1
 1695 0038 2648     		ldr	r0, .L122
 1696 003a FFF7FEFF 		bl	Send_Motor_Current_1_4
 1697              	.LVL53:
 762:Application/chassis_task.c ****             HAL_IWDG_Refresh(&hiwdg);
 1698              		.loc 1 762 12 view .LVU547
 1699 003e 0028     		cmp	r0, #0
 1700 0040 F0D1     		bne	.L114
 763:Application/chassis_task.c ****         ;
 1701              		.loc 1 763 13 is_stmt 1 view .LVU548
 1702 0042 2648     		ldr	r0, .L122+8
 1703 0044 FFF7FEFF 		bl	HAL_IWDG_Refresh
 1704              	.LVL54:
 1705 0048 ECE7     		b	.L114
 1706              	.L121:
 772:Application/chassis_task.c ****         ;
 1707              		.loc 1 772 13 view .LVU549
 1708 004a 2448     		ldr	r0, .L122+8
 1709 004c FFF7FEFF 		bl	HAL_IWDG_Refresh
 1710              	.LVL55:
 1711 0050 E8E7     		b	.L114
 1712              	.LVL56:
 1713              	.L116:
 1714              	.LBB12:
 779:Application/chassis_task.c ****     }
 1715              		.loc 1 779 9 discriminator 3 view .LVU550
 779:Application/chassis_task.c ****     }
 1716              		.loc 1 779 69 is_stmt 0 discriminator 3 view .LVU551
 1717 0052 234A     		ldr	r2, .L122+12
 1718 0054 92ED007A 		vldr.32	s14, [r2]
 779:Application/chassis_task.c ****     }
 1719              		.loc 1 779 113 discriminator 3 view .LVU552
 1720 0058 1F49     		ldr	r1, .L122+4
 1721 005a 4FF49D62 		mov	r2, #1256
 1722 005e 02FB0312 		mla	r2, r2, r3, r1
 1723 0062 D2ED917A 		vldr.32	s15, [r2, #580]
 779:Application/chassis_task.c ****     }
 1724              		.loc 1 779 152 discriminator 3 view .LVU553
 1725 0066 D2ED906A 		vldr.32	s13, [r2, #576]
 779:Application/chassis_task.c ****     }
 1726              		.loc 1 779 127 discriminator 3 view .LVU554
 1727 006a 67EEA67A 		vmul.f32	s15, s15, s13
 779:Application/chassis_task.c ****     }
 1728              		.loc 1 779 84 discriminator 3 view .LVU555
 1729 006e F0EEE77A 		vabs.f32	s15, s15
 779:Application/chassis_task.c ****     }
 1730              		.loc 1 779 82 discriminator 3 view .LVU556
 1731 0072 27EE277A 		vmul.f32	s14, s14, s15
 779:Application/chassis_task.c ****     }
 1732              		.loc 1 779 57 discriminator 3 view .LVU557
 1733 0076 D1ED8A7A 		vldr.32	s15, [r1, #552]
 1734 007a 77EE877A 		vadd.f32	s15, s15, s14
ARM GAS  C:\Users\86152\AppData\Local\Temp\ccWGVtEI.s 			page 57


 1735 007e C1ED8A7A 		vstr.32	s15, [r1, #552]
 777:Application/chassis_task.c ****     {
 1736              		.loc 1 777 32 is_stmt 1 discriminator 3 view .LVU558
 777:Application/chassis_task.c ****     {
 1737              		.loc 1 777 33 is_stmt 0 discriminator 3 view .LVU559
 1738 0082 0133     		adds	r3, r3, #1
 1739              	.LVL57:
 777:Application/chassis_task.c ****     {
 1740              		.loc 1 777 33 discriminator 3 view .LVU560
 1741 0084 DBB2     		uxtb	r3, r3
 1742              	.LVL58:
 1743              	.L115:
 777:Application/chassis_task.c ****     {
 1744              		.loc 1 777 25 is_stmt 1 discriminator 1 view .LVU561
 777:Application/chassis_task.c ****     {
 1745              		.loc 1 777 5 is_stmt 0 discriminator 1 view .LVU562
 1746 0086 032B     		cmp	r3, #3
 1747 0088 E3D9     		bls	.L116
 1748              	.LBE12:
 781:Application/chassis_task.c **** 
 1749              		.loc 1 781 5 is_stmt 1 view .LVU563
 781:Application/chassis_task.c **** 
 1750              		.loc 1 781 53 is_stmt 0 view .LVU564
 1751 008a 134B     		ldr	r3, .L122+4
 1752              	.LVL59:
 781:Application/chassis_task.c **** 
 1753              		.loc 1 781 53 view .LVU565
 1754 008c D3ED8A7A 		vldr.32	s15, [r3, #552]
 1755 0090 9FED147A 		vldr.32	s14, .L122+16
 1756 0094 67EE877A 		vmul.f32	s15, s15, s14
 1757 0098 C3ED8A7A 		vstr.32	s15, [r3, #552]
 783:Application/chassis_task.c ****     {
 1758              		.loc 1 783 5 is_stmt 1 view .LVU566
 783:Application/chassis_task.c ****     {
 1759              		.loc 1 783 9 is_stmt 0 view .LVU567
 1760 009c 124B     		ldr	r3, .L122+20
 1761 009e 1B78     		ldrb	r3, [r3]	@ zero_extendqisi2
 783:Application/chassis_task.c ****     {
 1762              		.loc 1 783 8 view .LVU568
 1763 00a0 4BB9     		cbnz	r3, .L117
 783:Application/chassis_task.c ****     {
 1764              		.loc 1 783 31 discriminator 1 view .LVU569
 1765 00a2 124B     		ldr	r3, .L122+24
 1766 00a4 1A68     		ldr	r2, [r3]
 1767 00a6 124B     		ldr	r3, .L122+28
 1768 00a8 A3FB0213 		umull	r1, r3, r3, r2
 1769 00ac 5B09     		lsrs	r3, r3, #5
 1770 00ae 6421     		movs	r1, #100
 1771 00b0 01FB1323 		mls	r3, r1, r3, r2
 783:Application/chassis_task.c ****     {
 1772              		.loc 1 783 22 discriminator 1 view .LVU570
 1773 00b4 33B9     		cbnz	r3, .L118
 1774              	.L117:
 785:Application/chassis_task.c ****         JudgeRxValid = 0;
 1775              		.loc 1 785 9 is_stmt 1 view .LVU571
 1776 00b6 0F49     		ldr	r1, .L122+32
 1777 00b8 0F48     		ldr	r0, .L122+36
ARM GAS  C:\Users\86152\AppData\Local\Temp\ccWGVtEI.s 			page 58


 1778 00ba FFF7FEFF 		bl	Send_JudgeRxData
 1779              	.LVL60:
 786:Application/chassis_task.c ****     }
 1780              		.loc 1 786 9 view .LVU572
 786:Application/chassis_task.c ****     }
 1781              		.loc 1 786 22 is_stmt 0 view .LVU573
 1782 00be 0A4B     		ldr	r3, .L122+20
 1783 00c0 0022     		movs	r2, #0
 1784 00c2 1A70     		strb	r2, [r3]
 1785              	.L118:
 789:Application/chassis_task.c **** }
 1786              		.loc 1 789 5 is_stmt 1 view .LVU574
 789:Application/chassis_task.c **** }
 1787              		.loc 1 789 10 is_stmt 0 view .LVU575
 1788 00c4 094A     		ldr	r2, .L122+24
 1789 00c6 1368     		ldr	r3, [r2]
 1790 00c8 0133     		adds	r3, r3, #1
 1791 00ca 1360     		str	r3, [r2]
 790:Application/chassis_task.c **** 
 1792              		.loc 1 790 1 view .LVU576
 1793 00cc 03B0     		add	sp, sp, #12
 1794              	.LCFI13:
 1795              		.cfi_def_cfa_offset 4
 1796              		@ sp needed
 1797 00ce 5DF804FB 		ldr	pc, [sp], #4
 1798              	.L123:
 1799 00d2 00BF     		.align	2
 1800              	.L122:
 1801 00d4 00000000 		.word	hcan1
 1802 00d8 00000000 		.word	Chassis
 1803 00dc 00000000 		.word	hiwdg
 1804 00e0 00000000 		.word	ina226
 1805 00e4 DAF83934 		.word	876214490
 1806 00e8 00000000 		.word	JudgeRxValid
 1807 00ec 00000000 		.word	.LANCHOR19
 1808 00f0 1F85EB51 		.word	1374389535
 1809 00f4 00000000 		.word	JudgeRxData
 1810 00f8 00000000 		.word	hcan2
 1811              		.cfi_endproc
 1812              	.LFE178:
 1814              		.section	.text.Chassis_Init,"ax",%progbits
 1815              		.align	1
 1816              		.global	Chassis_Init
 1817              		.syntax unified
 1818              		.thumb
 1819              		.thumb_func
 1821              	Chassis_Init:
 1822              	.LFB171:
 115:Application/chassis_task.c ****     Chassis.VelocityRatio = VELOCITY_RATIO;
 1823              		.loc 1 115 1 is_stmt 1 view -0
 1824              		.cfi_startproc
 1825              		@ args = 0, pretend = 0, frame = 0
 1826              		@ frame_needed = 0, uses_anonymous_args = 0
 1827 0000 70B5     		push	{r4, r5, r6, lr}
 1828              	.LCFI14:
 1829              		.cfi_def_cfa_offset 16
 1830              		.cfi_offset 4, -16
ARM GAS  C:\Users\86152\AppData\Local\Temp\ccWGVtEI.s 			page 59


 1831              		.cfi_offset 5, -12
 1832              		.cfi_offset 6, -8
 1833              		.cfi_offset 14, -4
 1834 0002 2DED028B 		vpush.64	{d8}
 1835              	.LCFI15:
 1836              		.cfi_def_cfa_offset 24
 1837              		.cfi_offset 80, -24
 1838              		.cfi_offset 81, -20
 116:Application/chassis_task.c **** 
 1839              		.loc 1 116 5 view .LVU578
 116:Application/chassis_task.c **** 
 1840              		.loc 1 116 27 is_stmt 0 view .LVU579
 1841 0006 634D     		ldr	r5, .L128
 1842 0008 634B     		ldr	r3, .L128+4
 1843 000a 6B61     		str	r3, [r5, #20]	@ float
 118:Application/chassis_task.c **** 
 1844              		.loc 1 118 5 is_stmt 1 view .LVU580
 118:Application/chassis_task.c **** 
 1845              		.loc 1 118 32 is_stmt 0 view .LVU581
 1846 000c 0023     		movs	r3, #0
 1847 000e AB61     		str	r3, [r5, #24]	@ float
 120:Application/chassis_task.c **** 
 1848              		.loc 1 120 5 is_stmt 1 view .LVU582
 120:Application/chassis_task.c **** 
 1849              		.loc 1 120 38 is_stmt 0 view .LVU583
 1850 0010 4FF07E53 		mov	r3, #1065353216
 1851 0014 C5F8E031 		str	r3, [r5, #480]	@ float
 120:Application/chassis_task.c **** 
 1852              		.loc 1 120 64 is_stmt 1 view .LVU584
 122:Application/chassis_task.c ****     Chassis.PowerControl.LowVoltage_Gain = LOWVOLTAGE_GAIN;
 1853              		.loc 1 122 5 view .LVU585
 122:Application/chassis_task.c ****     Chassis.PowerControl.LowVoltage_Gain = LOWVOLTAGE_GAIN;
 1854              		.loc 1 122 48 is_stmt 0 view .LVU586
 1855 0018 604B     		ldr	r3, .L128+8
 1856 001a C5F82C32 		str	r3, [r5, #556]	@ float
 123:Application/chassis_task.c **** 
 1857              		.loc 1 123 5 is_stmt 1 view .LVU587
 123:Application/chassis_task.c **** 
 1858              		.loc 1 123 42 is_stmt 0 view .LVU588
 1859 001e 604B     		ldr	r3, .L128+12
 1860 0020 C5F83032 		str	r3, [r5, #560]	@ float
 125:Application/chassis_task.c ****     TD_Init(&Chassis.ChassisVyTD, 1000, 0.01f);
 1861              		.loc 1 125 5 is_stmt 1 view .LVU589
 1862 0024 DFED5F8A 		vldr.32	s17, .L128+16
 1863 0028 9FED5F8A 		vldr.32	s16, .L128+20
 1864 002c F0EE680A 		vmov.f32	s1, s17
 1865 0030 B0EE480A 		vmov.f32	s0, s16
 1866 0034 5D48     		ldr	r0, .L128+24
 1867 0036 FFF7FEFF 		bl	TD_Init
 1868              	.LVL61:
 126:Application/chassis_task.c **** 
 1869              		.loc 1 126 5 view .LVU590
 1870 003a F0EE680A 		vmov.f32	s1, s17
 1871 003e B0EE480A 		vmov.f32	s0, s16
 1872 0042 5B48     		ldr	r0, .L128+28
 1873 0044 FFF7FEFF 		bl	TD_Init
 1874              	.LVL62:
ARM GAS  C:\Users\86152\AppData\Local\Temp\ccWGVtEI.s 			page 60


 128:Application/chassis_task.c **** 
 1875              		.loc 1 128 5 view .LVU591
 128:Application/chassis_task.c **** 
 1876              		.loc 1 128 42 is_stmt 0 view .LVU592
 1877 0048 5A4A     		ldr	r2, .L128+32
 1878 004a 136B     		ldr	r3, [r2, #48]
 128:Application/chassis_task.c **** 
 1879              		.loc 1 128 72 view .LVU593
 1880 004c B2F93410 		ldrsh	r1, [r2, #52]
 128:Application/chassis_task.c **** 
 1881              		.loc 1 128 55 view .LVU594
 1882 0050 5B1A     		subs	r3, r3, r1
 1883 0052 07EE903A 		vmov	s15, r3	@ int
 128:Application/chassis_task.c **** 
 1884              		.loc 1 128 102 view .LVU595
 1885 0056 F8EEE77A 		vcvt.f32.s32	s15, s15
 1886 005a 9FED577A 		vldr.32	s14, .L128+36
 1887 005e 67EE877A 		vmul.f32	s15, s15, s14
 128:Application/chassis_task.c **** 
 1888              		.loc 1 128 24 view .LVU596
 1889 0062 C5ED7A7A 		vstr.32	s15, [r5, #488]
 130:Application/chassis_task.c **** 
 1890              		.loc 1 130 5 is_stmt 1 view .LVU597
 130:Application/chassis_task.c **** 
 1891              		.loc 1 130 79 is_stmt 0 view .LVU598
 1892 0066 B2F92830 		ldrsh	r3, [r2, #40]
 1893 006a 00EE103A 		vmov	s0, r3	@ int
 130:Application/chassis_task.c **** 
 1894              		.loc 1 130 109 view .LVU599
 1895 006e B8EEC00A 		vcvt.f32.s32	s0, s0
 1896 0072 20EE070A 		vmul.f32	s0, s0, s14
 130:Application/chassis_task.c **** 
 1897              		.loc 1 130 21 view .LVU600
 1898 0076 9FED511A 		vldr.32	s2, .L128+40
 1899 007a DFED510A 		vldr.32	s1, .L128+44
 1900 007e 37EE800A 		vadd.f32	s0, s15, s0
 1901 0082 FFF7FEFF 		bl	loop_float_constrain
 1902              	.LVL63:
 130:Application/chassis_task.c **** 
 1903              		.loc 1 130 19 view .LVU601
 1904 0086 85ED790A 		vstr.32	s0, [r5, #484]
 132:Application/chassis_task.c **** 
 1905              		.loc 1 132 5 is_stmt 1 view .LVU602
 132:Application/chassis_task.c **** 
 1906              		.loc 1 132 32 is_stmt 0 view .LVU603
 1907 008a 0024     		movs	r4, #0
 1908 008c C5F8D841 		str	r4, [r5, #472]
 135:Application/chassis_task.c ****     {
 1909              		.loc 1 135 5 is_stmt 1 view .LVU604
 1910              	.LBB13:
 135:Application/chassis_task.c ****     {
 1911              		.loc 1 135 10 view .LVU605
 1912              	.LVL64:
 135:Application/chassis_task.c ****     {
 1913              		.loc 1 135 5 is_stmt 0 view .LVU606
 1914 0090 25E0     		b	.L125
 1915              	.LVL65:
ARM GAS  C:\Users\86152\AppData\Local\Temp\ccWGVtEI.s 			page 61


 1916              	.L126:
 137:Application/chassis_task.c ****             &Chassis.ChassisMotor[i].PID_Velocity, 16384, 16384, 0, 15, 30, 0, 500, 100, 0.005, 0, 
 1917              		.loc 1 137 9 is_stmt 1 discriminator 3 view .LVU607
 1918 0092 9FED4C1A 		vldr.32	s2, .L128+48
 1919 0096 9FED4C0A 		vldr.32	s0, .L128+52
 1920 009a 4FF49D65 		mov	r5, #1256
 1921 009e 05FB04F6 		mul	r6, r5, r4
 1922 00a2 06F54E70 		add	r0, r6, #824
 1923 00a6 3B4D     		ldr	r5, .L128
 1924 00a8 1122     		movs	r2, #17
 1925 00aa 0121     		movs	r1, #1
 1926 00ac F0EE414A 		vmov.f32	s9, s2
 1927 00b0 9FED464A 		vldr.32	s8, .L128+56
 1928 00b4 DFED463A 		vldr.32	s7, .L128+60
 1929 00b8 9FED463A 		vldr.32	s6, .L128+64
 1930 00bc F0EE412A 		vmov.f32	s5, s2
 1931 00c0 B3EE0E2A 		vmov.f32	s4, #3.0e+1
 1932 00c4 F2EE0E1A 		vmov.f32	s3, #1.5e+1
 1933 00c8 F0EE400A 		vmov.f32	s1, s0
 1934 00cc 2844     		add	r0, r0, r5
 1935 00ce FFF7FEFF 		bl	PID_Init
 1936              	.LVL66:
 139:Application/chassis_task.c ****     }
 1937              		.loc 1 139 9 discriminator 3 view .LVU608
 139:Application/chassis_task.c ****     }
 1938              		.loc 1 139 41 is_stmt 0 discriminator 3 view .LVU609
 1939 00d2 3544     		add	r5, r5, r6
 1940 00d4 404B     		ldr	r3, .L128+68
 1941 00d6 C5F87C32 		str	r3, [r5, #636]	@ float
 135:Application/chassis_task.c ****     {
 1942              		.loc 1 135 32 is_stmt 1 discriminator 3 view .LVU610
 135:Application/chassis_task.c ****     {
 1943              		.loc 1 135 33 is_stmt 0 discriminator 3 view .LVU611
 1944 00da 0134     		adds	r4, r4, #1
 1945              	.LVL67:
 135:Application/chassis_task.c ****     {
 1946              		.loc 1 135 33 discriminator 3 view .LVU612
 1947 00dc E4B2     		uxtb	r4, r4
 1948              	.LVL68:
 1949              	.L125:
 135:Application/chassis_task.c ****     {
 1950              		.loc 1 135 25 is_stmt 1 discriminator 1 view .LVU613
 135:Application/chassis_task.c ****     {
 1951              		.loc 1 135 5 is_stmt 0 discriminator 1 view .LVU614
 1952 00de 032C     		cmp	r4, #3
 1953 00e0 D7D9     		bls	.L126
 1954              	.LBE13:
 142:Application/chassis_task.c ****              0, 0, 0, 1,
 1955              		.loc 1 142 5 is_stmt 1 view .LVU615
 1956 00e2 9FED388A 		vldr.32	s16, .L128+48
 1957 00e6 3D4C     		ldr	r4, .L128+72
 1958              	.LVL69:
 142:Application/chassis_task.c ****              0, 0, 0, 1,
 1959              		.loc 1 142 5 is_stmt 0 view .LVU616
 1960 00e8 5322     		movs	r2, #83
 1961 00ea 0121     		movs	r1, #1
 1962 00ec F0EE484A 		vmov.f32	s9, s16
ARM GAS  C:\Users\86152\AppData\Local\Temp\ccWGVtEI.s 			page 62


 1963 00f0 B0EE484A 		vmov.f32	s8, s16
 1964 00f4 F0EE483A 		vmov.f32	s7, s16
 1965 00f8 B0EE483A 		vmov.f32	s6, s16
 1966 00fc F0EE482A 		vmov.f32	s5, s16
 1967 0100 B0EE482A 		vmov.f32	s4, s16
 1968 0104 F2EE001A 		vmov.f32	s3, #8.0e+0
 1969 0108 B0EE481A 		vmov.f32	s2, s16
 1970 010c DFED300A 		vldr.32	s1, .L128+60
 1971 0110 9FED330A 		vldr.32	s0, .L128+76
 1972 0114 2046     		mov	r0, r4
 1973 0116 FFF7FEFF 		bl	PID_Init
 1974              	.LVL70:
 146:Application/chassis_task.c ****              0, 0, 0, 1,
 1975              		.loc 1 146 5 is_stmt 1 view .LVU617
 1976 011a 5322     		movs	r2, #83
 1977 011c 0121     		movs	r1, #1
 1978 011e F0EE484A 		vmov.f32	s9, s16
 1979 0122 B0EE484A 		vmov.f32	s8, s16
 1980 0126 F0EE483A 		vmov.f32	s7, s16
 1981 012a B0EE483A 		vmov.f32	s6, s16
 1982 012e F0EE482A 		vmov.f32	s5, s16
 1983 0132 B0EE482A 		vmov.f32	s4, s16
 1984 0136 DFED2B1A 		vldr.32	s3, .L128+80
 1985 013a B0EE481A 		vmov.f32	s2, s16
 1986 013e F3EE0E0A 		vmov.f32	s1, #3.0e+1
 1987 0142 9FED290A 		vldr.32	s0, .L128+84
 1988 0146 04F5CC70 		add	r0, r4, #408
 1989 014a FFF7FEFF 		bl	PID_Init
 1990              	.LVL71:
 150:Application/chassis_task.c **** 
 1991              		.loc 1 150 5 view .LVU618
 1992 014e DFED270A 		vldr.32	s1, .L128+88
 1993 0152 9FED270A 		vldr.32	s0, .L128+92
 1994 0156 04F5AC70 		add	r0, r4, #344
 1995 015a FFF7FEFF 		bl	TD_Init
 1996              	.LVL72:
 152:Application/chassis_task.c ****     Matrix_Init(&Chassis.ChassisMotionEst.HT, 6, 4, (float *)Chassis.ChassisMotionEst.HT_data);
 1997              		.loc 1 152 5 view .LVU619
 152:Application/chassis_task.c ****     Matrix_Init(&Chassis.ChassisMotionEst.HT, 6, 4, (float *)Chassis.ChassisMotionEst.HT_data);
 1998              		.loc 1 152 52 is_stmt 0 view .LVU620
 1999 015e 0D4C     		ldr	r4, .L128
 152:Application/chassis_task.c ****     Matrix_Init(&Chassis.ChassisMotionEst.HT, 6, 4, (float *)Chassis.ChassisMotionEst.HT_data);
 2000              		.loc 1 152 5 view .LVU621
 2001 0160 D4F82C31 		ldr	r3, [r4, #300]
 2002 0164 0622     		movs	r2, #6
 2003 0166 0421     		movs	r1, #4
 2004 0168 04F19800 		add	r0, r4, #152
 2005 016c FFF7FEFF 		bl	arm_mat_init_f32
 2006              	.LVL73:
 153:Application/chassis_task.c ****     ChassisMotionEst_Init();
 2007              		.loc 1 153 5 is_stmt 1 view .LVU622
 2008 0170 D4F83031 		ldr	r3, [r4, #304]
 2009 0174 0422     		movs	r2, #4
 2010 0176 0621     		movs	r1, #6
 2011 0178 04F1A000 		add	r0, r4, #160
 2012 017c FFF7FEFF 		bl	arm_mat_init_f32
 2013              	.LVL74:
ARM GAS  C:\Users\86152\AppData\Local\Temp\ccWGVtEI.s 			page 63


 154:Application/chassis_task.c ****     Chassis.IsSpining = 0;
 2014              		.loc 1 154 5 view .LVU623
 2015 0180 FFF7FEFF 		bl	ChassisMotionEst_Init
 2016              	.LVL75:
 155:Application/chassis_task.c **** }
 2017              		.loc 1 155 5 view .LVU624
 155:Application/chassis_task.c **** }
 2018              		.loc 1 155 23 is_stmt 0 view .LVU625
 2019 0184 04F58054 		add	r4, r4, #4096
 2020 0188 0023     		movs	r3, #0
 2021 018a 84F86A37 		strb	r3, [r4, #1898]
 156:Application/chassis_task.c **** 
 2022              		.loc 1 156 1 view .LVU626
 2023 018e BDEC028B 		vldm	sp!, {d8}
 2024              	.LCFI16:
 2025              		.cfi_restore 80
 2026              		.cfi_restore 81
 2027              		.cfi_def_cfa_offset 16
 2028 0192 70BD     		pop	{r4, r5, r6, pc}
 2029              	.L129:
 2030              		.align	2
 2031              	.L128:
 2032 0194 00000000 		.word	Chassis
 2033 0198 00004040 		.word	1077936128
 2034 019c 3333733F 		.word	1064514355
 2035 01a0 3333333F 		.word	1060320051
 2036 01a4 0AD7233C 		.word	1008981770
 2037 01a8 00007A44 		.word	1148846080
 2038 01ac 90160000 		.word	Chassis+5776
 2039 01b0 B8160000 		.word	Chassis+5816
 2040 01b4 00000000 		.word	Gimbal
 2041 01b8 B400B43B 		.word	1001652404
 2042 01bc 00003443 		.word	1127481344
 2043 01c0 000034C3 		.word	-1020002304
 2044 01c4 00000000 		.word	0
 2045 01c8 00008046 		.word	1182793728
 2046 01cc 0AD7A33B 		.word	1000593162
 2047 01d0 0000C842 		.word	1120403456
 2048 01d4 0000FA43 		.word	1140457472
 2049 01d8 00803B46 		.word	1178304512
 2050 01dc D8150000 		.word	Chassis+5592
 2051 01e0 00009643 		.word	1133903872
 2052 01e4 CDCCCC3D 		.word	1036831949
 2053 01e8 00004842 		.word	1112014848
 2054 01ec 6F12833A 		.word	981668463
 2055 01f0 0050C347 		.word	1203982336
 2056              		.cfi_endproc
 2057              	.LFE171:
 2059              		.section	.text.Insert_thetaFrame,"ax",%progbits
 2060              		.align	1
 2061              		.global	Insert_thetaFrame
 2062              		.syntax unified
 2063              		.thumb
 2064              		.thumb_func
 2066              	Insert_thetaFrame:
 2067              	.LVL76:
 2068              	.LFB184:
ARM GAS  C:\Users\86152\AppData\Local\Temp\ccWGVtEI.s 			page 64


 952:Application/chassis_task.c **** 
 953:Application/chassis_task.c **** void Insert_thetaFrame(thetaFrame_t *theta_frame, float follow_theta, uint32_t time_stamp_ms)
 954:Application/chassis_task.c **** {
 2069              		.loc 1 954 1 is_stmt 1 view -0
 2070              		.cfi_startproc
 2071              		@ args = 0, pretend = 0, frame = 0
 2072              		@ frame_needed = 0, uses_anonymous_args = 0
 2073              		.loc 1 954 1 is_stmt 0 view .LVU628
 2074 0000 38B5     		push	{r3, r4, r5, lr}
 2075              	.LCFI17:
 2076              		.cfi_def_cfa_offset 16
 2077              		.cfi_offset 3, -16
 2078              		.cfi_offset 4, -12
 2079              		.cfi_offset 5, -8
 2080              		.cfi_offset 14, -4
 2081 0002 2DED028B 		vpush.64	{d8}
 2082              	.LCFI18:
 2083              		.cfi_def_cfa_offset 24
 2084              		.cfi_offset 80, -24
 2085              		.cfi_offset 81, -20
 2086 0006 0446     		mov	r4, r0
 2087 0008 10EE105A 		vmov	r5, s0
 2088 000c 08EE101A 		vmov	s16, r1	@ int
 955:Application/chassis_task.c ****     memmove(theta_frame + 1, theta_frame, (FOLLOW_THETA_LEN - 1) * sizeof(thetaFrame_t));
 2089              		.loc 1 955 5 is_stmt 1 view .LVU629
 2090 0010 4FF4C762 		mov	r2, #1592
 2091 0014 0146     		mov	r1, r0
 2092              	.LVL77:
 2093              		.loc 1 955 5 is_stmt 0 view .LVU630
 2094 0016 0830     		adds	r0, r0, #8
 2095              	.LVL78:
 2096              		.loc 1 955 5 view .LVU631
 2097 0018 FFF7FEFF 		bl	memmove
 2098              	.LVL79:
 956:Application/chassis_task.c ****     theta_frame[0].TimeStamp_ms = time_stamp_ms;
 2099              		.loc 1 956 5 is_stmt 1 view .LVU632
 2100              		.loc 1 956 33 is_stmt 0 view .LVU633
 2101 001c B8EE488A 		vcvt.f32.u32	s16, s16
 2102              	.LVL80:
 2103              		.loc 1 956 33 view .LVU634
 2104 0020 84ED018A 		vstr.32	s16, [r4, #4]
 957:Application/chassis_task.c ****     theta_frame[0].FollowTheta = follow_theta;
 2105              		.loc 1 957 5 is_stmt 1 view .LVU635
 2106              		.loc 1 957 32 is_stmt 0 view .LVU636
 2107 0024 2560     		str	r5, [r4]	@ float
 958:Application/chassis_task.c **** }
 2108              		.loc 1 958 1 view .LVU637
 2109 0026 BDEC028B 		vldm	sp!, {d8}
 2110              	.LCFI19:
 2111              		.cfi_restore 80
 2112              		.cfi_restore 81
 2113              		.cfi_def_cfa_offset 16
 2114 002a 38BD     		pop	{r3, r4, r5, pc}
 2115              		.loc 1 958 1 view .LVU638
 2116              		.cfi_endproc
 2117              	.LFE184:
 2119              		.section	.text.Chassis_Get_Theta,"ax",%progbits
ARM GAS  C:\Users\86152\AppData\Local\Temp\ccWGVtEI.s 			page 65


 2120              		.align	1
 2121              		.syntax unified
 2122              		.thumb
 2123              		.thumb_func
 2125              	Chassis_Get_Theta:
 2126              	.LFB174:
 203:Application/chassis_task.c ****     // 底盘与云台偏角获取
 2127              		.loc 1 203 1 is_stmt 1 view -0
 2128              		.cfi_startproc
 2129              		@ args = 0, pretend = 0, frame = 0
 2130              		@ frame_needed = 0, uses_anonymous_args = 0
 2131 0000 10B5     		push	{r4, lr}
 2132              	.LCFI20:
 2133              		.cfi_def_cfa_offset 8
 2134              		.cfi_offset 4, -8
 2135              		.cfi_offset 14, -4
 2136 0002 2DED028B 		vpush.64	{d8}
 2137              	.LCFI21:
 2138              		.cfi_def_cfa_offset 16
 2139              		.cfi_offset 80, -16
 2140              		.cfi_offset 81, -12
 205:Application/chassis_task.c **** 
 2141              		.loc 1 205 5 view .LVU640
 205:Application/chassis_task.c **** 
 2142              		.loc 1 205 42 is_stmt 0 view .LVU641
 2143 0006 214A     		ldr	r2, .L135
 2144 0008 136B     		ldr	r3, [r2, #48]
 205:Application/chassis_task.c **** 
 2145              		.loc 1 205 72 view .LVU642
 2146 000a B2F93410 		ldrsh	r1, [r2, #52]
 205:Application/chassis_task.c **** 
 2147              		.loc 1 205 55 view .LVU643
 2148 000e 5B1A     		subs	r3, r3, r1
 2149 0010 07EE903A 		vmov	s15, r3	@ int
 205:Application/chassis_task.c **** 
 2150              		.loc 1 205 102 view .LVU644
 2151 0014 F8EEE77A 		vcvt.f32.s32	s15, s15
 2152 0018 9FED1D7A 		vldr.32	s14, .L135+4
 2153 001c 67EE877A 		vmul.f32	s15, s15, s14
 205:Application/chassis_task.c **** 
 2154              		.loc 1 205 24 view .LVU645
 2155 0020 1C4C     		ldr	r4, .L135+8
 2156 0022 C4ED7A7A 		vstr.32	s15, [r4, #488]
 207:Application/chassis_task.c ****                                           Gimbal.YawMotor.offset_angle * ENCODERCOEF * YAW_REDUCTIO
 2157              		.loc 1 207 5 is_stmt 1 view .LVU646
 208:Application/chassis_task.c ****                                          -180, 180);
 2158              		.loc 1 208 58 is_stmt 0 view .LVU647
 2159 0026 B2F92830 		ldrsh	r3, [r2, #40]
 2160 002a 00EE103A 		vmov	s0, r3	@ int
 208:Application/chassis_task.c ****                                          -180, 180);
 2161              		.loc 1 208 88 view .LVU648
 2162 002e B8EEC00A 		vcvt.f32.s32	s0, s0
 2163 0032 20EE070A 		vmul.f32	s0, s0, s14
 207:Application/chassis_task.c ****                                           Gimbal.YawMotor.offset_angle * ENCODERCOEF * YAW_REDUCTIO
 2164              		.loc 1 207 21 view .LVU649
 2165 0036 9FED181A 		vldr.32	s2, .L135+12
 2166 003a DFED180A 		vldr.32	s1, .L135+16
ARM GAS  C:\Users\86152\AppData\Local\Temp\ccWGVtEI.s 			page 66


 2167 003e 37EE800A 		vadd.f32	s0, s15, s0
 2168 0042 FFF7FEFF 		bl	loop_float_constrain
 2169              	.LVL81:
 207:Application/chassis_task.c ****                                           Gimbal.YawMotor.offset_angle * ENCODERCOEF * YAW_REDUCTIO
 2170              		.loc 1 207 19 view .LVU650
 2171 0046 84ED790A 		vstr.32	s0, [r4, #484]
 211:Application/chassis_task.c ****     {
 2172              		.loc 1 211 5 is_stmt 1 view .LVU651
 211:Application/chassis_task.c ****     {
 2173              		.loc 1 211 9 is_stmt 0 view .LVU652
 2174 004a 0020     		movs	r0, #0
 2175 004c FFF7FEFF 		bl	is_TOE_Error
 2176              	.LVL82:
 211:Application/chassis_task.c ****     {
 2177              		.loc 1 211 8 view .LVU653
 2178 0050 20B1     		cbz	r0, .L133
 213:Application/chassis_task.c ****         Chassis.Theta = 0;
 2179              		.loc 1 213 9 is_stmt 1 view .LVU654
 213:Application/chassis_task.c ****         Chassis.Theta = 0;
 2180              		.loc 1 213 28 is_stmt 0 view .LVU655
 2181 0052 0022     		movs	r2, #0
 2182 0054 C4F8E821 		str	r2, [r4, #488]	@ float
 214:Application/chassis_task.c ****     }
 2183              		.loc 1 214 9 is_stmt 1 view .LVU656
 214:Application/chassis_task.c ****     }
 2184              		.loc 1 214 23 is_stmt 0 view .LVU657
 2185 0058 C4F8E421 		str	r2, [r4, #484]	@ float
 2186              	.L133:
 217:Application/chassis_task.c ****     Insert_thetaFrame(Chassis.thetaFrame, Chassis.FollowTheta, INS_GetTimeline());
 2187              		.loc 1 217 5 is_stmt 1 view .LVU658
 217:Application/chassis_task.c ****     Insert_thetaFrame(Chassis.thetaFrame, Chassis.FollowTheta, INS_GetTimeline());
 2188              		.loc 1 217 27 is_stmt 0 view .LVU659
 2189 005c 0D4C     		ldr	r4, .L135+8
 2190 005e 9FED101A 		vldr.32	s2, .L135+20
 2191 0062 DFED100A 		vldr.32	s1, .L135+24
 2192 0066 94ED790A 		vldr.32	s0, [r4, #484]
 2193 006a FFF7FEFF 		bl	float_deadband
 2194              	.LVL83:
 2195 006e B0EE408A 		vmov.f32	s16, s0
 217:Application/chassis_task.c ****     Insert_thetaFrame(Chassis.thetaFrame, Chassis.FollowTheta, INS_GetTimeline());
 2196              		.loc 1 217 25 view .LVU660
 2197 0072 84ED7B0A 		vstr.32	s0, [r4, #492]
 218:Application/chassis_task.c **** }
 2198              		.loc 1 218 5 is_stmt 1 view .LVU661
 2199 0076 FFF7FEFF 		bl	HAL_GetTick
 2200              	.LVL84:
 2201 007a 0146     		mov	r1, r0
 2202 007c B0EE480A 		vmov.f32	s0, s16
 2203 0080 0948     		ldr	r0, .L135+28
 2204 0082 FFF7FEFF 		bl	Insert_thetaFrame
 2205              	.LVL85:
 219:Application/chassis_task.c **** 
 2206              		.loc 1 219 1 is_stmt 0 view .LVU662
 2207 0086 BDEC028B 		vldm	sp!, {d8}
 2208              	.LCFI22:
 2209              		.cfi_restore 80
 2210              		.cfi_restore 81
ARM GAS  C:\Users\86152\AppData\Local\Temp\ccWGVtEI.s 			page 67


 2211              		.cfi_def_cfa_offset 8
 2212 008a 10BD     		pop	{r4, pc}
 2213              	.L136:
 2214              		.align	2
 2215              	.L135:
 2216 008c 00000000 		.word	Gimbal
 2217 0090 B400B43B 		.word	1001652404
 2218 0094 00000000 		.word	Chassis
 2219 0098 00003443 		.word	1127481344
 2220 009c 000034C3 		.word	-1020002304
 2221 00a0 0AD7A33B 		.word	1000593162
 2222 00a4 0AD7A3BB 		.word	-1146890486
 2223 00a8 50180000 		.word	Chassis+6224
 2224              		.cfi_endproc
 2225              	.LFE174:
 2227              		.section	.text.Find_thetaFrame,"ax",%progbits
 2228              		.align	1
 2229              		.global	Find_thetaFrame
 2230              		.syntax unified
 2231              		.thumb
 2232              		.thumb_func
 2234              	Find_thetaFrame:
 2235              	.LVL86:
 2236              	.LFB185:
 959:Application/chassis_task.c **** 
 960:Application/chassis_task.c **** uint16_t Find_thetaFrame(thetaFrame_t *theta_frame, uint32_t match_time_stamp_ms)
 961:Application/chassis_task.c **** {
 2237              		.loc 1 961 1 is_stmt 1 view -0
 2238              		.cfi_startproc
 2239              		@ args = 0, pretend = 0, frame = 0
 2240              		@ frame_needed = 0, uses_anonymous_args = 0
 2241              		@ link register save eliminated.
 2242              		.loc 1 961 1 is_stmt 0 view .LVU664
 2243 0000 8446     		mov	ip, r0
 2244 0002 06EE901A 		vmov	s13, r1	@ int
 962:Application/chassis_task.c ****     uint16_t num = 0;
 2245              		.loc 1 962 5 is_stmt 1 view .LVU665
 2246              	.LVL87:
 963:Application/chassis_task.c ****     float min_time_error = fabsf((float)(theta_frame[0].TimeStamp_ms) - match_time_stamp_ms);
 2247              		.loc 1 963 5 view .LVU666
 2248              		.loc 1 963 56 is_stmt 0 view .LVU667
 2249 0006 90ED017A 		vldr.32	s14, [r0, #4]
 2250              		.loc 1 963 71 view .LVU668
 2251 000a F8EE666A 		vcvt.f32.u32	s13, s13
 2252 000e 37EE667A 		vsub.f32	s14, s14, s13
 2253              		.loc 1 963 11 view .LVU669
 2254 0012 B0EEC77A 		vabs.f32	s14, s14
 2255              	.LVL88:
 964:Application/chassis_task.c **** 
 965:Application/chassis_task.c ****     for (uint16_t i = 0; i < FOLLOW_THETA_LEN; i++)
 2256              		.loc 1 965 5 is_stmt 1 view .LVU670
 2257              	.LBB14:
 2258              		.loc 1 965 10 view .LVU671
 2259              		.loc 1 965 19 is_stmt 0 view .LVU672
 2260 0016 0023     		movs	r3, #0
 2261              	.LBE14:
 962:Application/chassis_task.c ****     float min_time_error = fabsf((float)(theta_frame[0].TimeStamp_ms) - match_time_stamp_ms);
ARM GAS  C:\Users\86152\AppData\Local\Temp\ccWGVtEI.s 			page 68


 2262              		.loc 1 962 14 view .LVU673
 2263 0018 1846     		mov	r0, r3
 2264              	.LVL89:
 2265              	.LBB15:
 2266              		.loc 1 965 5 view .LVU674
 2267 001a 01E0     		b	.L138
 2268              	.LVL90:
 2269              	.L139:
 2270              		.loc 1 965 48 is_stmt 1 discriminator 2 view .LVU675
 2271              		.loc 1 965 49 is_stmt 0 discriminator 2 view .LVU676
 2272 001c 0133     		adds	r3, r3, #1
 2273              	.LVL91:
 2274              		.loc 1 965 49 discriminator 2 view .LVU677
 2275 001e 9BB2     		uxth	r3, r3
 2276              	.LVL92:
 2277              	.L138:
 2278              		.loc 1 965 26 is_stmt 1 discriminator 1 view .LVU678
 2279              		.loc 1 965 5 is_stmt 0 discriminator 1 view .LVU679
 2280 0020 C72B     		cmp	r3, #199
 2281 0022 10D8     		bhi	.L142
 966:Application/chassis_task.c ****     {
 967:Application/chassis_task.c ****         if (fabsf((float)(theta_frame[i].TimeStamp_ms) - match_time_stamp_ms) < min_time_error)
 2282              		.loc 1 967 9 is_stmt 1 view .LVU680
 2283              		.loc 1 967 38 is_stmt 0 view .LVU681
 2284 0024 0CEBC302 		add	r2, ip, r3, lsl #3
 2285              		.loc 1 967 41 view .LVU682
 2286 0028 D2ED017A 		vldr.32	s15, [r2, #4]
 2287              		.loc 1 967 56 view .LVU683
 2288 002c 77EEE67A 		vsub.f32	s15, s15, s13
 2289              		.loc 1 967 13 view .LVU684
 2290 0030 F0EEE77A 		vabs.f32	s15, s15
 2291              		.loc 1 967 12 view .LVU685
 2292 0034 F4EEC77A 		vcmpe.f32	s15, s14
 2293 0038 F1EE10FA 		vmrs	APSR_nzcv, FPSCR
 2294 003c EED5     		bpl	.L139
 968:Application/chassis_task.c ****         {
 969:Application/chassis_task.c ****             min_time_error = fabsf((float)(theta_frame[i].TimeStamp_ms) - match_time_stamp_ms);
 2295              		.loc 1 969 28 view .LVU686
 2296 003e B0EE677A 		vmov.f32	s14, s15
 2297              	.LVL93:
 970:Application/chassis_task.c ****             num = i;
 2298              		.loc 1 970 17 view .LVU687
 2299 0042 1846     		mov	r0, r3
 2300              	.LVL94:
 2301              		.loc 1 970 17 view .LVU688
 2302 0044 EAE7     		b	.L139
 2303              	.LVL95:
 2304              	.L142:
 2305              		.loc 1 970 17 view .LVU689
 2306              	.LBE15:
 971:Application/chassis_task.c ****         }
 972:Application/chassis_task.c ****     }
 973:Application/chassis_task.c ****     return num;
 2307              		.loc 1 973 5 is_stmt 1 view .LVU690
 974:Application/chassis_task.c **** }
 2308              		.loc 1 974 1 is_stmt 0 view .LVU691
 2309 0046 7047     		bx	lr
ARM GAS  C:\Users\86152\AppData\Local\Temp\ccWGVtEI.s 			page 69


 2310              		.cfi_endproc
 2311              	.LFE185:
 2313              		.global	__aeabi_dadd
 2314              		.global	__aeabi_ddiv
 2315              		.section	.text.Chassis_Set_Control,"ax",%progbits
 2316              		.align	1
 2317              		.syntax unified
 2318              		.thumb
 2319              		.thumb_func
 2321              	Chassis_Set_Control:
 2322              	.LFB177:
 327:Application/chassis_task.c ****     static float tempVr, posX100, posY100;
 2323              		.loc 1 327 1 is_stmt 1 view -0
 2324              		.cfi_startproc
 2325              		@ args = 0, pretend = 0, frame = 0
 2326              		@ frame_needed = 0, uses_anonymous_args = 0
 2327 0000 2DE9F84F 		push	{r3, r4, r5, r6, r7, r8, r9, r10, fp, lr}
 2328              	.LCFI23:
 2329              		.cfi_def_cfa_offset 40
 2330              		.cfi_offset 3, -40
 2331              		.cfi_offset 4, -36
 2332              		.cfi_offset 5, -32
 2333              		.cfi_offset 6, -28
 2334              		.cfi_offset 7, -24
 2335              		.cfi_offset 8, -20
 2336              		.cfi_offset 9, -16
 2337              		.cfi_offset 10, -12
 2338              		.cfi_offset 11, -8
 2339              		.cfi_offset 14, -4
 2340 0004 2DED088B 		vpush.64	{d8, d9, d10, d11}
 2341              	.LCFI24:
 2342              		.cfi_def_cfa_offset 72
 2343              		.cfi_offset 80, -72
 2344              		.cfi_offset 81, -68
 2345              		.cfi_offset 82, -64
 2346              		.cfi_offset 83, -60
 2347              		.cfi_offset 84, -56
 2348              		.cfi_offset 85, -52
 2349              		.cfi_offset 86, -48
 2350              		.cfi_offset 87, -44
 328:Application/chassis_task.c ****     static float SpiningDistance, spinnig_center0_temp, spinnig_center1_temp, move_ratio;
 2351              		.loc 1 328 5 view .LVU693
 329:Application/chassis_task.c ****     static uint32_t center_count, edge_count, data_novalid_count, reach_count;
 2352              		.loc 1 329 5 view .LVU694
 330:Application/chassis_task.c ****     static uint8_t thetaFrameNum, is_velocity;
 2353              		.loc 1 330 5 view .LVU695
 331:Application/chassis_task.c ****     static uint8_t reach_num = 0;
 2354              		.loc 1 331 5 view .LVU696
 332:Application/chassis_task.c **** 
 2355              		.loc 1 332 5 view .LVU697
 334:Application/chassis_task.c ****     {
 2356              		.loc 1 334 5 view .LVU698
 334:Application/chassis_task.c ****     {
 2357              		.loc 1 334 20 is_stmt 0 view .LVU699
 2358 0008 824B     		ldr	r3, .L249
 2359 000a 93F8D431 		ldrb	r3, [r3, #468]	@ zero_extendqisi2
 334:Application/chassis_task.c ****     {
ARM GAS  C:\Users\86152\AppData\Local\Temp\ccWGVtEI.s 			page 70


 2360              		.loc 1 334 5 view .LVU700
 2361 000e 042B     		cmp	r3, #4
 2362 0010 00F21881 		bhi	.L144
 2363 0014 DFE813F0 		tbh	[pc, r3, lsl #1]
 2364              	.L146:
 2365 0018 0500     		.2byte	(.L150-.L146)/2
 2366 001a 2D02     		.2byte	(.L149-.L146)/2
 2367 001c CA07     		.2byte	(.L148-.L146)/2
 2368 001e 1001     		.2byte	(.L147-.L146)/2
 2369 0020 1808     		.2byte	(.L145-.L146)/2
 2370              		.p2align 1
 2371              	.L150:
 338:Application/chassis_task.c ****             Chassis.Vr = remote_control.ch1 * Chassis.rcStickRotateRatio;
 2372              		.loc 1 338 9 is_stmt 1 view .LVU701
 338:Application/chassis_task.c ****             Chassis.Vr = remote_control.ch1 * Chassis.rcStickRotateRatio;
 2373              		.loc 1 338 26 is_stmt 0 view .LVU702
 2374 0022 7C4B     		ldr	r3, .L249
 2375 0024 93ED7B0A 		vldr.32	s0, [r3, #492]
 338:Application/chassis_task.c ****             Chassis.Vr = remote_control.ch1 * Chassis.rcStickRotateRatio;
 2376              		.loc 1 338 13 view .LVU703
 2377 0028 B0EEC07A 		vabs.f32	s14, s0
 338:Application/chassis_task.c ****             Chassis.Vr = remote_control.ch1 * Chassis.rcStickRotateRatio;
 2378              		.loc 1 338 12 view .LVU704
 2379 002c DFED7A7A 		vldr.32	s15, .L249+4
 2380 0030 B4EEE77A 		vcmpe.f32	s14, s15
 2381 0034 F1EE10FA 		vmrs	APSR_nzcv, FPSCR
 2382 0038 40F1C280 		bpl	.L232
 339:Application/chassis_task.c ****         else
 2383              		.loc 1 339 13 is_stmt 1 view .LVU705
 339:Application/chassis_task.c ****         else
 2384              		.loc 1 339 40 is_stmt 0 view .LVU706
 2385 003c 774B     		ldr	r3, .L249+8
 2386 003e B3F90430 		ldrsh	r3, [r3, #4]
 2387 0042 07EE903A 		vmov	s15, r3	@ int
 339:Application/chassis_task.c ****         else
 2388              		.loc 1 339 54 view .LVU707
 2389 0046 734B     		ldr	r3, .L249
 2390 0048 93ED067A 		vldr.32	s14, [r3, #24]
 339:Application/chassis_task.c ****         else
 2391              		.loc 1 339 45 view .LVU708
 2392 004c F8EEE77A 		vcvt.f32.s32	s15, s15
 2393 0050 67EE877A 		vmul.f32	s15, s15, s14
 339:Application/chassis_task.c ****         else
 2394              		.loc 1 339 24 view .LVU709
 2395 0054 FDEEE77A 		vcvt.s32.f32	s15, s15
 2396 0058 17EE902A 		vmov	r2, s15	@ int
 2397 005c 9A80     		strh	r2, [r3, #4]	@ movhi
 2398              	.L153:
 350:Application/chassis_task.c ****                              user_sin(-Chassis.FollowTheta / RADIAN_COEF) * (Chassis.Vy + Chassis.F
 2399              		.loc 1 350 9 is_stmt 1 view .LVU710
 350:Application/chassis_task.c ****                              user_sin(-Chassis.FollowTheta / RADIAN_COEF) * (Chassis.Vy + Chassis.F
 2400              		.loc 1 350 47 is_stmt 0 view .LVU711
 2401 005e 6D4C     		ldr	r4, .L249
 2402 0060 94ED7B0A 		vldr.32	s0, [r4, #492]
 350:Application/chassis_task.c ****                              user_sin(-Chassis.FollowTheta / RADIAN_COEF) * (Chassis.Vy + Chassis.F
 2403              		.loc 1 350 39 view .LVU712
 2404 0064 B1EE400A 		vneg.f32	s0, s0
ARM GAS  C:\Users\86152\AppData\Local\Temp\ccWGVtEI.s 			page 71


 350:Application/chassis_task.c ****                              user_sin(-Chassis.FollowTheta / RADIAN_COEF) * (Chassis.Vy + Chassis.F
 2405              		.loc 1 350 30 view .LVU713
 2406 0068 DFED6DAA 		vldr.32	s21, .L249+12
 2407 006c 80EE2A0A 		vdiv.f32	s0, s0, s21
 2408 0070 FFF7FEFF 		bl	arm_cos_f32
 2409              	.LVL96:
 350:Application/chassis_task.c ****                              user_sin(-Chassis.FollowTheta / RADIAN_COEF) * (Chassis.Vy + Chassis.F
 2410              		.loc 1 350 85 view .LVU714
 2411 0074 B4F90030 		ldrsh	r3, [r4]
 2412 0078 0BEE103A 		vmov	s22, r3	@ int
 350:Application/chassis_task.c ****                              user_sin(-Chassis.FollowTheta / RADIAN_COEF) * (Chassis.Vy + Chassis.F
 2413              		.loc 1 350 98 view .LVU715
 2414 007c 04F58055 		add	r5, r4, #4096
 2415 0080 05F25C77 		addw	r7, r5, #1884
 2416 0084 D7ED007A 		vldr.32	s15, [r7]
 350:Application/chassis_task.c ****                              user_sin(-Chassis.FollowTheta / RADIAN_COEF) * (Chassis.Vy + Chassis.F
 2417              		.loc 1 350 124 view .LVU716
 2418 0088 05F26475 		addw	r5, r5, #1892
 2419 008c 95ED007A 		vldr.32	s14, [r5]
 350:Application/chassis_task.c ****                              user_sin(-Chassis.FollowTheta / RADIAN_COEF) * (Chassis.Vy + Chassis.F
 2420              		.loc 1 350 115 view .LVU717
 2421 0090 67EE877A 		vmul.f32	s15, s15, s14
 350:Application/chassis_task.c ****                              user_sin(-Chassis.FollowTheta / RADIAN_COEF) * (Chassis.Vy + Chassis.F
 2422              		.loc 1 350 136 view .LVU718
 2423 0094 B2EE0CAA 		vmov.f32	s20, #1.4e+1
 2424 0098 67EE8A7A 		vmul.f32	s15, s15, s20
 350:Application/chassis_task.c ****                              user_sin(-Chassis.FollowTheta / RADIAN_COEF) * (Chassis.Vy + Chassis.F
 2425              		.loc 1 350 144 view .LVU719
 2426 009c F2EE049A 		vmov.f32	s19, #1.0e+1
 2427 00a0 67EEA97A 		vmul.f32	s15, s15, s19
 350:Application/chassis_task.c ****                              user_sin(-Chassis.FollowTheta / RADIAN_COEF) * (Chassis.Vy + Chassis.F
 2428              		.loc 1 350 152 view .LVU720
 2429 00a4 9FED5F9A 		vldr.32	s18, .L249+16
 2430 00a8 87EE897A 		vdiv.f32	s14, s15, s18
 350:Application/chassis_task.c ****                              user_sin(-Chassis.FollowTheta / RADIAN_COEF) * (Chassis.Vy + Chassis.F
 2431              		.loc 1 350 167 view .LVU721
 2432 00ac F6EE008A 		vmov.f32	s17, #5.0e-1
 2433 00b0 27EE287A 		vmul.f32	s14, s14, s17
 350:Application/chassis_task.c ****                              user_sin(-Chassis.FollowTheta / RADIAN_COEF) * (Chassis.Vy + Chassis.F
 2434              		.loc 1 350 171 view .LVU722
 2435 00b4 9FED5C8A 		vldr.32	s16, .L249+20
 2436 00b8 C7EE086A 		vdiv.f32	s13, s14, s16
 350:Application/chassis_task.c ****                              user_sin(-Chassis.FollowTheta / RADIAN_COEF) * (Chassis.Vy + Chassis.F
 2437              		.loc 1 350 89 view .LVU723
 2438 00bc F8EECB7A 		vcvt.f32.s32	s15, s22
 2439 00c0 77EEA67A 		vadd.f32	s15, s15, s13
 350:Application/chassis_task.c ****                              user_sin(-Chassis.FollowTheta / RADIAN_COEF) * (Chassis.Vy + Chassis.F
 2440              		.loc 1 350 75 view .LVU724
 2441 00c4 20EE27BA 		vmul.f32	s22, s0, s15
 351:Application/chassis_task.c ****         Chassis.VyTransfer = -user_sin(-Chassis.FollowTheta / RADIAN_COEF) * (Chassis.Vx + Chassis.
 2442              		.loc 1 351 47 view .LVU725
 2443 00c8 94ED7B0A 		vldr.32	s0, [r4, #492]
 351:Application/chassis_task.c ****         Chassis.VyTransfer = -user_sin(-Chassis.FollowTheta / RADIAN_COEF) * (Chassis.Vx + Chassis.
 2444              		.loc 1 351 39 view .LVU726
 2445 00cc B1EE400A 		vneg.f32	s0, s0
 351:Application/chassis_task.c ****         Chassis.VyTransfer = -user_sin(-Chassis.FollowTheta / RADIAN_COEF) * (Chassis.Vx + Chassis.
 2446              		.loc 1 351 30 view .LVU727
ARM GAS  C:\Users\86152\AppData\Local\Temp\ccWGVtEI.s 			page 72


 2447 00d0 80EE2A0A 		vdiv.f32	s0, s0, s21
 2448 00d4 FFF7FEFF 		bl	arm_sin_f32
 2449              	.LVL97:
 351:Application/chassis_task.c ****         Chassis.VyTransfer = -user_sin(-Chassis.FollowTheta / RADIAN_COEF) * (Chassis.Vx + Chassis.
 2450              		.loc 1 351 85 view .LVU728
 2451 00d8 B4F90230 		ldrsh	r3, [r4, #2]
 351:Application/chassis_task.c ****         Chassis.VyTransfer = -user_sin(-Chassis.FollowTheta / RADIAN_COEF) * (Chassis.Vx + Chassis.
 2452              		.loc 1 351 98 view .LVU729
 2453 00dc 04F5BB56 		add	r6, r4, #5984
 2454 00e0 D6ED007A 		vldr.32	s15, [r6]
 351:Application/chassis_task.c ****         Chassis.VyTransfer = -user_sin(-Chassis.FollowTheta / RADIAN_COEF) * (Chassis.Vx + Chassis.
 2455              		.loc 1 351 124 view .LVU730
 2456 00e4 95ED007A 		vldr.32	s14, [r5]
 351:Application/chassis_task.c ****         Chassis.VyTransfer = -user_sin(-Chassis.FollowTheta / RADIAN_COEF) * (Chassis.Vx + Chassis.
 2457              		.loc 1 351 115 view .LVU731
 2458 00e8 67EE877A 		vmul.f32	s15, s15, s14
 351:Application/chassis_task.c ****         Chassis.VyTransfer = -user_sin(-Chassis.FollowTheta / RADIAN_COEF) * (Chassis.Vx + Chassis.
 2459              		.loc 1 351 136 view .LVU732
 2460 00ec 67EE8A7A 		vmul.f32	s15, s15, s20
 351:Application/chassis_task.c ****         Chassis.VyTransfer = -user_sin(-Chassis.FollowTheta / RADIAN_COEF) * (Chassis.Vx + Chassis.
 2461              		.loc 1 351 144 view .LVU733
 2462 00f0 67EEA97A 		vmul.f32	s15, s15, s19
 351:Application/chassis_task.c ****         Chassis.VyTransfer = -user_sin(-Chassis.FollowTheta / RADIAN_COEF) * (Chassis.Vx + Chassis.
 2463              		.loc 1 351 152 view .LVU734
 2464 00f4 87EE897A 		vdiv.f32	s14, s15, s18
 351:Application/chassis_task.c ****         Chassis.VyTransfer = -user_sin(-Chassis.FollowTheta / RADIAN_COEF) * (Chassis.Vx + Chassis.
 2465              		.loc 1 351 167 view .LVU735
 2466 00f8 27EE287A 		vmul.f32	s14, s14, s17
 351:Application/chassis_task.c ****         Chassis.VyTransfer = -user_sin(-Chassis.FollowTheta / RADIAN_COEF) * (Chassis.Vx + Chassis.
 2467              		.loc 1 351 171 view .LVU736
 2468 00fc C7EE086A 		vdiv.f32	s13, s14, s16
 351:Application/chassis_task.c ****         Chassis.VyTransfer = -user_sin(-Chassis.FollowTheta / RADIAN_COEF) * (Chassis.Vx + Chassis.
 2469              		.loc 1 351 89 view .LVU737
 2470 0100 07EE903A 		vmov	s15, r3	@ int
 2471 0104 F8EEE77A 		vcvt.f32.s32	s15, s15
 2472 0108 77EEA67A 		vadd.f32	s15, s15, s13
 351:Application/chassis_task.c ****         Chassis.VyTransfer = -user_sin(-Chassis.FollowTheta / RADIAN_COEF) * (Chassis.Vx + Chassis.
 2473              		.loc 1 351 75 view .LVU738
 2474 010c 60EE277A 		vmul.f32	s15, s0, s15
 350:Application/chassis_task.c ****                              user_sin(-Chassis.FollowTheta / RADIAN_COEF) * (Chassis.Vy + Chassis.F
 2475              		.loc 1 350 184 view .LVU739
 2476 0110 3BEE27BA 		vadd.f32	s22, s22, s15
 350:Application/chassis_task.c ****                              user_sin(-Chassis.FollowTheta / RADIAN_COEF) * (Chassis.Vy + Chassis.F
 2477              		.loc 1 350 28 view .LVU740
 2478 0114 84ED02BA 		vstr.32	s22, [r4, #8]
 352:Application/chassis_task.c ****                              user_cos(-Chassis.FollowTheta / RADIAN_COEF) * (Chassis.Vy + Chassis.F
 2479              		.loc 1 352 9 is_stmt 1 view .LVU741
 352:Application/chassis_task.c ****                              user_cos(-Chassis.FollowTheta / RADIAN_COEF) * (Chassis.Vy + Chassis.F
 2480              		.loc 1 352 48 is_stmt 0 view .LVU742
 2481 0118 94ED7B0A 		vldr.32	s0, [r4, #492]
 352:Application/chassis_task.c ****                              user_cos(-Chassis.FollowTheta / RADIAN_COEF) * (Chassis.Vy + Chassis.F
 2482              		.loc 1 352 40 view .LVU743
 2483 011c B1EE400A 		vneg.f32	s0, s0
 352:Application/chassis_task.c ****                              user_cos(-Chassis.FollowTheta / RADIAN_COEF) * (Chassis.Vy + Chassis.F
 2484              		.loc 1 352 31 view .LVU744
 2485 0120 80EE2A0A 		vdiv.f32	s0, s0, s21
 2486 0124 FFF7FEFF 		bl	arm_sin_f32
ARM GAS  C:\Users\86152\AppData\Local\Temp\ccWGVtEI.s 			page 73


 2487              	.LVL98:
 352:Application/chassis_task.c ****                              user_cos(-Chassis.FollowTheta / RADIAN_COEF) * (Chassis.Vy + Chassis.F
 2488              		.loc 1 352 86 view .LVU745
 2489 0128 B4F90030 		ldrsh	r3, [r4]
 2490 012c 0BEE103A 		vmov	s22, r3	@ int
 352:Application/chassis_task.c ****                              user_cos(-Chassis.FollowTheta / RADIAN_COEF) * (Chassis.Vy + Chassis.F
 2491              		.loc 1 352 99 view .LVU746
 2492 0130 D7ED007A 		vldr.32	s15, [r7]
 352:Application/chassis_task.c ****                              user_cos(-Chassis.FollowTheta / RADIAN_COEF) * (Chassis.Vy + Chassis.F
 2493              		.loc 1 352 125 view .LVU747
 2494 0134 95ED007A 		vldr.32	s14, [r5]
 352:Application/chassis_task.c ****                              user_cos(-Chassis.FollowTheta / RADIAN_COEF) * (Chassis.Vy + Chassis.F
 2495              		.loc 1 352 116 view .LVU748
 2496 0138 67EE877A 		vmul.f32	s15, s15, s14
 352:Application/chassis_task.c ****                              user_cos(-Chassis.FollowTheta / RADIAN_COEF) * (Chassis.Vy + Chassis.F
 2497              		.loc 1 352 137 view .LVU749
 2498 013c 67EE8A7A 		vmul.f32	s15, s15, s20
 352:Application/chassis_task.c ****                              user_cos(-Chassis.FollowTheta / RADIAN_COEF) * (Chassis.Vy + Chassis.F
 2499              		.loc 1 352 145 view .LVU750
 2500 0140 67EEA97A 		vmul.f32	s15, s15, s19
 352:Application/chassis_task.c ****                              user_cos(-Chassis.FollowTheta / RADIAN_COEF) * (Chassis.Vy + Chassis.F
 2501              		.loc 1 352 153 view .LVU751
 2502 0144 87EE897A 		vdiv.f32	s14, s15, s18
 352:Application/chassis_task.c ****                              user_cos(-Chassis.FollowTheta / RADIAN_COEF) * (Chassis.Vy + Chassis.F
 2503              		.loc 1 352 168 view .LVU752
 2504 0148 27EE287A 		vmul.f32	s14, s14, s17
 352:Application/chassis_task.c ****                              user_cos(-Chassis.FollowTheta / RADIAN_COEF) * (Chassis.Vy + Chassis.F
 2505              		.loc 1 352 172 view .LVU753
 2506 014c C7EE086A 		vdiv.f32	s13, s14, s16
 352:Application/chassis_task.c ****                              user_cos(-Chassis.FollowTheta / RADIAN_COEF) * (Chassis.Vy + Chassis.F
 2507              		.loc 1 352 90 view .LVU754
 2508 0150 F8EECB7A 		vcvt.f32.s32	s15, s22
 2509 0154 77EEA67A 		vadd.f32	s15, s15, s13
 352:Application/chassis_task.c ****                              user_cos(-Chassis.FollowTheta / RADIAN_COEF) * (Chassis.Vy + Chassis.F
 2510              		.loc 1 352 76 view .LVU755
 2511 0158 20EE67BA 		vnmul.f32	s22, s0, s15
 353:Application/chassis_task.c **** 
 2512              		.loc 1 353 47 view .LVU756
 2513 015c 94ED7B0A 		vldr.32	s0, [r4, #492]
 353:Application/chassis_task.c **** 
 2514              		.loc 1 353 39 view .LVU757
 2515 0160 B1EE400A 		vneg.f32	s0, s0
 353:Application/chassis_task.c **** 
 2516              		.loc 1 353 30 view .LVU758
 2517 0164 80EE2A0A 		vdiv.f32	s0, s0, s21
 2518 0168 FFF7FEFF 		bl	arm_cos_f32
 2519              	.LVL99:
 353:Application/chassis_task.c **** 
 2520              		.loc 1 353 85 view .LVU759
 2521 016c B4F90230 		ldrsh	r3, [r4, #2]
 353:Application/chassis_task.c **** 
 2522              		.loc 1 353 98 view .LVU760
 2523 0170 D6ED007A 		vldr.32	s15, [r6]
 353:Application/chassis_task.c **** 
 2524              		.loc 1 353 124 view .LVU761
 2525 0174 95ED007A 		vldr.32	s14, [r5]
 353:Application/chassis_task.c **** 
ARM GAS  C:\Users\86152\AppData\Local\Temp\ccWGVtEI.s 			page 74


 2526              		.loc 1 353 115 view .LVU762
 2527 0178 67EE877A 		vmul.f32	s15, s15, s14
 353:Application/chassis_task.c **** 
 2528              		.loc 1 353 136 view .LVU763
 2529 017c 67EE8A7A 		vmul.f32	s15, s15, s20
 353:Application/chassis_task.c **** 
 2530              		.loc 1 353 144 view .LVU764
 2531 0180 67EEA97A 		vmul.f32	s15, s15, s19
 353:Application/chassis_task.c **** 
 2532              		.loc 1 353 152 view .LVU765
 2533 0184 87EE897A 		vdiv.f32	s14, s15, s18
 353:Application/chassis_task.c **** 
 2534              		.loc 1 353 167 view .LVU766
 2535 0188 67EE288A 		vmul.f32	s17, s14, s17
 353:Application/chassis_task.c **** 
 2536              		.loc 1 353 171 view .LVU767
 2537 018c 88EE887A 		vdiv.f32	s14, s17, s16
 353:Application/chassis_task.c **** 
 2538              		.loc 1 353 89 view .LVU768
 2539 0190 07EE903A 		vmov	s15, r3	@ int
 2540 0194 F8EEE77A 		vcvt.f32.s32	s15, s15
 2541 0198 77EE877A 		vadd.f32	s15, s15, s14
 353:Application/chassis_task.c **** 
 2542              		.loc 1 353 75 view .LVU769
 2543 019c 60EE277A 		vmul.f32	s15, s0, s15
 352:Application/chassis_task.c ****                              user_cos(-Chassis.FollowTheta / RADIAN_COEF) * (Chassis.Vy + Chassis.F
 2544              		.loc 1 352 185 view .LVU770
 2545 01a0 3BEE27BA 		vadd.f32	s22, s22, s15
 352:Application/chassis_task.c ****                              user_cos(-Chassis.FollowTheta / RADIAN_COEF) * (Chassis.Vy + Chassis.F
 2546              		.loc 1 352 28 view .LVU771
 2547 01a4 84ED03BA 		vstr.32	s22, [r4, #12]
 355:Application/chassis_task.c ****         {
 2548              		.loc 1 355 9 is_stmt 1 view .LVU772
 355:Application/chassis_task.c ****         {
 2549              		.loc 1 355 20 is_stmt 0 view .LVU773
 2550 01a8 94F8D431 		ldrb	r3, [r4, #468]	@ zero_extendqisi2
 355:Application/chassis_task.c ****         {
 2551              		.loc 1 355 12 view .LVU774
 2552 01ac 012B     		cmp	r3, #1
 2553 01ae 49D1     		bne	.L144
 357:Application/chassis_task.c ****             tempTime_Sprint = USER_GetTick();
 2554              		.loc 1 357 13 is_stmt 1 view .LVU775
 357:Application/chassis_task.c ****             tempTime_Sprint = USER_GetTick();
 2555              		.loc 1 357 24 is_stmt 0 view .LVU776
 2556 01b0 A388     		ldrh	r3, [r4, #4]
 2557 01b2 5B00     		lsls	r3, r3, #1
 2558 01b4 A380     		strh	r3, [r4, #4]	@ movhi
 358:Application/chassis_task.c ****         }
 2559              		.loc 1 358 13 is_stmt 1 view .LVU777
 358:Application/chassis_task.c ****         }
 2560              		.loc 1 358 31 is_stmt 0 view .LVU778
 2561 01b6 FFF7FEFF 		bl	xTaskGetTickCount
 2562              	.LVL100:
 358:Application/chassis_task.c ****         }
 2563              		.loc 1 358 29 view .LVU779
 2564 01ba 1C4B     		ldr	r3, .L249+24
 2565 01bc 1860     		str	r0, [r3]
ARM GAS  C:\Users\86152\AppData\Local\Temp\ccWGVtEI.s 			page 75


 2566 01be 41E0     		b	.L144
 2567              	.L232:
 342:Application/chassis_task.c ****                 Chassis.Vr = PID_Calculate(&Chassis.RotateFollow, Chassis.FollowTheta, 0.0f);
 2568              		.loc 1 342 13 is_stmt 1 view .LVU780
 342:Application/chassis_task.c ****                 Chassis.Vr = PID_Calculate(&Chassis.RotateFollow, Chassis.FollowTheta, 0.0f);
 2569              		.loc 1 342 31 is_stmt 0 view .LVU781
 2570 01c0 164B     		ldr	r3, .L249+8
 2571 01c2 1B7B     		ldrb	r3, [r3, #12]	@ zero_extendqisi2
 342:Application/chassis_task.c ****                 Chassis.Vr = PID_Calculate(&Chassis.RotateFollow, Chassis.FollowTheta, 0.0f);
 2572              		.loc 1 342 16 view .LVU782
 2573 01c4 012B     		cmp	r3, #1
 2574 01c6 18D0     		beq	.L239
 346:Application/chassis_task.c ****                              remote_control.ch1 * Chassis.rcStickRotateRatio;
 2575              		.loc 1 346 17 is_stmt 1 view .LVU783
 346:Application/chassis_task.c ****                              remote_control.ch1 * Chassis.rcStickRotateRatio;
 2576              		.loc 1 346 30 is_stmt 0 view .LVU784
 2577 01c8 DFED190A 		vldr.32	s1, .L249+28
 2578 01cc 1948     		ldr	r0, .L249+32
 2579 01ce FFF7FEFF 		bl	PID_Calculate
 2580              	.LVL101:
 347:Application/chassis_task.c ****             }
 2581              		.loc 1 347 44 view .LVU785
 2582 01d2 124B     		ldr	r3, .L249+8
 2583 01d4 B3F90430 		ldrsh	r3, [r3, #4]
 2584 01d8 07EE903A 		vmov	s15, r3	@ int
 347:Application/chassis_task.c ****             }
 2585              		.loc 1 347 58 view .LVU786
 2586 01dc 0D4B     		ldr	r3, .L249
 2587 01de 93ED067A 		vldr.32	s14, [r3, #24]
 347:Application/chassis_task.c ****             }
 2588              		.loc 1 347 49 view .LVU787
 2589 01e2 F8EEE77A 		vcvt.f32.s32	s15, s15
 2590 01e6 67EE877A 		vmul.f32	s15, s15, s14
 346:Application/chassis_task.c ****                              remote_control.ch1 * Chassis.rcStickRotateRatio;
 2591              		.loc 1 346 94 view .LVU788
 2592 01ea 30EE270A 		vadd.f32	s0, s0, s15
 346:Application/chassis_task.c ****                              remote_control.ch1 * Chassis.rcStickRotateRatio;
 2593              		.loc 1 346 28 view .LVU789
 2594 01ee BDEEC00A 		vcvt.s32.f32	s0, s0
 2595 01f2 10EE102A 		vmov	r2, s0	@ int
 2596 01f6 9A80     		strh	r2, [r3, #4]	@ movhi
 2597 01f8 31E7     		b	.L153
 2598              	.L239:
 343:Application/chassis_task.c ****             else
 2599              		.loc 1 343 17 is_stmt 1 view .LVU790
 343:Application/chassis_task.c ****             else
 2600              		.loc 1 343 30 is_stmt 0 view .LVU791
 2601 01fa DFED0D0A 		vldr.32	s1, .L249+28
 2602 01fe 0D48     		ldr	r0, .L249+32
 2603 0200 FFF7FEFF 		bl	PID_Calculate
 2604              	.LVL102:
 343:Application/chassis_task.c ****             else
 2605              		.loc 1 343 28 view .LVU792
 2606 0204 BDEEC00A 		vcvt.s32.f32	s0, s0
 2607 0208 024B     		ldr	r3, .L249
 2608 020a 10EE102A 		vmov	r2, s0	@ int
 2609 020e 9A80     		strh	r2, [r3, #4]	@ movhi
ARM GAS  C:\Users\86152\AppData\Local\Temp\ccWGVtEI.s 			page 76


 2610 0210 25E7     		b	.L153
 2611              	.L250:
 2612 0212 00BF     		.align	2
 2613              	.L249:
 2614 0214 00000000 		.word	Chassis
 2615 0218 0AD7A33B 		.word	1000593162
 2616 021c 00000000 		.word	remote_control
 2617 0220 E12E6542 		.word	1113927393
 2618 0224 00009842 		.word	1117257728
 2619 0228 4F77563D 		.word	1029076815
 2620 022c 00000000 		.word	.LANCHOR17
 2621 0230 00000000 		.word	0
 2622 0234 D8150000 		.word	Chassis+5592
 2623              	.L147:
 363:Application/chassis_task.c ****         Chassis.VxTransfer = 0;
 2624              		.loc 1 363 9 is_stmt 1 view .LVU793
 363:Application/chassis_task.c ****         Chassis.VxTransfer = 0;
 2625              		.loc 1 363 20 is_stmt 0 view .LVU794
 2626 0238 C54B     		ldr	r3, .L251
 2627 023a 0022     		movs	r2, #0
 2628 023c 9A80     		strh	r2, [r3, #4]	@ movhi
 364:Application/chassis_task.c ****         Chassis.VyTransfer = 0;
 2629              		.loc 1 364 9 is_stmt 1 view .LVU795
 364:Application/chassis_task.c ****         Chassis.VyTransfer = 0;
 2630              		.loc 1 364 28 is_stmt 0 view .LVU796
 2631 023e 0022     		movs	r2, #0
 2632 0240 9A60     		str	r2, [r3, #8]	@ float
 365:Application/chassis_task.c ****         break;
 2633              		.loc 1 365 9 is_stmt 1 view .LVU797
 365:Application/chassis_task.c ****         break;
 2634              		.loc 1 365 28 is_stmt 0 view .LVU798
 2635 0242 DA60     		str	r2, [r3, #12]	@ float
 366:Application/chassis_task.c **** 
 2636              		.loc 1 366 9 is_stmt 1 view .LVU799
 2637              	.L144:
 686:Application/chassis_task.c ****         user_count_time = 0.0f;
 2638              		.loc 1 686 5 view .LVU800
 686:Application/chassis_task.c ****         user_count_time = 0.0f;
 2639              		.loc 1 686 16 is_stmt 0 view .LVU801
 2640 0244 C24B     		ldr	r3, .L251
 2641 0246 93F8D431 		ldrb	r3, [r3, #468]	@ zero_extendqisi2
 686:Application/chassis_task.c ****         user_count_time = 0.0f;
 2642              		.loc 1 686 8 view .LVU802
 2643 024a 042B     		cmp	r3, #4
 2644 024c 02D0     		beq	.L213
 687:Application/chassis_task.c **** 
 2645              		.loc 1 687 9 is_stmt 1 view .LVU803
 687:Application/chassis_task.c **** 
 2646              		.loc 1 687 25 is_stmt 0 view .LVU804
 2647 024e C14B     		ldr	r3, .L251+4
 2648 0250 0022     		movs	r2, #0
 2649 0252 1A60     		str	r2, [r3]	@ float
 2650              	.L213:
 689:Application/chassis_task.c ****         Chassis.Vr = remote_control.ch1 * Chassis.rcStickRotateRatio;
 2651              		.loc 1 689 5 is_stmt 1 view .LVU805
 689:Application/chassis_task.c ****         Chassis.Vr = remote_control.ch1 * Chassis.rcStickRotateRatio;
 2652              		.loc 1 689 9 is_stmt 0 view .LVU806
ARM GAS  C:\Users\86152\AppData\Local\Temp\ccWGVtEI.s 			page 77


 2653 0254 0020     		movs	r0, #0
 2654 0256 FFF7FEFF 		bl	is_TOE_Error
 2655              	.LVL103:
 689:Application/chassis_task.c ****         Chassis.Vr = remote_control.ch1 * Chassis.rcStickRotateRatio;
 2656              		.loc 1 689 8 view .LVU807
 2657 025a 80B1     		cbz	r0, .L214
 690:Application/chassis_task.c **** 
 2658              		.loc 1 690 9 is_stmt 1 view .LVU808
 690:Application/chassis_task.c **** 
 2659              		.loc 1 690 36 is_stmt 0 view .LVU809
 2660 025c BE4B     		ldr	r3, .L251+8
 2661 025e B3F90430 		ldrsh	r3, [r3, #4]
 2662 0262 07EE903A 		vmov	s15, r3	@ int
 690:Application/chassis_task.c **** 
 2663              		.loc 1 690 50 view .LVU810
 2664 0266 BA4B     		ldr	r3, .L251
 2665 0268 93ED067A 		vldr.32	s14, [r3, #24]
 690:Application/chassis_task.c **** 
 2666              		.loc 1 690 41 view .LVU811
 2667 026c F8EEE77A 		vcvt.f32.s32	s15, s15
 2668 0270 67EE877A 		vmul.f32	s15, s15, s14
 690:Application/chassis_task.c **** 
 2669              		.loc 1 690 20 view .LVU812
 2670 0274 FDEEE77A 		vcvt.s32.f32	s15, s15
 2671 0278 17EE902A 		vmov	r2, s15	@ int
 2672 027c 9A80     		strh	r2, [r3, #4]	@ movhi
 2673              	.L214:
 709:Application/chassis_task.c ****     Chassis.V2 = -(Chassis.VxTransfer - Chassis.VyTransfer) * Chassis.VelocityRatio + Gimbal_Positi
 2674              		.loc 1 709 5 is_stmt 1 view .LVU813
 709:Application/chassis_task.c ****     Chassis.V2 = -(Chassis.VxTransfer - Chassis.VyTransfer) * Chassis.VelocityRatio + Gimbal_Positi
 2675              		.loc 1 709 28 is_stmt 0 view .LVU814
 2676 027e B44C     		ldr	r4, .L251
 2677 0280 94ED025A 		vldr.32	s10, [r4, #8]
 709:Application/chassis_task.c ****     Chassis.V2 = -(Chassis.VxTransfer - Chassis.VyTransfer) * Chassis.VelocityRatio + Gimbal_Positi
 2678              		.loc 1 709 20 view .LVU815
 2679 0284 B1EE456A 		vneg.f32	s12, s10
 709:Application/chassis_task.c ****     Chassis.V2 = -(Chassis.VxTransfer - Chassis.VyTransfer) * Chassis.VelocityRatio + Gimbal_Positi
 2680              		.loc 1 709 49 view .LVU816
 2681 0288 D4ED036A 		vldr.32	s13, [r4, #12]
 709:Application/chassis_task.c ****     Chassis.V2 = -(Chassis.VxTransfer - Chassis.VyTransfer) * Chassis.VelocityRatio + Gimbal_Positi
 2682              		.loc 1 709 40 view .LVU817
 2683 028c 36EE666A 		vsub.f32	s12, s12, s13
 709:Application/chassis_task.c ****     Chassis.V2 = -(Chassis.VxTransfer - Chassis.VyTransfer) * Chassis.VelocityRatio + Gimbal_Positi
 2684              		.loc 1 709 71 view .LVU818
 2685 0290 D4ED055A 		vldr.32	s11, [r4, #20]
 709:Application/chassis_task.c ****     Chassis.V2 = -(Chassis.VxTransfer - Chassis.VyTransfer) * Chassis.VelocityRatio + Gimbal_Positi
 2686              		.loc 1 709 62 view .LVU819
 2687 0294 26EE656A 		vnmul.f32	s12, s12, s11
 709:Application/chassis_task.c ****     Chassis.V2 = -(Chassis.VxTransfer - Chassis.VyTransfer) * Chassis.VelocityRatio + Gimbal_Positi
 2688              		.loc 1 709 126 view .LVU820
 2689 0298 B4F90430 		ldrsh	r3, [r4, #4]
 709:Application/chassis_task.c ****     Chassis.V2 = -(Chassis.VxTransfer - Chassis.VyTransfer) * Chassis.VelocityRatio + Gimbal_Positi
 2690              		.loc 1 709 117 view .LVU821
 2691 029c 07EE903A 		vmov	s15, r3	@ int
 2692 02a0 B8EEE77A 		vcvt.f32.s32	s14, s15
 2693 02a4 AD4A     		ldr	r2, .L251+12
 2694 02a6 D2ED007A 		vldr.32	s15, [r2]
ARM GAS  C:\Users\86152\AppData\Local\Temp\ccWGVtEI.s 			page 78


 2695 02aa 27EE277A 		vmul.f32	s14, s14, s15
 709:Application/chassis_task.c ****     Chassis.V2 = -(Chassis.VxTransfer - Chassis.VyTransfer) * Chassis.VelocityRatio + Gimbal_Positi
 2696              		.loc 1 709 130 view .LVU822
 2697 02ae F2EE047A 		vmov.f32	s15, #1.0e+1
 2698 02b2 27EE277A 		vmul.f32	s14, s14, s15
 709:Application/chassis_task.c ****     Chassis.V2 = -(Chassis.VxTransfer - Chassis.VyTransfer) * Chassis.VelocityRatio + Gimbal_Positi
 2699              		.loc 1 709 86 view .LVU823
 2700 02b6 36EE076A 		vadd.f32	s12, s12, s14
 709:Application/chassis_task.c ****     Chassis.V2 = -(Chassis.VxTransfer - Chassis.VyTransfer) * Chassis.VelocityRatio + Gimbal_Positi
 2701              		.loc 1 709 16 view .LVU824
 2702 02ba 84ED556A 		vstr.32	s12, [r4, #340]
 710:Application/chassis_task.c ****     Chassis.V3 = -(Chassis.VxTransfer + Chassis.VyTransfer) * Chassis.VelocityRatio + Chassis.Vr * 
 2703              		.loc 1 710 5 is_stmt 1 view .LVU825
 710:Application/chassis_task.c ****     Chassis.V3 = -(Chassis.VxTransfer + Chassis.VyTransfer) * Chassis.VelocityRatio + Chassis.Vr * 
 2704              		.loc 1 710 39 is_stmt 0 view .LVU826
 2705 02be 75EE667A 		vsub.f32	s15, s10, s13
 710:Application/chassis_task.c ****     Chassis.V3 = -(Chassis.VxTransfer + Chassis.VyTransfer) * Chassis.VelocityRatio + Chassis.Vr * 
 2706              		.loc 1 710 61 view .LVU827
 2707 02c2 67EEE57A 		vnmul.f32	s15, s15, s11
 710:Application/chassis_task.c ****     Chassis.V3 = -(Chassis.VxTransfer + Chassis.VyTransfer) * Chassis.VelocityRatio + Chassis.Vr * 
 2708              		.loc 1 710 85 view .LVU828
 2709 02c6 37EE277A 		vadd.f32	s14, s14, s15
 710:Application/chassis_task.c ****     Chassis.V3 = -(Chassis.VxTransfer + Chassis.VyTransfer) * Chassis.VelocityRatio + Chassis.Vr * 
 2710              		.loc 1 710 16 view .LVU829
 2711 02ca 84ED567A 		vstr.32	s14, [r4, #344]
 711:Application/chassis_task.c ****     Chassis.V4 = -(-Chassis.VxTransfer + Chassis.VyTransfer) * Chassis.VelocityRatio + Chassis.Vr *
 2712              		.loc 1 711 5 is_stmt 1 view .LVU830
 711:Application/chassis_task.c ****     Chassis.V4 = -(-Chassis.VxTransfer + Chassis.VyTransfer) * Chassis.VelocityRatio + Chassis.Vr *
 2713              		.loc 1 711 39 is_stmt 0 view .LVU831
 2714 02ce 35EE267A 		vadd.f32	s14, s10, s13
 711:Application/chassis_task.c ****     Chassis.V4 = -(-Chassis.VxTransfer + Chassis.VyTransfer) * Chassis.VelocityRatio + Chassis.Vr *
 2715              		.loc 1 711 61 view .LVU832
 2716 02d2 27EE657A 		vnmul.f32	s14, s14, s11
 711:Application/chassis_task.c ****     Chassis.V4 = -(-Chassis.VxTransfer + Chassis.VyTransfer) * Chassis.VelocityRatio + Chassis.Vr *
 2717              		.loc 1 711 98 view .LVU833
 2718 02d6 03EB8303 		add	r3, r3, r3, lsl #2
 2719 02da 5B00     		lsls	r3, r3, #1
 711:Application/chassis_task.c ****     Chassis.V4 = -(-Chassis.VxTransfer + Chassis.VyTransfer) * Chassis.VelocityRatio + Chassis.Vr *
 2720              		.loc 1 711 85 view .LVU834
 2721 02dc 07EE903A 		vmov	s15, r3	@ int
 2722 02e0 F8EEE77A 		vcvt.f32.s32	s15, s15
 2723 02e4 37EE277A 		vadd.f32	s14, s14, s15
 711:Application/chassis_task.c ****     Chassis.V4 = -(-Chassis.VxTransfer + Chassis.VyTransfer) * Chassis.VelocityRatio + Chassis.Vr *
 2724              		.loc 1 711 16 view .LVU835
 2725 02e8 84ED577A 		vstr.32	s14, [r4, #348]
 712:Application/chassis_task.c **** 
 2726              		.loc 1 712 5 is_stmt 1 view .LVU836
 712:Application/chassis_task.c **** 
 2727              		.loc 1 712 40 is_stmt 0 view .LVU837
 2728 02ec 76EEC56A 		vsub.f32	s13, s13, s10
 712:Application/chassis_task.c **** 
 2729              		.loc 1 712 62 view .LVU838
 2730 02f0 66EEE56A 		vnmul.f32	s13, s13, s11
 712:Application/chassis_task.c **** 
 2731              		.loc 1 712 86 view .LVU839
 2732 02f4 77EEA67A 		vadd.f32	s15, s15, s13
 712:Application/chassis_task.c **** 
ARM GAS  C:\Users\86152\AppData\Local\Temp\ccWGVtEI.s 			page 79


 2733              		.loc 1 712 16 view .LVU840
 2734 02f8 C4ED587A 		vstr.32	s15, [r4, #352]
 715:Application/chassis_task.c ****     Chassis.V4 *= Chassis.GravityCenter_Adjustment;
 2735              		.loc 1 715 5 is_stmt 1 view .LVU841
 715:Application/chassis_task.c ****     Chassis.V4 *= Chassis.GravityCenter_Adjustment;
 2736              		.loc 1 715 26 is_stmt 0 view .LVU842
 2737 02fc D4ED786A 		vldr.32	s13, [r4, #480]
 715:Application/chassis_task.c ****     Chassis.V4 *= Chassis.GravityCenter_Adjustment;
 2738              		.loc 1 715 16 view .LVU843
 2739 0300 27EE267A 		vmul.f32	s14, s14, s13
 2740 0304 84ED577A 		vstr.32	s14, [r4, #348]
 716:Application/chassis_task.c **** 
 2741              		.loc 1 716 5 is_stmt 1 view .LVU844
 716:Application/chassis_task.c **** 
 2742              		.loc 1 716 16 is_stmt 0 view .LVU845
 2743 0308 67EEA67A 		vmul.f32	s15, s15, s13
 2744 030c C4ED587A 		vstr.32	s15, [r4, #352]
 718:Application/chassis_task.c **** 
 2745              		.loc 1 718 5 is_stmt 1 view .LVU846
 2746 0310 FFF7FEFF 		bl	Velocity_MAXLimit
 2747              	.LVL104:
 720:Application/chassis_task.c ****     Motor_Speed_Calculate(&Chassis.ChassisMotor[1], Chassis.ChassisMotor[1].Velocity_RPM, Chassis.V
 2748              		.loc 1 720 5 view .LVU847
 2749 0314 D4ED550A 		vldr.32	s1, [r4, #340]
 2750 0318 94ED900A 		vldr.32	s0, [r4, #576]
 2751 031c 04F50E70 		add	r0, r4, #568
 2752 0320 FFF7FEFF 		bl	Motor_Speed_Calculate
 2753              	.LVL105:
 721:Application/chassis_task.c ****     Motor_Speed_Calculate(&Chassis.ChassisMotor[2], Chassis.ChassisMotor[2].Velocity_RPM, Chassis.V
 2754              		.loc 1 721 5 view .LVU848
 2755 0324 04F5E563 		add	r3, r4, #1832
 2756 0328 D4ED560A 		vldr.32	s1, [r4, #344]
 2757 032c 93ED000A 		vldr.32	s0, [r3]
 2758 0330 04F5E460 		add	r0, r4, #1824
 2759 0334 FFF7FEFF 		bl	Motor_Speed_Calculate
 2760              	.LVL106:
 722:Application/chassis_task.c ****     Motor_Speed_Calculate(&Chassis.ChassisMotor[3], Chassis.ChassisMotor[3].Velocity_RPM, Chassis.V
 2761              		.loc 1 722 5 view .LVU849
 2762 0338 04F54163 		add	r3, r4, #3088
 2763 033c D4ED570A 		vldr.32	s1, [r4, #348]
 2764 0340 93ED000A 		vldr.32	s0, [r3]
 2765 0344 04F60840 		addw	r0, r4, #3080
 2766 0348 FFF7FEFF 		bl	Motor_Speed_Calculate
 2767              	.LVL107:
 723:Application/chassis_task.c **** 
 2768              		.loc 1 723 5 view .LVU850
 2769 034c 04F58053 		add	r3, r4, #4096
 2770 0350 D4ED580A 		vldr.32	s1, [r4, #352]
 2771 0354 93ED3E0A 		vldr.32	s0, [r3, #248]
 2772 0358 03F1F000 		add	r0, r3, #240
 2773 035c FFF7FEFF 		bl	Motor_Speed_Calculate
 2774              	.LVL108:
 725:Application/chassis_task.c ****     {
 2775              		.loc 1 725 5 view .LVU851
 725:Application/chassis_task.c ****     {
 2776              		.loc 1 725 10 is_stmt 0 view .LVU852
 2777 0360 D4ED9E7A 		vldr.32	s15, [r4, #632]
ARM GAS  C:\Users\86152\AppData\Local\Temp\ccWGVtEI.s 			page 80


 2778 0364 F0EEE77A 		vabs.f32	s15, s15
 725:Application/chassis_task.c ****     {
 2779              		.loc 1 725 9 view .LVU853
 2780 0368 9FED7D7A 		vldr.32	s14, .L251+16
 2781 036c F4EE477A 		vcmp.f32	s15, s14
 2782 0370 F1EE10FA 		vmrs	APSR_nzcv, FPSCR
 2783 0374 8CBF     		ite	hi
 2784 0376 0123     		movhi	r3, #1
 2785 0378 0023     		movls	r3, #0
 2786 037a 9FED7A7A 		vldr.32	s14, .L251+20
 2787 037e F4EE477A 		vcmp.f32	s15, s14
 2788 0382 F1EE10FA 		vmrs	APSR_nzcv, FPSCR
 2789 0386 B8BF     		it	lt
 2790 0388 43F00103 		orrlt	r3, r3, #1
 725:Application/chassis_task.c ****     {
 2791              		.loc 1 725 8 view .LVU854
 2792 038c 33B1     		cbz	r3, .L215
 727:Application/chassis_task.c ****         nanCount++;
 2793              		.loc 1 727 9 is_stmt 1 view .LVU855
 727:Application/chassis_task.c ****         nanCount++;
 2794              		.loc 1 727 40 is_stmt 0 view .LVU856
 2795 038e 0022     		movs	r2, #0
 2796 0390 C4F87822 		str	r2, [r4, #632]	@ float
 728:Application/chassis_task.c ****     }
 2797              		.loc 1 728 9 is_stmt 1 view .LVU857
 728:Application/chassis_task.c ****     }
 2798              		.loc 1 728 17 is_stmt 0 view .LVU858
 2799 0394 744A     		ldr	r2, .L251+24
 2800 0396 1368     		ldr	r3, [r2]
 2801 0398 0133     		adds	r3, r3, #1
 2802 039a 1360     		str	r3, [r2]
 2803              	.L215:
 730:Application/chassis_task.c ****     {
 2804              		.loc 1 730 5 is_stmt 1 view .LVU859
 730:Application/chassis_task.c ****     {
 2805              		.loc 1 730 10 is_stmt 0 view .LVU860
 2806 039c 734B     		ldr	r3, .L251+28
 2807 039e D3ED007A 		vldr.32	s15, [r3]
 2808 03a2 F0EEE77A 		vabs.f32	s15, s15
 730:Application/chassis_task.c ****     {
 2809              		.loc 1 730 9 view .LVU861
 2810 03a6 9FED6E7A 		vldr.32	s14, .L251+16
 2811 03aa F4EE477A 		vcmp.f32	s15, s14
 2812 03ae F1EE10FA 		vmrs	APSR_nzcv, FPSCR
 2813 03b2 8CBF     		ite	hi
 2814 03b4 0123     		movhi	r3, #1
 2815 03b6 0023     		movls	r3, #0
 2816 03b8 9FED6A7A 		vldr.32	s14, .L251+20
 2817 03bc F4EE477A 		vcmp.f32	s15, s14
 2818 03c0 F1EE10FA 		vmrs	APSR_nzcv, FPSCR
 2819 03c4 B8BF     		it	lt
 2820 03c6 43F00103 		orrlt	r3, r3, #1
 730:Application/chassis_task.c ****     {
 2821              		.loc 1 730 8 view .LVU862
 2822 03ca 33B1     		cbz	r3, .L216
 732:Application/chassis_task.c ****         nanCount++;
 2823              		.loc 1 732 9 is_stmt 1 view .LVU863
ARM GAS  C:\Users\86152\AppData\Local\Temp\ccWGVtEI.s 			page 81


 732:Application/chassis_task.c ****         nanCount++;
 2824              		.loc 1 732 40 is_stmt 0 view .LVU864
 2825 03cc 674B     		ldr	r3, .L251+28
 2826 03ce 0022     		movs	r2, #0
 2827 03d0 1A60     		str	r2, [r3]	@ float
 733:Application/chassis_task.c ****     }
 2828              		.loc 1 733 9 is_stmt 1 view .LVU865
 733:Application/chassis_task.c ****     }
 2829              		.loc 1 733 17 is_stmt 0 view .LVU866
 2830 03d2 654A     		ldr	r2, .L251+24
 2831 03d4 1368     		ldr	r3, [r2]
 2832 03d6 0133     		adds	r3, r3, #1
 2833 03d8 1360     		str	r3, [r2]
 2834              	.L216:
 735:Application/chassis_task.c ****     {
 2835              		.loc 1 735 5 is_stmt 1 view .LVU867
 735:Application/chassis_task.c ****     {
 2836              		.loc 1 735 10 is_stmt 0 view .LVU868
 2837 03da 654B     		ldr	r3, .L251+32
 2838 03dc D3ED007A 		vldr.32	s15, [r3]
 2839 03e0 F0EEE77A 		vabs.f32	s15, s15
 735:Application/chassis_task.c ****     {
 2840              		.loc 1 735 9 view .LVU869
 2841 03e4 9FED5E7A 		vldr.32	s14, .L251+16
 2842 03e8 F4EE477A 		vcmp.f32	s15, s14
 2843 03ec F1EE10FA 		vmrs	APSR_nzcv, FPSCR
 2844 03f0 8CBF     		ite	hi
 2845 03f2 0123     		movhi	r3, #1
 2846 03f4 0023     		movls	r3, #0
 2847 03f6 9FED5B7A 		vldr.32	s14, .L251+20
 2848 03fa F4EE477A 		vcmp.f32	s15, s14
 2849 03fe F1EE10FA 		vmrs	APSR_nzcv, FPSCR
 2850 0402 B8BF     		it	lt
 2851 0404 43F00103 		orrlt	r3, r3, #1
 735:Application/chassis_task.c ****     {
 2852              		.loc 1 735 8 view .LVU870
 2853 0408 33B1     		cbz	r3, .L217
 737:Application/chassis_task.c ****         nanCount++;
 2854              		.loc 1 737 9 is_stmt 1 view .LVU871
 737:Application/chassis_task.c ****         nanCount++;
 2855              		.loc 1 737 40 is_stmt 0 view .LVU872
 2856 040a 594B     		ldr	r3, .L251+32
 2857 040c 0022     		movs	r2, #0
 2858 040e 1A60     		str	r2, [r3]	@ float
 738:Application/chassis_task.c ****     }
 2859              		.loc 1 738 9 is_stmt 1 view .LVU873
 738:Application/chassis_task.c ****     }
 2860              		.loc 1 738 17 is_stmt 0 view .LVU874
 2861 0410 554A     		ldr	r2, .L251+24
 2862 0412 1368     		ldr	r3, [r2]
 2863 0414 0133     		adds	r3, r3, #1
 2864 0416 1360     		str	r3, [r2]
 2865              	.L217:
 740:Application/chassis_task.c ****     {
 2866              		.loc 1 740 5 is_stmt 1 view .LVU875
 740:Application/chassis_task.c ****     {
 2867              		.loc 1 740 10 is_stmt 0 view .LVU876
ARM GAS  C:\Users\86152\AppData\Local\Temp\ccWGVtEI.s 			page 82


 2868 0418 564B     		ldr	r3, .L251+36
 2869 041a D3ED4C7A 		vldr.32	s15, [r3, #304]
 2870 041e F0EEE77A 		vabs.f32	s15, s15
 740:Application/chassis_task.c ****     {
 2871              		.loc 1 740 9 view .LVU877
 2872 0422 9FED4F7A 		vldr.32	s14, .L251+16
 2873 0426 F4EE477A 		vcmp.f32	s15, s14
 2874 042a F1EE10FA 		vmrs	APSR_nzcv, FPSCR
 2875 042e 8CBF     		ite	hi
 2876 0430 0123     		movhi	r3, #1
 2877 0432 0023     		movls	r3, #0
 2878 0434 9FED4B7A 		vldr.32	s14, .L251+20
 2879 0438 F4EE477A 		vcmp.f32	s15, s14
 2880 043c F1EE10FA 		vmrs	APSR_nzcv, FPSCR
 2881 0440 B8BF     		it	lt
 2882 0442 43F00103 		orrlt	r3, r3, #1
 740:Application/chassis_task.c ****     {
 2883              		.loc 1 740 8 view .LVU878
 2884 0446 3BB1     		cbz	r3, .L218
 742:Application/chassis_task.c ****         nanCount++;
 2885              		.loc 1 742 9 is_stmt 1 view .LVU879
 742:Application/chassis_task.c ****         nanCount++;
 2886              		.loc 1 742 40 is_stmt 0 view .LVU880
 2887 0448 4A4B     		ldr	r3, .L251+36
 2888 044a 0022     		movs	r2, #0
 2889 044c C3F83021 		str	r2, [r3, #304]	@ float
 743:Application/chassis_task.c ****     }
 2890              		.loc 1 743 9 is_stmt 1 view .LVU881
 743:Application/chassis_task.c ****     }
 2891              		.loc 1 743 17 is_stmt 0 view .LVU882
 2892 0450 454A     		ldr	r2, .L251+24
 2893 0452 1368     		ldr	r3, [r2]
 2894 0454 0133     		adds	r3, r3, #1
 2895 0456 1360     		str	r3, [r2]
 2896              	.L218:
 746:Application/chassis_task.c ****         time_temp = USER_GetTick();
 2897              		.loc 1 746 5 is_stmt 1 view .LVU883
 746:Application/chassis_task.c ****         time_temp = USER_GetTick();
 2898              		.loc 1 746 25 is_stmt 0 view .LVU884
 2899 0458 3D4B     		ldr	r3, .L251
 2900 045a 1B68     		ldr	r3, [r3]
 746:Application/chassis_task.c ****         time_temp = USER_GetTick();
 2901              		.loc 1 746 8 view .LVU885
 2902 045c 002B     		cmp	r3, #0
 2903 045e 40F04187 		bne	.L240
 2904              	.L219:
 749:Application/chassis_task.c ****                          // 功率限制
 2905              		.loc 1 749 5 is_stmt 1 view .LVU886
 2906 0462 FFF7FEFF 		bl	Chassis_Power_Exp
 2907              	.LVL109:
 751:Application/chassis_task.c **** }
 2908              		.loc 1 751 5 view .LVU887
 2909 0466 FFF7FEFF 		bl	Chassis_Power_Limit
 2910              	.LVL110:
 752:Application/chassis_task.c **** 
 2911              		.loc 1 752 1 is_stmt 0 view .LVU888
 2912 046a BDEC088B 		vldm	sp!, {d8-d11}
ARM GAS  C:\Users\86152\AppData\Local\Temp\ccWGVtEI.s 			page 83


 2913              	.LCFI25:
 2914              		.cfi_remember_state
 2915              		.cfi_restore 86
 2916              		.cfi_restore 87
 2917              		.cfi_restore 84
 2918              		.cfi_restore 85
 2919              		.cfi_restore 82
 2920              		.cfi_restore 83
 2921              		.cfi_restore 80
 2922              		.cfi_restore 81
 2923              		.cfi_def_cfa_offset 40
 2924 046e BDE8F88F 		pop	{r3, r4, r5, r6, r7, r8, r9, r10, fp, pc}
 2925              	.L149:
 2926              	.LCFI26:
 2927              		.cfi_restore_state
 369:Application/chassis_task.c ****         {
 2928              		.loc 1 369 9 is_stmt 1 view .LVU889
 369:Application/chassis_task.c ****         {
 2929              		.loc 1 369 24 is_stmt 0 view .LVU890
 2930 0472 414B     		ldr	r3, .L251+40
 2931 0474 1B78     		ldrb	r3, [r3]	@ zero_extendqisi2
 369:Application/chassis_task.c ****         {
 2932              		.loc 1 369 12 view .LVU891
 2933 0476 072B     		cmp	r3, #7
 2934 0478 00F29680 		bhi	.L155
 371:Application/chassis_task.c ****             sentry_HP = game_robot_HP.red_7_robot_HP;
 2935              		.loc 1 371 13 is_stmt 1 view .LVU892
 371:Application/chassis_task.c ****             sentry_HP = game_robot_HP.red_7_robot_HP;
 2936              		.loc 1 371 39 is_stmt 0 view .LVU893
 2937 047c 3F4B     		ldr	r3, .L251+44
 2938 047e 9989     		ldrh	r1, [r3, #12]
 371:Application/chassis_task.c ****             sentry_HP = game_robot_HP.red_7_robot_HP;
 2939              		.loc 1 371 24 view .LVU894
 2940 0480 3F4A     		ldr	r2, .L251+48
 2941 0482 1180     		strh	r1, [r2]	@ movhi
 372:Application/chassis_task.c ****         }
 2942              		.loc 1 372 13 is_stmt 1 view .LVU895
 372:Application/chassis_task.c ****         }
 2943              		.loc 1 372 38 is_stmt 0 view .LVU896
 2944 0484 5A89     		ldrh	r2, [r3, #10]
 372:Application/chassis_task.c ****         }
 2945              		.loc 1 372 23 view .LVU897
 2946 0486 3F4B     		ldr	r3, .L251+52
 2947 0488 1A80     		strh	r2, [r3]	@ movhi
 2948              	.L156:
 380:Application/chassis_task.c ****         {
 2949              		.loc 1 380 9 is_stmt 1 view .LVU898
 380:Application/chassis_task.c ****         {
 2950              		.loc 1 380 30 is_stmt 0 view .LVU899
 2951 048a 3F4B     		ldr	r3, .L251+56
 2952 048c 1B78     		ldrb	r3, [r3]	@ zero_extendqisi2
 380:Application/chassis_task.c ****         {
 2953              		.loc 1 380 12 view .LVU900
 2954 048e 012B     		cmp	r3, #1
 2955 0490 00F09280 		beq	.L241
 393:Application/chassis_task.c ****         {
 2956              		.loc 1 393 14 is_stmt 1 view .LVU901
ARM GAS  C:\Users\86152\AppData\Local\Temp\ccWGVtEI.s 			page 84


 393:Application/chassis_task.c ****         {
 2957              		.loc 1 393 17 is_stmt 0 view .LVU902
 2958 0494 022B     		cmp	r3, #2
 2959 0496 00F0FD81 		beq	.L242
 492:Application/chassis_task.c ****             {
 2960              		.loc 1 492 13 is_stmt 1 view .LVU903
 492:Application/chassis_task.c ****             {
 2961              		.loc 1 492 28 is_stmt 0 view .LVU904
 2962 049a 394B     		ldr	r3, .L251+48
 2963 049c 1B88     		ldrh	r3, [r3]
 492:Application/chassis_task.c ****             {
 2964              		.loc 1 492 16 view .LVU905
 2965 049e C72B     		cmp	r3, #199
 2966 04a0 05D9     		bls	.L182
 492:Application/chassis_task.c ****             {
 2967              		.loc 1 492 47 discriminator 1 view .LVU906
 2968 04a2 384B     		ldr	r3, .L251+52
 2969 04a4 1B88     		ldrh	r3, [r3]
 492:Application/chassis_task.c ****             {
 2970              		.loc 1 492 34 discriminator 1 view .LVU907
 2971 04a6 B3F57A7F 		cmp	r3, #1000
 2972 04aa 00F00784 		beq	.L183
 2973              	.L182:
 494:Application/chassis_task.c ****                                  (Chassis.posY1000 - Chassis.spinnig_center[1]) * (Chassis.posY1000
 2974              		.loc 1 494 17 is_stmt 1 view .LVU908
 494:Application/chassis_task.c ****                                  (Chassis.posY1000 - Chassis.spinnig_center[1]) * (Chassis.posY1000
 2975              		.loc 1 494 38 is_stmt 0 view .LVU909
 2976 04ae 284B     		ldr	r3, .L251
 2977 04b0 03F58052 		add	r2, r3, #4096
 2978 04b4 B2F92818 		ldrsh	r1, [r2, #2088]
 2979 04b8 00EE101A 		vmov	s0, r1	@ int
 494:Application/chassis_task.c ****                                  (Chassis.posY1000 - Chassis.spinnig_center[1]) * (Chassis.posY1000
 2980              		.loc 1 494 72 view .LVU910
 2981 04bc 02F63C01 		addw	r1, r2, #2108
 2982 04c0 D1ED007A 		vldr.32	s15, [r1]
 494:Application/chassis_task.c ****                                  (Chassis.posY1000 - Chassis.spinnig_center[1]) * (Chassis.posY1000
 2983              		.loc 1 494 48 view .LVU911
 2984 04c4 B8EEC00A 		vcvt.f32.s32	s0, s0
 2985 04c8 30EE670A 		vsub.f32	s0, s0, s15
 494:Application/chassis_task.c ****                                  (Chassis.posY1000 - Chassis.spinnig_center[1]) * (Chassis.posY1000
 2986              		.loc 1 494 77 view .LVU912
 2987 04cc 20EE000A 		vmul.f32	s0, s0, s0
 495:Application/chassis_task.c ****                              &SpiningDistance);
 2988              		.loc 1 495 42 view .LVU913
 2989 04d0 B2F92A28 		ldrsh	r2, [r2, #2090]
 2990 04d4 07EE902A 		vmov	s15, r2	@ int
 495:Application/chassis_task.c ****                              &SpiningDistance);
 2991              		.loc 1 495 76 view .LVU914
 2992 04d8 03F5C253 		add	r3, r3, #6208
 2993 04dc 93ED007A 		vldr.32	s14, [r3]
 495:Application/chassis_task.c ****                              &SpiningDistance);
 2994              		.loc 1 495 52 view .LVU915
 2995 04e0 F8EEE77A 		vcvt.f32.s32	s15, s15
 2996 04e4 77EEC77A 		vsub.f32	s15, s15, s14
 495:Application/chassis_task.c ****                              &SpiningDistance);
 2997              		.loc 1 495 81 view .LVU916
 2998 04e8 67EEA77A 		vmul.f32	s15, s15, s15
ARM GAS  C:\Users\86152\AppData\Local\Temp\ccWGVtEI.s 			page 85


 494:Application/chassis_task.c ****                                  (Chassis.posY1000 - Chassis.spinnig_center[1]) * (Chassis.posY1000
 2999              		.loc 1 494 17 view .LVU917
 3000 04ec 30EE270A 		vadd.f32	s0, s0, s15
 3001              	.LVL111:
 3002              	.LBB16:
 3003              	.LBI16:
 3004              		.file 2 "Components/Algorithm/Include/arm_math.h"
   1:Components/Algorithm/Include/arm_math.h **** /* ----------------------------------------------------------------------
   2:Components/Algorithm/Include/arm_math.h **** * Copyright (C) 2010-2015 ARM Limited. All rights reserved.
   3:Components/Algorithm/Include/arm_math.h **** *
   4:Components/Algorithm/Include/arm_math.h **** * $Date:        19. March 2015
   5:Components/Algorithm/Include/arm_math.h **** * $Revision: 	V.1.4.5
   6:Components/Algorithm/Include/arm_math.h **** *
   7:Components/Algorithm/Include/arm_math.h **** * Project: 	    CMSIS DSP Library
   8:Components/Algorithm/Include/arm_math.h **** * Title:	    arm_math.h
   9:Components/Algorithm/Include/arm_math.h **** *
  10:Components/Algorithm/Include/arm_math.h **** * Description:	Public header file for CMSIS DSP Library
  11:Components/Algorithm/Include/arm_math.h **** *
  12:Components/Algorithm/Include/arm_math.h **** * Target Processor: Cortex-M7/Cortex-M4/Cortex-M3/Cortex-M0
  13:Components/Algorithm/Include/arm_math.h **** *
  14:Components/Algorithm/Include/arm_math.h **** * Redistribution and use in source and binary forms, with or without
  15:Components/Algorithm/Include/arm_math.h **** * modification, are permitted provided that the following conditions
  16:Components/Algorithm/Include/arm_math.h **** * are met:
  17:Components/Algorithm/Include/arm_math.h **** *   - Redistributions of source code must retain the above copyright
  18:Components/Algorithm/Include/arm_math.h **** *     notice, this list of conditions and the following disclaimer.
  19:Components/Algorithm/Include/arm_math.h **** *   - Redistributions in binary form must reproduce the above copyright
  20:Components/Algorithm/Include/arm_math.h **** *     notice, this list of conditions and the following disclaimer in
  21:Components/Algorithm/Include/arm_math.h **** *     the documentation and/or other materials provided with the
  22:Components/Algorithm/Include/arm_math.h **** *     distribution.
  23:Components/Algorithm/Include/arm_math.h **** *   - Neither the name of ARM LIMITED nor the names of its contributors
  24:Components/Algorithm/Include/arm_math.h **** *     may be used to endorse or promote products derived from this
  25:Components/Algorithm/Include/arm_math.h **** *     software without specific prior written permission.
  26:Components/Algorithm/Include/arm_math.h **** *
  27:Components/Algorithm/Include/arm_math.h **** * THIS SOFTWARE IS PROVIDED BY THE COPYRIGHT HOLDERS AND CONTRIBUTORS
  28:Components/Algorithm/Include/arm_math.h **** * "AS IS" AND ANY EXPRESS OR IMPLIED WARRANTIES, INCLUDING, BUT NOT
  29:Components/Algorithm/Include/arm_math.h **** * LIMITED TO, THE IMPLIED WARRANTIES OF MERCHANTABILITY AND FITNESS
  30:Components/Algorithm/Include/arm_math.h **** * FOR A PARTICULAR PURPOSE ARE DISCLAIMED. IN NO EVENT SHALL THE
  31:Components/Algorithm/Include/arm_math.h **** * COPYRIGHT OWNER OR CONTRIBUTORS BE LIABLE FOR ANY DIRECT, INDIRECT,
  32:Components/Algorithm/Include/arm_math.h **** * INCIDENTAL, SPECIAL, EXEMPLARY, OR CONSEQUENTIAL DAMAGES (INCLUDING,
  33:Components/Algorithm/Include/arm_math.h **** * BUT NOT LIMITED TO, PROCUREMENT OF SUBSTITUTE GOODS OR SERVICES;
  34:Components/Algorithm/Include/arm_math.h **** * LOSS OF USE, DATA, OR PROFITS; OR BUSINESS INTERRUPTION) HOWEVER
  35:Components/Algorithm/Include/arm_math.h **** * CAUSED AND ON ANY THEORY OF LIABILITY, WHETHER IN CONTRACT, STRICT
  36:Components/Algorithm/Include/arm_math.h **** * LIABILITY, OR TORT (INCLUDING NEGLIGENCE OR OTHERWISE) ARISING IN
  37:Components/Algorithm/Include/arm_math.h **** * ANY WAY OUT OF THE USE OF THIS SOFTWARE, EVEN IF ADVISED OF THE
  38:Components/Algorithm/Include/arm_math.h **** * POSSIBILITY OF SUCH DAMAGE.
  39:Components/Algorithm/Include/arm_math.h ****  * -------------------------------------------------------------------- */
  40:Components/Algorithm/Include/arm_math.h **** 
  41:Components/Algorithm/Include/arm_math.h **** /**
  42:Components/Algorithm/Include/arm_math.h ****    \mainpage CMSIS DSP Software Library
  43:Components/Algorithm/Include/arm_math.h ****    *
  44:Components/Algorithm/Include/arm_math.h ****    * Introduction
  45:Components/Algorithm/Include/arm_math.h ****    * ------------
  46:Components/Algorithm/Include/arm_math.h ****    *
  47:Components/Algorithm/Include/arm_math.h ****    * This user manual describes the CMSIS DSP software library,
  48:Components/Algorithm/Include/arm_math.h ****    * a suite of common signal processing functions for use on Cortex-M processor based devices.
  49:Components/Algorithm/Include/arm_math.h ****    *
  50:Components/Algorithm/Include/arm_math.h ****    * The library is divided into a number of functions each covering a specific category:
ARM GAS  C:\Users\86152\AppData\Local\Temp\ccWGVtEI.s 			page 86


  51:Components/Algorithm/Include/arm_math.h ****    * - Basic math functions
  52:Components/Algorithm/Include/arm_math.h ****    * - Fast math functions
  53:Components/Algorithm/Include/arm_math.h ****    * - Complex math functions
  54:Components/Algorithm/Include/arm_math.h ****    * - Filters
  55:Components/Algorithm/Include/arm_math.h ****    * - Matrix functions
  56:Components/Algorithm/Include/arm_math.h ****    * - Transforms
  57:Components/Algorithm/Include/arm_math.h ****    * - Motor control functions
  58:Components/Algorithm/Include/arm_math.h ****    * - Statistical functions
  59:Components/Algorithm/Include/arm_math.h ****    * - Support functions
  60:Components/Algorithm/Include/arm_math.h ****    * - Interpolation functions
  61:Components/Algorithm/Include/arm_math.h ****    *
  62:Components/Algorithm/Include/arm_math.h ****    * The library has separate functions for operating on 8-bit integers, 16-bit integers,
  63:Components/Algorithm/Include/arm_math.h ****    * 32-bit integer and 32-bit floating-point values.
  64:Components/Algorithm/Include/arm_math.h ****    *
  65:Components/Algorithm/Include/arm_math.h ****    * Using the Library
  66:Components/Algorithm/Include/arm_math.h ****    * ------------
  67:Components/Algorithm/Include/arm_math.h ****    *
  68:Components/Algorithm/Include/arm_math.h ****    * The library installer contains prebuilt versions of the libraries in the <code>Lib</code> fold
  69:Components/Algorithm/Include/arm_math.h ****    * - arm_cortexM7lfdp_math.lib (Little endian and Double Precision Floating Point Unit on Cortex-
  70:Components/Algorithm/Include/arm_math.h ****    * - arm_cortexM7bfdp_math.lib (Big endian and Double Precision Floating Point Unit on Cortex-M7)
  71:Components/Algorithm/Include/arm_math.h ****    * - arm_cortexM7lfsp_math.lib (Little endian and Single Precision Floating Point Unit on Cortex-
  72:Components/Algorithm/Include/arm_math.h ****    * - arm_cortexM7bfsp_math.lib (Big endian and Single Precision Floating Point Unit on Cortex-M7)
  73:Components/Algorithm/Include/arm_math.h ****    * - arm_cortexM7l_math.lib (Little endian on Cortex-M7)
  74:Components/Algorithm/Include/arm_math.h ****    * - arm_cortexM7b_math.lib (Big endian on Cortex-M7)
  75:Components/Algorithm/Include/arm_math.h ****    * - arm_cortexM4lf_math.lib (Little endian and Floating Point Unit on Cortex-M4)
  76:Components/Algorithm/Include/arm_math.h ****    * - arm_cortexM4bf_math.lib (Big endian and Floating Point Unit on Cortex-M4)
  77:Components/Algorithm/Include/arm_math.h ****    * - arm_cortexM4l_math.lib (Little endian on Cortex-M4)
  78:Components/Algorithm/Include/arm_math.h ****    * - arm_cortexM4b_math.lib (Big endian on Cortex-M4)
  79:Components/Algorithm/Include/arm_math.h ****    * - arm_cortexM3l_math.lib (Little endian on Cortex-M3)
  80:Components/Algorithm/Include/arm_math.h ****    * - arm_cortexM3b_math.lib (Big endian on Cortex-M3)
  81:Components/Algorithm/Include/arm_math.h ****    * - arm_cortexM0l_math.lib (Little endian on Cortex-M0 / CortexM0+)
  82:Components/Algorithm/Include/arm_math.h ****    * - arm_cortexM0b_math.lib (Big endian on Cortex-M0 / CortexM0+)
  83:Components/Algorithm/Include/arm_math.h ****    *
  84:Components/Algorithm/Include/arm_math.h ****    * The library functions are declared in the public file <code>arm_math.h</code> which is placed 
  85:Components/Algorithm/Include/arm_math.h ****    * Simply include this file and link the appropriate library in the application and begin calling
  86:Components/Algorithm/Include/arm_math.h ****    * public header file <code> arm_math.h</code> for Cortex-M7/M4/M3/M0/M0+ with little endian and 
  87:Components/Algorithm/Include/arm_math.h ****    * Define the appropriate pre processor MACRO ARM_MATH_CM7 or ARM_MATH_CM4 or  ARM_MATH_CM3 or
  88:Components/Algorithm/Include/arm_math.h ****    * ARM_MATH_CM0 or ARM_MATH_CM0PLUS depending on the target processor in the application.
  89:Components/Algorithm/Include/arm_math.h ****    *
  90:Components/Algorithm/Include/arm_math.h ****    * Examples
  91:Components/Algorithm/Include/arm_math.h ****    * --------
  92:Components/Algorithm/Include/arm_math.h ****    *
  93:Components/Algorithm/Include/arm_math.h ****    * The library ships with a number of examples which demonstrate how to use the library functions
  94:Components/Algorithm/Include/arm_math.h ****    *
  95:Components/Algorithm/Include/arm_math.h ****    * Toolchain Support
  96:Components/Algorithm/Include/arm_math.h ****    * ------------
  97:Components/Algorithm/Include/arm_math.h ****    *
  98:Components/Algorithm/Include/arm_math.h ****    * The library has been developed and tested with MDK-ARM version 5.14.0.0
  99:Components/Algorithm/Include/arm_math.h ****    * The library is being tested in GCC and IAR toolchains and updates on this activity will be mad
 100:Components/Algorithm/Include/arm_math.h ****    *
 101:Components/Algorithm/Include/arm_math.h ****    * Building the Library
 102:Components/Algorithm/Include/arm_math.h ****    * ------------
 103:Components/Algorithm/Include/arm_math.h ****    *
 104:Components/Algorithm/Include/arm_math.h ****    * The library installer contains a project file to re build libraries on MDK-ARM Tool chain in t
 105:Components/Algorithm/Include/arm_math.h ****    * - arm_cortexM_math.uvprojx
 106:Components/Algorithm/Include/arm_math.h ****    *
 107:Components/Algorithm/Include/arm_math.h ****    *
ARM GAS  C:\Users\86152\AppData\Local\Temp\ccWGVtEI.s 			page 87


 108:Components/Algorithm/Include/arm_math.h ****    * The libraries can be built by opening the arm_cortexM_math.uvprojx project in MDK-ARM, selecti
 109:Components/Algorithm/Include/arm_math.h ****    *
 110:Components/Algorithm/Include/arm_math.h ****    * Pre-processor Macros
 111:Components/Algorithm/Include/arm_math.h ****    * ------------
 112:Components/Algorithm/Include/arm_math.h ****    *
 113:Components/Algorithm/Include/arm_math.h ****    * Each library project have differant pre-processor macros.
 114:Components/Algorithm/Include/arm_math.h ****    *
 115:Components/Algorithm/Include/arm_math.h ****    * - UNALIGNED_SUPPORT_DISABLE:
 116:Components/Algorithm/Include/arm_math.h ****    *
 117:Components/Algorithm/Include/arm_math.h ****    * Define macro UNALIGNED_SUPPORT_DISABLE, If the silicon does not support unaligned memory acces
 118:Components/Algorithm/Include/arm_math.h ****    *
 119:Components/Algorithm/Include/arm_math.h ****    * - ARM_MATH_BIG_ENDIAN:
 120:Components/Algorithm/Include/arm_math.h ****    *
 121:Components/Algorithm/Include/arm_math.h ****    * Define macro ARM_MATH_BIG_ENDIAN to build the library for big endian targets. By default libra
 122:Components/Algorithm/Include/arm_math.h ****    *
 123:Components/Algorithm/Include/arm_math.h ****    * - ARM_MATH_MATRIX_CHECK:
 124:Components/Algorithm/Include/arm_math.h ****    *
 125:Components/Algorithm/Include/arm_math.h ****    * Define macro ARM_MATH_MATRIX_CHECK for checking on the input and output sizes of matrices
 126:Components/Algorithm/Include/arm_math.h ****    *
 127:Components/Algorithm/Include/arm_math.h ****    * - ARM_MATH_ROUNDING:
 128:Components/Algorithm/Include/arm_math.h ****    *
 129:Components/Algorithm/Include/arm_math.h ****    * Define macro ARM_MATH_ROUNDING for rounding on support functions
 130:Components/Algorithm/Include/arm_math.h ****    *
 131:Components/Algorithm/Include/arm_math.h ****    * - ARM_MATH_CMx:
 132:Components/Algorithm/Include/arm_math.h ****    *
 133:Components/Algorithm/Include/arm_math.h ****    * Define macro ARM_MATH_CM4 for building the library on Cortex-M4 target, ARM_MATH_CM3 for build
 134:Components/Algorithm/Include/arm_math.h ****    * and ARM_MATH_CM0 for building library on Cortex-M0 target, ARM_MATH_CM0PLUS for building libra
 135:Components/Algorithm/Include/arm_math.h ****    * ARM_MATH_CM7 for building the library on cortex-M7.
 136:Components/Algorithm/Include/arm_math.h ****    *
 137:Components/Algorithm/Include/arm_math.h ****    * - __FPU_PRESENT:
 138:Components/Algorithm/Include/arm_math.h ****    *
 139:Components/Algorithm/Include/arm_math.h ****    * Initialize macro __FPU_PRESENT = 1 when building on FPU supported Targets. Enable this macro f
 140:Components/Algorithm/Include/arm_math.h ****    *
 141:Components/Algorithm/Include/arm_math.h ****    * <hr>
 142:Components/Algorithm/Include/arm_math.h ****    * CMSIS-DSP in ARM::CMSIS Pack
 143:Components/Algorithm/Include/arm_math.h ****    * -----------------------------
 144:Components/Algorithm/Include/arm_math.h ****    * 
 145:Components/Algorithm/Include/arm_math.h ****    * The following files relevant to CMSIS-DSP are present in the <b>ARM::CMSIS</b> Pack directorie
 146:Components/Algorithm/Include/arm_math.h ****    * |File/Folder                   |Content                                                       
 147:Components/Algorithm/Include/arm_math.h ****    * |------------------------------|--------------------------------------------------------------
 148:Components/Algorithm/Include/arm_math.h ****    * |\b CMSIS\\Documentation\\DSP  | This documentation                                           
 149:Components/Algorithm/Include/arm_math.h ****    * |\b CMSIS\\DSP_Lib             | Software license agreement (license.txt)                     
 150:Components/Algorithm/Include/arm_math.h ****    * |\b CMSIS\\DSP_Lib\\Examples   | Example projects demonstrating the usage of the library funct
 151:Components/Algorithm/Include/arm_math.h ****    * |\b CMSIS\\DSP_Lib\\Source     | Source files for rebuilding the library                      
 152:Components/Algorithm/Include/arm_math.h ****    * 
 153:Components/Algorithm/Include/arm_math.h ****    * <hr>
 154:Components/Algorithm/Include/arm_math.h ****    * Revision History of CMSIS-DSP
 155:Components/Algorithm/Include/arm_math.h ****    * ------------
 156:Components/Algorithm/Include/arm_math.h ****    * Please refer to \ref ChangeLog_pg.
 157:Components/Algorithm/Include/arm_math.h ****    *
 158:Components/Algorithm/Include/arm_math.h ****    * Copyright Notice
 159:Components/Algorithm/Include/arm_math.h ****    * ------------
 160:Components/Algorithm/Include/arm_math.h ****    *
 161:Components/Algorithm/Include/arm_math.h ****    * Copyright (C) 2010-2015 ARM Limited. All rights reserved.
 162:Components/Algorithm/Include/arm_math.h ****    */
 163:Components/Algorithm/Include/arm_math.h **** 
 164:Components/Algorithm/Include/arm_math.h **** 
ARM GAS  C:\Users\86152\AppData\Local\Temp\ccWGVtEI.s 			page 88


 165:Components/Algorithm/Include/arm_math.h **** /**
 166:Components/Algorithm/Include/arm_math.h ****  * @defgroup groupMath Basic Math Functions
 167:Components/Algorithm/Include/arm_math.h ****  */
 168:Components/Algorithm/Include/arm_math.h **** 
 169:Components/Algorithm/Include/arm_math.h **** /**
 170:Components/Algorithm/Include/arm_math.h ****  * @defgroup groupFastMath Fast Math Functions
 171:Components/Algorithm/Include/arm_math.h ****  * This set of functions provides a fast approximation to sine, cosine, and square root.
 172:Components/Algorithm/Include/arm_math.h ****  * As compared to most of the other functions in the CMSIS math library, the fast math functions
 173:Components/Algorithm/Include/arm_math.h ****  * operate on individual values and not arrays.
 174:Components/Algorithm/Include/arm_math.h ****  * There are separate functions for Q15, Q31, and floating-point data.
 175:Components/Algorithm/Include/arm_math.h ****  *
 176:Components/Algorithm/Include/arm_math.h ****  */
 177:Components/Algorithm/Include/arm_math.h **** 
 178:Components/Algorithm/Include/arm_math.h **** /**
 179:Components/Algorithm/Include/arm_math.h ****  * @defgroup groupCmplxMath Complex Math Functions
 180:Components/Algorithm/Include/arm_math.h ****  * This set of functions operates on complex data vectors.
 181:Components/Algorithm/Include/arm_math.h ****  * The data in the complex arrays is stored in an interleaved fashion
 182:Components/Algorithm/Include/arm_math.h ****  * (real, imag, real, imag, ...).
 183:Components/Algorithm/Include/arm_math.h ****  * In the API functions, the number of samples in a complex array refers
 184:Components/Algorithm/Include/arm_math.h ****  * to the number of complex values; the array contains twice this number of
 185:Components/Algorithm/Include/arm_math.h ****  * real values.
 186:Components/Algorithm/Include/arm_math.h ****  */
 187:Components/Algorithm/Include/arm_math.h **** 
 188:Components/Algorithm/Include/arm_math.h **** /**
 189:Components/Algorithm/Include/arm_math.h ****  * @defgroup groupFilters Filtering Functions
 190:Components/Algorithm/Include/arm_math.h ****  */
 191:Components/Algorithm/Include/arm_math.h **** 
 192:Components/Algorithm/Include/arm_math.h **** /**
 193:Components/Algorithm/Include/arm_math.h ****  * @defgroup groupMatrix Matrix Functions
 194:Components/Algorithm/Include/arm_math.h ****  *
 195:Components/Algorithm/Include/arm_math.h ****  * This set of functions provides basic matrix math operations.
 196:Components/Algorithm/Include/arm_math.h ****  * The functions operate on matrix data structures.  For example,
 197:Components/Algorithm/Include/arm_math.h ****  * the type
 198:Components/Algorithm/Include/arm_math.h ****  * definition for the floating-point matrix structure is shown
 199:Components/Algorithm/Include/arm_math.h ****  * below:
 200:Components/Algorithm/Include/arm_math.h ****  * <pre>
 201:Components/Algorithm/Include/arm_math.h ****  *     typedef struct
 202:Components/Algorithm/Include/arm_math.h ****  *     {
 203:Components/Algorithm/Include/arm_math.h ****  *       uint16_t numRows;     // number of rows of the matrix.
 204:Components/Algorithm/Include/arm_math.h ****  *       uint16_t numCols;     // number of columns of the matrix.
 205:Components/Algorithm/Include/arm_math.h ****  *       float32_t *pData;     // points to the data of the matrix.
 206:Components/Algorithm/Include/arm_math.h ****  *     } arm_matrix_instance_f32;
 207:Components/Algorithm/Include/arm_math.h ****  * </pre>
 208:Components/Algorithm/Include/arm_math.h ****  * There are similar definitions for Q15 and Q31 data types.
 209:Components/Algorithm/Include/arm_math.h ****  *
 210:Components/Algorithm/Include/arm_math.h ****  * The structure specifies the size of the matrix and then points to
 211:Components/Algorithm/Include/arm_math.h ****  * an array of data.  The array is of size <code>numRows X numCols</code>
 212:Components/Algorithm/Include/arm_math.h ****  * and the values are arranged in row order.  That is, the
 213:Components/Algorithm/Include/arm_math.h ****  * matrix element (i, j) is stored at:
 214:Components/Algorithm/Include/arm_math.h ****  * <pre>
 215:Components/Algorithm/Include/arm_math.h ****  *     pData[i*numCols + j]
 216:Components/Algorithm/Include/arm_math.h ****  * </pre>
 217:Components/Algorithm/Include/arm_math.h ****  *
 218:Components/Algorithm/Include/arm_math.h ****  * \par Init Functions
 219:Components/Algorithm/Include/arm_math.h ****  * There is an associated initialization function for each type of matrix
 220:Components/Algorithm/Include/arm_math.h ****  * data structure.
 221:Components/Algorithm/Include/arm_math.h ****  * The initialization function sets the values of the internal structure fields.
ARM GAS  C:\Users\86152\AppData\Local\Temp\ccWGVtEI.s 			page 89


 222:Components/Algorithm/Include/arm_math.h ****  * Refer to the function <code>arm_mat_init_f32()</code>, <code>arm_mat_init_q31()</code>
 223:Components/Algorithm/Include/arm_math.h ****  * and <code>arm_mat_init_q15()</code> for floating-point, Q31 and Q15 types,  respectively.
 224:Components/Algorithm/Include/arm_math.h ****  *
 225:Components/Algorithm/Include/arm_math.h ****  * \par
 226:Components/Algorithm/Include/arm_math.h ****  * Use of the initialization function is optional. However, if initialization function is used
 227:Components/Algorithm/Include/arm_math.h ****  * then the instance structure cannot be placed into a const data section.
 228:Components/Algorithm/Include/arm_math.h ****  * To place the instance structure in a const data
 229:Components/Algorithm/Include/arm_math.h ****  * section, manually initialize the data structure.  For example:
 230:Components/Algorithm/Include/arm_math.h ****  * <pre>
 231:Components/Algorithm/Include/arm_math.h ****  * <code>arm_matrix_instance_f32 S = {nRows, nColumns, pData};</code>
 232:Components/Algorithm/Include/arm_math.h ****  * <code>arm_matrix_instance_q31 S = {nRows, nColumns, pData};</code>
 233:Components/Algorithm/Include/arm_math.h ****  * <code>arm_matrix_instance_q15 S = {nRows, nColumns, pData};</code>
 234:Components/Algorithm/Include/arm_math.h ****  * </pre>
 235:Components/Algorithm/Include/arm_math.h ****  * where <code>nRows</code> specifies the number of rows, <code>nColumns</code>
 236:Components/Algorithm/Include/arm_math.h ****  * specifies the number of columns, and <code>pData</code> points to the
 237:Components/Algorithm/Include/arm_math.h ****  * data array.
 238:Components/Algorithm/Include/arm_math.h ****  *
 239:Components/Algorithm/Include/arm_math.h ****  * \par Size Checking
 240:Components/Algorithm/Include/arm_math.h ****  * By default all of the matrix functions perform size checking on the input and
 241:Components/Algorithm/Include/arm_math.h ****  * output matrices.  For example, the matrix addition function verifies that the
 242:Components/Algorithm/Include/arm_math.h ****  * two input matrices and the output matrix all have the same number of rows and
 243:Components/Algorithm/Include/arm_math.h ****  * columns.  If the size check fails the functions return:
 244:Components/Algorithm/Include/arm_math.h ****  * <pre>
 245:Components/Algorithm/Include/arm_math.h ****  *     ARM_MATH_SIZE_MISMATCH
 246:Components/Algorithm/Include/arm_math.h ****  * </pre>
 247:Components/Algorithm/Include/arm_math.h ****  * Otherwise the functions return
 248:Components/Algorithm/Include/arm_math.h ****  * <pre>
 249:Components/Algorithm/Include/arm_math.h ****  *     ARM_MATH_SUCCESS
 250:Components/Algorithm/Include/arm_math.h ****  * </pre>
 251:Components/Algorithm/Include/arm_math.h ****  * There is some overhead associated with this matrix size checking.
 252:Components/Algorithm/Include/arm_math.h ****  * The matrix size checking is enabled via the \#define
 253:Components/Algorithm/Include/arm_math.h ****  * <pre>
 254:Components/Algorithm/Include/arm_math.h ****  *     ARM_MATH_MATRIX_CHECK
 255:Components/Algorithm/Include/arm_math.h ****  * </pre>
 256:Components/Algorithm/Include/arm_math.h ****  * within the library project settings.  By default this macro is defined
 257:Components/Algorithm/Include/arm_math.h ****  * and size checking is enabled.  By changing the project settings and
 258:Components/Algorithm/Include/arm_math.h ****  * undefining this macro size checking is eliminated and the functions
 259:Components/Algorithm/Include/arm_math.h ****  * run a bit faster.  With size checking disabled the functions always
 260:Components/Algorithm/Include/arm_math.h ****  * return <code>ARM_MATH_SUCCESS</code>.
 261:Components/Algorithm/Include/arm_math.h ****  */
 262:Components/Algorithm/Include/arm_math.h **** 
 263:Components/Algorithm/Include/arm_math.h **** /**
 264:Components/Algorithm/Include/arm_math.h ****  * @defgroup groupTransforms Transform Functions
 265:Components/Algorithm/Include/arm_math.h ****  */
 266:Components/Algorithm/Include/arm_math.h **** 
 267:Components/Algorithm/Include/arm_math.h **** /**
 268:Components/Algorithm/Include/arm_math.h ****  * @defgroup groupController Controller Functions
 269:Components/Algorithm/Include/arm_math.h ****  */
 270:Components/Algorithm/Include/arm_math.h **** 
 271:Components/Algorithm/Include/arm_math.h **** /**
 272:Components/Algorithm/Include/arm_math.h ****  * @defgroup groupStats Statistics Functions
 273:Components/Algorithm/Include/arm_math.h ****  */
 274:Components/Algorithm/Include/arm_math.h **** /**
 275:Components/Algorithm/Include/arm_math.h ****  * @defgroup groupSupport Support Functions
 276:Components/Algorithm/Include/arm_math.h ****  */
 277:Components/Algorithm/Include/arm_math.h **** 
 278:Components/Algorithm/Include/arm_math.h **** /**
ARM GAS  C:\Users\86152\AppData\Local\Temp\ccWGVtEI.s 			page 90


 279:Components/Algorithm/Include/arm_math.h ****  * @defgroup groupInterpolation Interpolation Functions
 280:Components/Algorithm/Include/arm_math.h ****  * These functions perform 1- and 2-dimensional interpolation of data.
 281:Components/Algorithm/Include/arm_math.h ****  * Linear interpolation is used for 1-dimensional data and
 282:Components/Algorithm/Include/arm_math.h ****  * bilinear interpolation is used for 2-dimensional data.
 283:Components/Algorithm/Include/arm_math.h ****  */
 284:Components/Algorithm/Include/arm_math.h **** 
 285:Components/Algorithm/Include/arm_math.h **** /**
 286:Components/Algorithm/Include/arm_math.h ****  * @defgroup groupExamples Examples
 287:Components/Algorithm/Include/arm_math.h ****  */
 288:Components/Algorithm/Include/arm_math.h **** #ifndef _ARM_MATH_H
 289:Components/Algorithm/Include/arm_math.h **** #define _ARM_MATH_H
 290:Components/Algorithm/Include/arm_math.h **** 
 291:Components/Algorithm/Include/arm_math.h **** #define __CMSIS_GENERIC         /* disable NVIC and Systick functions */
 292:Components/Algorithm/Include/arm_math.h **** 
 293:Components/Algorithm/Include/arm_math.h **** #if defined(ARM_MATH_CM7)
 294:Components/Algorithm/Include/arm_math.h ****   #include "core_cm7.h"
 295:Components/Algorithm/Include/arm_math.h **** #elif defined (ARM_MATH_CM4)
 296:Components/Algorithm/Include/arm_math.h ****   #include "core_cm4.h"
 297:Components/Algorithm/Include/arm_math.h **** #elif defined (ARM_MATH_CM3)
 298:Components/Algorithm/Include/arm_math.h ****   #include "core_cm3.h"
 299:Components/Algorithm/Include/arm_math.h **** #elif defined (ARM_MATH_CM0)
 300:Components/Algorithm/Include/arm_math.h ****   #include "core_cm0.h"
 301:Components/Algorithm/Include/arm_math.h **** #define ARM_MATH_CM0_FAMILY
 302:Components/Algorithm/Include/arm_math.h ****   #elif defined (ARM_MATH_CM0PLUS)
 303:Components/Algorithm/Include/arm_math.h **** #include "core_cm0plus.h"
 304:Components/Algorithm/Include/arm_math.h ****   #define ARM_MATH_CM0_FAMILY
 305:Components/Algorithm/Include/arm_math.h **** #else
 306:Components/Algorithm/Include/arm_math.h ****   #error "Define according the used Cortex core ARM_MATH_CM7, ARM_MATH_CM4, ARM_MATH_CM3, ARM_MATH_
 307:Components/Algorithm/Include/arm_math.h **** #endif
 308:Components/Algorithm/Include/arm_math.h **** 
 309:Components/Algorithm/Include/arm_math.h **** #undef  __CMSIS_GENERIC         /* enable NVIC and Systick functions */
 310:Components/Algorithm/Include/arm_math.h **** #include "string.h"
 311:Components/Algorithm/Include/arm_math.h **** #include "math.h"
 312:Components/Algorithm/Include/arm_math.h **** #ifdef	__cplusplus
 313:Components/Algorithm/Include/arm_math.h **** extern "C"
 314:Components/Algorithm/Include/arm_math.h **** {
 315:Components/Algorithm/Include/arm_math.h **** #endif
 316:Components/Algorithm/Include/arm_math.h **** 
 317:Components/Algorithm/Include/arm_math.h **** 
 318:Components/Algorithm/Include/arm_math.h ****   /**
 319:Components/Algorithm/Include/arm_math.h ****    * @brief Macros required for reciprocal calculation in Normalized LMS
 320:Components/Algorithm/Include/arm_math.h ****    */
 321:Components/Algorithm/Include/arm_math.h **** 
 322:Components/Algorithm/Include/arm_math.h **** #define DELTA_Q31 			(0x100)
 323:Components/Algorithm/Include/arm_math.h **** #define DELTA_Q15 			0x5
 324:Components/Algorithm/Include/arm_math.h **** #define INDEX_MASK 			0x0000003F
 325:Components/Algorithm/Include/arm_math.h **** #ifndef PI
 326:Components/Algorithm/Include/arm_math.h **** #define PI					3.14159265358979f
 327:Components/Algorithm/Include/arm_math.h **** #endif
 328:Components/Algorithm/Include/arm_math.h **** 
 329:Components/Algorithm/Include/arm_math.h ****   /**
 330:Components/Algorithm/Include/arm_math.h ****    * @brief Macros required for SINE and COSINE Fast math approximations
 331:Components/Algorithm/Include/arm_math.h ****    */
 332:Components/Algorithm/Include/arm_math.h **** 
 333:Components/Algorithm/Include/arm_math.h **** #define FAST_MATH_TABLE_SIZE  512
 334:Components/Algorithm/Include/arm_math.h **** #define FAST_MATH_Q31_SHIFT   (32 - 10)
 335:Components/Algorithm/Include/arm_math.h **** #define FAST_MATH_Q15_SHIFT   (16 - 10)
ARM GAS  C:\Users\86152\AppData\Local\Temp\ccWGVtEI.s 			page 91


 336:Components/Algorithm/Include/arm_math.h **** #define CONTROLLER_Q31_SHIFT  (32 - 9)
 337:Components/Algorithm/Include/arm_math.h **** #define TABLE_SIZE  256
 338:Components/Algorithm/Include/arm_math.h **** #define TABLE_SPACING_Q31	   0x400000
 339:Components/Algorithm/Include/arm_math.h **** #define TABLE_SPACING_Q15	   0x80
 340:Components/Algorithm/Include/arm_math.h **** 
 341:Components/Algorithm/Include/arm_math.h ****   /**
 342:Components/Algorithm/Include/arm_math.h ****    * @brief Macros required for SINE and COSINE Controller functions
 343:Components/Algorithm/Include/arm_math.h ****    */
 344:Components/Algorithm/Include/arm_math.h ****   /* 1.31(q31) Fixed value of 2/360 */
 345:Components/Algorithm/Include/arm_math.h ****   /* -1 to +1 is divided into 360 values so total spacing is (2/360) */
 346:Components/Algorithm/Include/arm_math.h **** #define INPUT_SPACING			0xB60B61
 347:Components/Algorithm/Include/arm_math.h **** 
 348:Components/Algorithm/Include/arm_math.h ****   /**
 349:Components/Algorithm/Include/arm_math.h ****    * @brief Macro for Unaligned Support
 350:Components/Algorithm/Include/arm_math.h ****    */
 351:Components/Algorithm/Include/arm_math.h **** #ifndef UNALIGNED_SUPPORT_DISABLE
 352:Components/Algorithm/Include/arm_math.h ****     #define ALIGN4
 353:Components/Algorithm/Include/arm_math.h **** #else
 354:Components/Algorithm/Include/arm_math.h ****   #if defined  (__GNUC__)
 355:Components/Algorithm/Include/arm_math.h ****     #define ALIGN4 __attribute__((aligned(4)))
 356:Components/Algorithm/Include/arm_math.h ****   #else
 357:Components/Algorithm/Include/arm_math.h ****     #define ALIGN4 __align(4)
 358:Components/Algorithm/Include/arm_math.h ****   #endif
 359:Components/Algorithm/Include/arm_math.h **** #endif	/*	#ifndef UNALIGNED_SUPPORT_DISABLE	*/
 360:Components/Algorithm/Include/arm_math.h **** 
 361:Components/Algorithm/Include/arm_math.h ****   /**
 362:Components/Algorithm/Include/arm_math.h ****    * @brief Error status returned by some functions in the library.
 363:Components/Algorithm/Include/arm_math.h ****    */
 364:Components/Algorithm/Include/arm_math.h **** 
 365:Components/Algorithm/Include/arm_math.h ****   typedef enum
 366:Components/Algorithm/Include/arm_math.h ****   {
 367:Components/Algorithm/Include/arm_math.h ****     ARM_MATH_SUCCESS = 0,                /**< No error */
 368:Components/Algorithm/Include/arm_math.h ****     ARM_MATH_ARGUMENT_ERROR = -1,        /**< One or more arguments are incorrect */
 369:Components/Algorithm/Include/arm_math.h ****     ARM_MATH_LENGTH_ERROR = -2,          /**< Length of data buffer is incorrect */
 370:Components/Algorithm/Include/arm_math.h ****     ARM_MATH_SIZE_MISMATCH = -3,         /**< Size of matrices is not compatible with the operation
 371:Components/Algorithm/Include/arm_math.h ****     ARM_MATH_NANINF = -4,                /**< Not-a-number (NaN) or infinity is generated */
 372:Components/Algorithm/Include/arm_math.h ****     ARM_MATH_SINGULAR = -5,              /**< Generated by matrix inversion if the input matrix is 
 373:Components/Algorithm/Include/arm_math.h ****     ARM_MATH_TEST_FAILURE = -6           /**< Test Failed  */
 374:Components/Algorithm/Include/arm_math.h ****   } arm_status;
 375:Components/Algorithm/Include/arm_math.h **** 
 376:Components/Algorithm/Include/arm_math.h ****   /**
 377:Components/Algorithm/Include/arm_math.h ****    * @brief 8-bit fractional data type in 1.7 format.
 378:Components/Algorithm/Include/arm_math.h ****    */
 379:Components/Algorithm/Include/arm_math.h ****   typedef int8_t q7_t;
 380:Components/Algorithm/Include/arm_math.h **** 
 381:Components/Algorithm/Include/arm_math.h ****   /**
 382:Components/Algorithm/Include/arm_math.h ****    * @brief 16-bit fractional data type in 1.15 format.
 383:Components/Algorithm/Include/arm_math.h ****    */
 384:Components/Algorithm/Include/arm_math.h ****   typedef int16_t q15_t;
 385:Components/Algorithm/Include/arm_math.h **** 
 386:Components/Algorithm/Include/arm_math.h ****   /**
 387:Components/Algorithm/Include/arm_math.h ****    * @brief 32-bit fractional data type in 1.31 format.
 388:Components/Algorithm/Include/arm_math.h ****    */
 389:Components/Algorithm/Include/arm_math.h ****   typedef int32_t q31_t;
 390:Components/Algorithm/Include/arm_math.h **** 
 391:Components/Algorithm/Include/arm_math.h ****   /**
 392:Components/Algorithm/Include/arm_math.h ****    * @brief 64-bit fractional data type in 1.63 format.
ARM GAS  C:\Users\86152\AppData\Local\Temp\ccWGVtEI.s 			page 92


 393:Components/Algorithm/Include/arm_math.h ****    */
 394:Components/Algorithm/Include/arm_math.h ****   typedef int64_t q63_t;
 395:Components/Algorithm/Include/arm_math.h **** 
 396:Components/Algorithm/Include/arm_math.h ****   /**
 397:Components/Algorithm/Include/arm_math.h ****    * @brief 32-bit floating-point type definition.
 398:Components/Algorithm/Include/arm_math.h ****    */
 399:Components/Algorithm/Include/arm_math.h ****   typedef float float32_t;
 400:Components/Algorithm/Include/arm_math.h **** 
 401:Components/Algorithm/Include/arm_math.h ****   /**
 402:Components/Algorithm/Include/arm_math.h ****    * @brief 64-bit floating-point type definition.
 403:Components/Algorithm/Include/arm_math.h ****    */
 404:Components/Algorithm/Include/arm_math.h ****   typedef double float64_t;
 405:Components/Algorithm/Include/arm_math.h **** 
 406:Components/Algorithm/Include/arm_math.h ****   /**
 407:Components/Algorithm/Include/arm_math.h ****    * @brief definition to read/write two 16 bit values.
 408:Components/Algorithm/Include/arm_math.h ****    */
 409:Components/Algorithm/Include/arm_math.h **** #if defined __CC_ARM
 410:Components/Algorithm/Include/arm_math.h ****   #define __SIMD32_TYPE int32_t __packed
 411:Components/Algorithm/Include/arm_math.h ****   #define CMSIS_UNUSED __attribute__((unused))
 412:Components/Algorithm/Include/arm_math.h **** #elif defined __ICCARM__
 413:Components/Algorithm/Include/arm_math.h ****   #define __SIMD32_TYPE int32_t __packed
 414:Components/Algorithm/Include/arm_math.h ****   #define CMSIS_UNUSED
 415:Components/Algorithm/Include/arm_math.h **** #elif defined __GNUC__
 416:Components/Algorithm/Include/arm_math.h ****   #define __SIMD32_TYPE int32_t
 417:Components/Algorithm/Include/arm_math.h ****   #define CMSIS_UNUSED __attribute__((unused))
 418:Components/Algorithm/Include/arm_math.h **** #elif defined __CSMC__			/* Cosmic */
 419:Components/Algorithm/Include/arm_math.h ****   #define __SIMD32_TYPE int32_t
 420:Components/Algorithm/Include/arm_math.h ****   #define CMSIS_UNUSED
 421:Components/Algorithm/Include/arm_math.h **** #elif defined __TASKING__
 422:Components/Algorithm/Include/arm_math.h ****   #define __SIMD32_TYPE __unaligned int32_t
 423:Components/Algorithm/Include/arm_math.h ****   #define CMSIS_UNUSED
 424:Components/Algorithm/Include/arm_math.h **** #else
 425:Components/Algorithm/Include/arm_math.h ****   #error Unknown compiler
 426:Components/Algorithm/Include/arm_math.h **** #endif
 427:Components/Algorithm/Include/arm_math.h **** 
 428:Components/Algorithm/Include/arm_math.h **** #define __SIMD32(addr)  (*(__SIMD32_TYPE **) & (addr))
 429:Components/Algorithm/Include/arm_math.h **** #define __SIMD32_CONST(addr)  ((__SIMD32_TYPE *)(addr))
 430:Components/Algorithm/Include/arm_math.h **** 
 431:Components/Algorithm/Include/arm_math.h **** #define _SIMD32_OFFSET(addr)  (*(__SIMD32_TYPE *)  (addr))
 432:Components/Algorithm/Include/arm_math.h **** 
 433:Components/Algorithm/Include/arm_math.h **** #define __SIMD64(addr)  (*(int64_t **) & (addr))
 434:Components/Algorithm/Include/arm_math.h **** 
 435:Components/Algorithm/Include/arm_math.h **** #if defined (ARM_MATH_CM3) || defined (ARM_MATH_CM0_FAMILY)
 436:Components/Algorithm/Include/arm_math.h ****   /**
 437:Components/Algorithm/Include/arm_math.h ****    * @brief definition to pack two 16 bit values.
 438:Components/Algorithm/Include/arm_math.h ****    */
 439:Components/Algorithm/Include/arm_math.h **** #define __PKHBT(ARG1, ARG2, ARG3)      ( (((int32_t)(ARG1) <<  0) & (int32_t)0x0000FFFF) | \
 440:Components/Algorithm/Include/arm_math.h ****                                          (((int32_t)(ARG2) << ARG3) & (int32_t)0xFFFF0000)  )
 441:Components/Algorithm/Include/arm_math.h **** #define __PKHTB(ARG1, ARG2, ARG3)      ( (((int32_t)(ARG1) <<  0) & (int32_t)0xFFFF0000) | \
 442:Components/Algorithm/Include/arm_math.h ****                                          (((int32_t)(ARG2) >> ARG3) & (int32_t)0x0000FFFF)  )
 443:Components/Algorithm/Include/arm_math.h **** 
 444:Components/Algorithm/Include/arm_math.h **** #endif
 445:Components/Algorithm/Include/arm_math.h **** 
 446:Components/Algorithm/Include/arm_math.h **** 
 447:Components/Algorithm/Include/arm_math.h ****    /**
 448:Components/Algorithm/Include/arm_math.h ****    * @brief definition to pack four 8 bit values.
 449:Components/Algorithm/Include/arm_math.h ****    */
ARM GAS  C:\Users\86152\AppData\Local\Temp\ccWGVtEI.s 			page 93


 450:Components/Algorithm/Include/arm_math.h **** #ifndef ARM_MATH_BIG_ENDIAN
 451:Components/Algorithm/Include/arm_math.h **** 
 452:Components/Algorithm/Include/arm_math.h **** #define __PACKq7(v0,v1,v2,v3) ( (((int32_t)(v0) <<  0) & (int32_t)0x000000FF) |	\
 453:Components/Algorithm/Include/arm_math.h ****                                 (((int32_t)(v1) <<  8) & (int32_t)0x0000FF00) |	\
 454:Components/Algorithm/Include/arm_math.h **** 							    (((int32_t)(v2) << 16) & (int32_t)0x00FF0000) |	\
 455:Components/Algorithm/Include/arm_math.h **** 							    (((int32_t)(v3) << 24) & (int32_t)0xFF000000)  )
 456:Components/Algorithm/Include/arm_math.h **** #else
 457:Components/Algorithm/Include/arm_math.h **** 
 458:Components/Algorithm/Include/arm_math.h **** #define __PACKq7(v0,v1,v2,v3) ( (((int32_t)(v3) <<  0) & (int32_t)0x000000FF) |	\
 459:Components/Algorithm/Include/arm_math.h ****                                 (((int32_t)(v2) <<  8) & (int32_t)0x0000FF00) |	\
 460:Components/Algorithm/Include/arm_math.h **** 							    (((int32_t)(v1) << 16) & (int32_t)0x00FF0000) |	\
 461:Components/Algorithm/Include/arm_math.h **** 							    (((int32_t)(v0) << 24) & (int32_t)0xFF000000)  )
 462:Components/Algorithm/Include/arm_math.h **** 
 463:Components/Algorithm/Include/arm_math.h **** #endif
 464:Components/Algorithm/Include/arm_math.h **** 
 465:Components/Algorithm/Include/arm_math.h **** 
 466:Components/Algorithm/Include/arm_math.h ****   /**
 467:Components/Algorithm/Include/arm_math.h ****    * @brief Clips Q63 to Q31 values.
 468:Components/Algorithm/Include/arm_math.h ****    */
 469:Components/Algorithm/Include/arm_math.h ****   static __INLINE q31_t clip_q63_to_q31(
 470:Components/Algorithm/Include/arm_math.h ****   q63_t x)
 471:Components/Algorithm/Include/arm_math.h ****   {
 472:Components/Algorithm/Include/arm_math.h ****     return ((q31_t) (x >> 32) != ((q31_t) x >> 31)) ?
 473:Components/Algorithm/Include/arm_math.h ****       ((0x7FFFFFFF ^ ((q31_t) (x >> 63)))) : (q31_t) x;
 474:Components/Algorithm/Include/arm_math.h ****   }
 475:Components/Algorithm/Include/arm_math.h **** 
 476:Components/Algorithm/Include/arm_math.h ****   /**
 477:Components/Algorithm/Include/arm_math.h ****    * @brief Clips Q63 to Q15 values.
 478:Components/Algorithm/Include/arm_math.h ****    */
 479:Components/Algorithm/Include/arm_math.h ****   static __INLINE q15_t clip_q63_to_q15(
 480:Components/Algorithm/Include/arm_math.h ****   q63_t x)
 481:Components/Algorithm/Include/arm_math.h ****   {
 482:Components/Algorithm/Include/arm_math.h ****     return ((q31_t) (x >> 32) != ((q31_t) x >> 31)) ?
 483:Components/Algorithm/Include/arm_math.h ****       ((0x7FFF ^ ((q15_t) (x >> 63)))) : (q15_t) (x >> 15);
 484:Components/Algorithm/Include/arm_math.h ****   }
 485:Components/Algorithm/Include/arm_math.h **** 
 486:Components/Algorithm/Include/arm_math.h ****   /**
 487:Components/Algorithm/Include/arm_math.h ****    * @brief Clips Q31 to Q7 values.
 488:Components/Algorithm/Include/arm_math.h ****    */
 489:Components/Algorithm/Include/arm_math.h ****   static __INLINE q7_t clip_q31_to_q7(
 490:Components/Algorithm/Include/arm_math.h ****   q31_t x)
 491:Components/Algorithm/Include/arm_math.h ****   {
 492:Components/Algorithm/Include/arm_math.h ****     return ((q31_t) (x >> 24) != ((q31_t) x >> 23)) ?
 493:Components/Algorithm/Include/arm_math.h ****       ((0x7F ^ ((q7_t) (x >> 31)))) : (q7_t) x;
 494:Components/Algorithm/Include/arm_math.h ****   }
 495:Components/Algorithm/Include/arm_math.h **** 
 496:Components/Algorithm/Include/arm_math.h ****   /**
 497:Components/Algorithm/Include/arm_math.h ****    * @brief Clips Q31 to Q15 values.
 498:Components/Algorithm/Include/arm_math.h ****    */
 499:Components/Algorithm/Include/arm_math.h ****   static __INLINE q15_t clip_q31_to_q15(
 500:Components/Algorithm/Include/arm_math.h ****   q31_t x)
 501:Components/Algorithm/Include/arm_math.h ****   {
 502:Components/Algorithm/Include/arm_math.h ****     return ((q31_t) (x >> 16) != ((q31_t) x >> 15)) ?
 503:Components/Algorithm/Include/arm_math.h ****       ((0x7FFF ^ ((q15_t) (x >> 31)))) : (q15_t) x;
 504:Components/Algorithm/Include/arm_math.h ****   }
 505:Components/Algorithm/Include/arm_math.h **** 
 506:Components/Algorithm/Include/arm_math.h ****   /**
ARM GAS  C:\Users\86152\AppData\Local\Temp\ccWGVtEI.s 			page 94


 507:Components/Algorithm/Include/arm_math.h ****    * @brief Multiplies 32 X 64 and returns 32 bit result in 2.30 format.
 508:Components/Algorithm/Include/arm_math.h ****    */
 509:Components/Algorithm/Include/arm_math.h **** 
 510:Components/Algorithm/Include/arm_math.h ****   static __INLINE q63_t mult32x64(
 511:Components/Algorithm/Include/arm_math.h ****   q63_t x,
 512:Components/Algorithm/Include/arm_math.h ****   q31_t y)
 513:Components/Algorithm/Include/arm_math.h ****   {
 514:Components/Algorithm/Include/arm_math.h ****     return ((((q63_t) (x & 0x00000000FFFFFFFF) * y) >> 32) +
 515:Components/Algorithm/Include/arm_math.h ****             (((q63_t) (x >> 32) * y)));
 516:Components/Algorithm/Include/arm_math.h ****   }
 517:Components/Algorithm/Include/arm_math.h **** 
 518:Components/Algorithm/Include/arm_math.h **** 
 519:Components/Algorithm/Include/arm_math.h **** //#if defined (ARM_MATH_CM0_FAMILY) && defined ( __CC_ARM   )
 520:Components/Algorithm/Include/arm_math.h **** //#define __CLZ __clz
 521:Components/Algorithm/Include/arm_math.h **** //#endif
 522:Components/Algorithm/Include/arm_math.h **** 
 523:Components/Algorithm/Include/arm_math.h **** //note: function can be removed when all toolchain support __CLZ for Cortex-M0
 524:Components/Algorithm/Include/arm_math.h **** #if defined (ARM_MATH_CM0_FAMILY) && ((defined (__ICCARM__))  )
 525:Components/Algorithm/Include/arm_math.h **** 
 526:Components/Algorithm/Include/arm_math.h ****   static __INLINE uint32_t __CLZ(
 527:Components/Algorithm/Include/arm_math.h ****   q31_t data);
 528:Components/Algorithm/Include/arm_math.h **** 
 529:Components/Algorithm/Include/arm_math.h **** 
 530:Components/Algorithm/Include/arm_math.h ****   static __INLINE uint32_t __CLZ(
 531:Components/Algorithm/Include/arm_math.h ****   q31_t data)
 532:Components/Algorithm/Include/arm_math.h ****   {
 533:Components/Algorithm/Include/arm_math.h ****     uint32_t count = 0;
 534:Components/Algorithm/Include/arm_math.h ****     uint32_t mask = 0x80000000;
 535:Components/Algorithm/Include/arm_math.h **** 
 536:Components/Algorithm/Include/arm_math.h ****     while((data & mask) == 0)
 537:Components/Algorithm/Include/arm_math.h ****     {
 538:Components/Algorithm/Include/arm_math.h ****       count += 1u;
 539:Components/Algorithm/Include/arm_math.h ****       mask = mask >> 1u;
 540:Components/Algorithm/Include/arm_math.h ****     }
 541:Components/Algorithm/Include/arm_math.h **** 
 542:Components/Algorithm/Include/arm_math.h ****     return (count);
 543:Components/Algorithm/Include/arm_math.h **** 
 544:Components/Algorithm/Include/arm_math.h ****   }
 545:Components/Algorithm/Include/arm_math.h **** 
 546:Components/Algorithm/Include/arm_math.h **** #endif
 547:Components/Algorithm/Include/arm_math.h **** 
 548:Components/Algorithm/Include/arm_math.h ****   /**
 549:Components/Algorithm/Include/arm_math.h ****    * @brief Function to Calculates 1/in (reciprocal) value of Q31 Data type.
 550:Components/Algorithm/Include/arm_math.h ****    */
 551:Components/Algorithm/Include/arm_math.h **** 
 552:Components/Algorithm/Include/arm_math.h ****   static __INLINE uint32_t arm_recip_q31(
 553:Components/Algorithm/Include/arm_math.h ****   q31_t in,
 554:Components/Algorithm/Include/arm_math.h ****   q31_t * dst,
 555:Components/Algorithm/Include/arm_math.h ****   q31_t * pRecipTable)
 556:Components/Algorithm/Include/arm_math.h ****   {
 557:Components/Algorithm/Include/arm_math.h **** 
 558:Components/Algorithm/Include/arm_math.h ****     uint32_t out, tempVal;
 559:Components/Algorithm/Include/arm_math.h ****     uint32_t index, i;
 560:Components/Algorithm/Include/arm_math.h ****     uint32_t signBits;
 561:Components/Algorithm/Include/arm_math.h **** 
 562:Components/Algorithm/Include/arm_math.h ****     if(in > 0)
 563:Components/Algorithm/Include/arm_math.h ****     {
ARM GAS  C:\Users\86152\AppData\Local\Temp\ccWGVtEI.s 			page 95


 564:Components/Algorithm/Include/arm_math.h ****       signBits = __CLZ(in) - 1;
 565:Components/Algorithm/Include/arm_math.h ****     }
 566:Components/Algorithm/Include/arm_math.h ****     else
 567:Components/Algorithm/Include/arm_math.h ****     {
 568:Components/Algorithm/Include/arm_math.h ****       signBits = __CLZ(-in) - 1;
 569:Components/Algorithm/Include/arm_math.h ****     }
 570:Components/Algorithm/Include/arm_math.h **** 
 571:Components/Algorithm/Include/arm_math.h ****     /* Convert input sample to 1.31 format */
 572:Components/Algorithm/Include/arm_math.h ****     in = in << signBits;
 573:Components/Algorithm/Include/arm_math.h **** 
 574:Components/Algorithm/Include/arm_math.h ****     /* calculation of index for initial approximated Val */
 575:Components/Algorithm/Include/arm_math.h ****     index = (uint32_t) (in >> 24u);
 576:Components/Algorithm/Include/arm_math.h ****     index = (index & INDEX_MASK);
 577:Components/Algorithm/Include/arm_math.h **** 
 578:Components/Algorithm/Include/arm_math.h ****     /* 1.31 with exp 1 */
 579:Components/Algorithm/Include/arm_math.h ****     out = pRecipTable[index];
 580:Components/Algorithm/Include/arm_math.h **** 
 581:Components/Algorithm/Include/arm_math.h ****     /* calculation of reciprocal value */
 582:Components/Algorithm/Include/arm_math.h ****     /* running approximation for two iterations */
 583:Components/Algorithm/Include/arm_math.h ****     for (i = 0u; i < 2u; i++)
 584:Components/Algorithm/Include/arm_math.h ****     {
 585:Components/Algorithm/Include/arm_math.h ****       tempVal = (q31_t) (((q63_t) in * out) >> 31u);
 586:Components/Algorithm/Include/arm_math.h ****       tempVal = 0x7FFFFFFF - tempVal;
 587:Components/Algorithm/Include/arm_math.h ****       /*      1.31 with exp 1 */
 588:Components/Algorithm/Include/arm_math.h ****       //out = (q31_t) (((q63_t) out * tempVal) >> 30u);
 589:Components/Algorithm/Include/arm_math.h ****       out = (q31_t) clip_q63_to_q31(((q63_t) out * tempVal) >> 30u);
 590:Components/Algorithm/Include/arm_math.h ****     }
 591:Components/Algorithm/Include/arm_math.h **** 
 592:Components/Algorithm/Include/arm_math.h ****     /* write output */
 593:Components/Algorithm/Include/arm_math.h ****     *dst = out;
 594:Components/Algorithm/Include/arm_math.h **** 
 595:Components/Algorithm/Include/arm_math.h ****     /* return num of signbits of out = 1/in value */
 596:Components/Algorithm/Include/arm_math.h ****     return (signBits + 1u);
 597:Components/Algorithm/Include/arm_math.h **** 
 598:Components/Algorithm/Include/arm_math.h ****   }
 599:Components/Algorithm/Include/arm_math.h **** 
 600:Components/Algorithm/Include/arm_math.h ****   /**
 601:Components/Algorithm/Include/arm_math.h ****    * @brief Function to Calculates 1/in (reciprocal) value of Q15 Data type.
 602:Components/Algorithm/Include/arm_math.h ****    */
 603:Components/Algorithm/Include/arm_math.h ****   static __INLINE uint32_t arm_recip_q15(
 604:Components/Algorithm/Include/arm_math.h ****   q15_t in,
 605:Components/Algorithm/Include/arm_math.h ****   q15_t * dst,
 606:Components/Algorithm/Include/arm_math.h ****   q15_t * pRecipTable)
 607:Components/Algorithm/Include/arm_math.h ****   {
 608:Components/Algorithm/Include/arm_math.h **** 
 609:Components/Algorithm/Include/arm_math.h ****     uint32_t out = 0, tempVal = 0;
 610:Components/Algorithm/Include/arm_math.h ****     uint32_t index = 0, i = 0;
 611:Components/Algorithm/Include/arm_math.h ****     uint32_t signBits = 0;
 612:Components/Algorithm/Include/arm_math.h **** 
 613:Components/Algorithm/Include/arm_math.h ****     if(in > 0)
 614:Components/Algorithm/Include/arm_math.h ****     {
 615:Components/Algorithm/Include/arm_math.h ****       signBits = __CLZ(in) - 17;
 616:Components/Algorithm/Include/arm_math.h ****     }
 617:Components/Algorithm/Include/arm_math.h ****     else
 618:Components/Algorithm/Include/arm_math.h ****     {
 619:Components/Algorithm/Include/arm_math.h ****       signBits = __CLZ(-in) - 17;
 620:Components/Algorithm/Include/arm_math.h ****     }
ARM GAS  C:\Users\86152\AppData\Local\Temp\ccWGVtEI.s 			page 96


 621:Components/Algorithm/Include/arm_math.h **** 
 622:Components/Algorithm/Include/arm_math.h ****     /* Convert input sample to 1.15 format */
 623:Components/Algorithm/Include/arm_math.h ****     in = in << signBits;
 624:Components/Algorithm/Include/arm_math.h **** 
 625:Components/Algorithm/Include/arm_math.h ****     /* calculation of index for initial approximated Val */
 626:Components/Algorithm/Include/arm_math.h ****     index = in >> 8;
 627:Components/Algorithm/Include/arm_math.h ****     index = (index & INDEX_MASK);
 628:Components/Algorithm/Include/arm_math.h **** 
 629:Components/Algorithm/Include/arm_math.h ****     /*      1.15 with exp 1  */
 630:Components/Algorithm/Include/arm_math.h ****     out = pRecipTable[index];
 631:Components/Algorithm/Include/arm_math.h **** 
 632:Components/Algorithm/Include/arm_math.h ****     /* calculation of reciprocal value */
 633:Components/Algorithm/Include/arm_math.h ****     /* running approximation for two iterations */
 634:Components/Algorithm/Include/arm_math.h ****     for (i = 0; i < 2; i++)
 635:Components/Algorithm/Include/arm_math.h ****     {
 636:Components/Algorithm/Include/arm_math.h ****       tempVal = (q15_t) (((q31_t) in * out) >> 15);
 637:Components/Algorithm/Include/arm_math.h ****       tempVal = 0x7FFF - tempVal;
 638:Components/Algorithm/Include/arm_math.h ****       /*      1.15 with exp 1 */
 639:Components/Algorithm/Include/arm_math.h ****       out = (q15_t) (((q31_t) out * tempVal) >> 14);
 640:Components/Algorithm/Include/arm_math.h ****     }
 641:Components/Algorithm/Include/arm_math.h **** 
 642:Components/Algorithm/Include/arm_math.h ****     /* write output */
 643:Components/Algorithm/Include/arm_math.h ****     *dst = out;
 644:Components/Algorithm/Include/arm_math.h **** 
 645:Components/Algorithm/Include/arm_math.h ****     /* return num of signbits of out = 1/in value */
 646:Components/Algorithm/Include/arm_math.h ****     return (signBits + 1);
 647:Components/Algorithm/Include/arm_math.h **** 
 648:Components/Algorithm/Include/arm_math.h ****   }
 649:Components/Algorithm/Include/arm_math.h **** 
 650:Components/Algorithm/Include/arm_math.h **** 
 651:Components/Algorithm/Include/arm_math.h ****   /*
 652:Components/Algorithm/Include/arm_math.h ****    * @brief C custom defined intrinisic function for only M0 processors
 653:Components/Algorithm/Include/arm_math.h ****    */
 654:Components/Algorithm/Include/arm_math.h **** #if defined(ARM_MATH_CM0_FAMILY)
 655:Components/Algorithm/Include/arm_math.h **** 
 656:Components/Algorithm/Include/arm_math.h ****   static __INLINE q31_t __SSAT(
 657:Components/Algorithm/Include/arm_math.h ****   q31_t x,
 658:Components/Algorithm/Include/arm_math.h ****   uint32_t y)
 659:Components/Algorithm/Include/arm_math.h ****   {
 660:Components/Algorithm/Include/arm_math.h ****     int32_t posMax, negMin;
 661:Components/Algorithm/Include/arm_math.h ****     uint32_t i;
 662:Components/Algorithm/Include/arm_math.h **** 
 663:Components/Algorithm/Include/arm_math.h ****     posMax = 1;
 664:Components/Algorithm/Include/arm_math.h ****     for (i = 0; i < (y - 1); i++)
 665:Components/Algorithm/Include/arm_math.h ****     {
 666:Components/Algorithm/Include/arm_math.h ****       posMax = posMax * 2;
 667:Components/Algorithm/Include/arm_math.h ****     }
 668:Components/Algorithm/Include/arm_math.h **** 
 669:Components/Algorithm/Include/arm_math.h ****     if(x > 0)
 670:Components/Algorithm/Include/arm_math.h ****     {
 671:Components/Algorithm/Include/arm_math.h ****       posMax = (posMax - 1);
 672:Components/Algorithm/Include/arm_math.h **** 
 673:Components/Algorithm/Include/arm_math.h ****       if(x > posMax)
 674:Components/Algorithm/Include/arm_math.h ****       {
 675:Components/Algorithm/Include/arm_math.h ****         x = posMax;
 676:Components/Algorithm/Include/arm_math.h ****       }
 677:Components/Algorithm/Include/arm_math.h ****     }
ARM GAS  C:\Users\86152\AppData\Local\Temp\ccWGVtEI.s 			page 97


 678:Components/Algorithm/Include/arm_math.h ****     else
 679:Components/Algorithm/Include/arm_math.h ****     {
 680:Components/Algorithm/Include/arm_math.h ****       negMin = -posMax;
 681:Components/Algorithm/Include/arm_math.h **** 
 682:Components/Algorithm/Include/arm_math.h ****       if(x < negMin)
 683:Components/Algorithm/Include/arm_math.h ****       {
 684:Components/Algorithm/Include/arm_math.h ****         x = negMin;
 685:Components/Algorithm/Include/arm_math.h ****       }
 686:Components/Algorithm/Include/arm_math.h ****     }
 687:Components/Algorithm/Include/arm_math.h ****     return (x);
 688:Components/Algorithm/Include/arm_math.h **** 
 689:Components/Algorithm/Include/arm_math.h **** 
 690:Components/Algorithm/Include/arm_math.h ****   }
 691:Components/Algorithm/Include/arm_math.h **** 
 692:Components/Algorithm/Include/arm_math.h **** #endif /* end of ARM_MATH_CM0_FAMILY */
 693:Components/Algorithm/Include/arm_math.h **** 
 694:Components/Algorithm/Include/arm_math.h **** 
 695:Components/Algorithm/Include/arm_math.h **** 
 696:Components/Algorithm/Include/arm_math.h ****   /*
 697:Components/Algorithm/Include/arm_math.h ****    * @brief C custom defined intrinsic function for M3 and M0 processors
 698:Components/Algorithm/Include/arm_math.h ****    */
 699:Components/Algorithm/Include/arm_math.h **** #if defined (ARM_MATH_CM3) || defined (ARM_MATH_CM0_FAMILY)
 700:Components/Algorithm/Include/arm_math.h **** 
 701:Components/Algorithm/Include/arm_math.h ****   /*
 702:Components/Algorithm/Include/arm_math.h ****    * @brief C custom defined QADD8 for M3 and M0 processors
 703:Components/Algorithm/Include/arm_math.h ****    */
 704:Components/Algorithm/Include/arm_math.h ****   static __INLINE q31_t __QADD8(
 705:Components/Algorithm/Include/arm_math.h ****   q31_t x,
 706:Components/Algorithm/Include/arm_math.h ****   q31_t y)
 707:Components/Algorithm/Include/arm_math.h ****   {
 708:Components/Algorithm/Include/arm_math.h **** 
 709:Components/Algorithm/Include/arm_math.h ****     q31_t sum;
 710:Components/Algorithm/Include/arm_math.h ****     q7_t r, s, t, u;
 711:Components/Algorithm/Include/arm_math.h **** 
 712:Components/Algorithm/Include/arm_math.h ****     r = (q7_t) x;
 713:Components/Algorithm/Include/arm_math.h ****     s = (q7_t) y;
 714:Components/Algorithm/Include/arm_math.h **** 
 715:Components/Algorithm/Include/arm_math.h ****     r = __SSAT((q31_t) (r + s), 8);
 716:Components/Algorithm/Include/arm_math.h ****     s = __SSAT(((q31_t) (((x << 16) >> 24) + ((y << 16) >> 24))), 8);
 717:Components/Algorithm/Include/arm_math.h ****     t = __SSAT(((q31_t) (((x << 8) >> 24) + ((y << 8) >> 24))), 8);
 718:Components/Algorithm/Include/arm_math.h ****     u = __SSAT(((q31_t) ((x >> 24) + (y >> 24))), 8);
 719:Components/Algorithm/Include/arm_math.h **** 
 720:Components/Algorithm/Include/arm_math.h ****     sum =
 721:Components/Algorithm/Include/arm_math.h ****       (((q31_t) u << 24) & 0xFF000000) | (((q31_t) t << 16) & 0x00FF0000) |
 722:Components/Algorithm/Include/arm_math.h ****       (((q31_t) s << 8) & 0x0000FF00) | (r & 0x000000FF);
 723:Components/Algorithm/Include/arm_math.h **** 
 724:Components/Algorithm/Include/arm_math.h ****     return sum;
 725:Components/Algorithm/Include/arm_math.h **** 
 726:Components/Algorithm/Include/arm_math.h ****   }
 727:Components/Algorithm/Include/arm_math.h **** 
 728:Components/Algorithm/Include/arm_math.h ****   /*
 729:Components/Algorithm/Include/arm_math.h ****    * @brief C custom defined QSUB8 for M3 and M0 processors
 730:Components/Algorithm/Include/arm_math.h ****    */
 731:Components/Algorithm/Include/arm_math.h ****   static __INLINE q31_t __QSUB8(
 732:Components/Algorithm/Include/arm_math.h ****   q31_t x,
 733:Components/Algorithm/Include/arm_math.h ****   q31_t y)
 734:Components/Algorithm/Include/arm_math.h ****   {
ARM GAS  C:\Users\86152\AppData\Local\Temp\ccWGVtEI.s 			page 98


 735:Components/Algorithm/Include/arm_math.h **** 
 736:Components/Algorithm/Include/arm_math.h ****     q31_t sum;
 737:Components/Algorithm/Include/arm_math.h ****     q31_t r, s, t, u;
 738:Components/Algorithm/Include/arm_math.h **** 
 739:Components/Algorithm/Include/arm_math.h ****     r = (q7_t) x;
 740:Components/Algorithm/Include/arm_math.h ****     s = (q7_t) y;
 741:Components/Algorithm/Include/arm_math.h **** 
 742:Components/Algorithm/Include/arm_math.h ****     r = __SSAT((r - s), 8);
 743:Components/Algorithm/Include/arm_math.h ****     s = __SSAT(((q31_t) (((x << 16) >> 24) - ((y << 16) >> 24))), 8) << 8;
 744:Components/Algorithm/Include/arm_math.h ****     t = __SSAT(((q31_t) (((x << 8) >> 24) - ((y << 8) >> 24))), 8) << 16;
 745:Components/Algorithm/Include/arm_math.h ****     u = __SSAT(((q31_t) ((x >> 24) - (y >> 24))), 8) << 24;
 746:Components/Algorithm/Include/arm_math.h **** 
 747:Components/Algorithm/Include/arm_math.h ****     sum =
 748:Components/Algorithm/Include/arm_math.h ****       (u & 0xFF000000) | (t & 0x00FF0000) | (s & 0x0000FF00) | (r &
 749:Components/Algorithm/Include/arm_math.h ****                                                                 0x000000FF);
 750:Components/Algorithm/Include/arm_math.h **** 
 751:Components/Algorithm/Include/arm_math.h ****     return sum;
 752:Components/Algorithm/Include/arm_math.h ****   }
 753:Components/Algorithm/Include/arm_math.h **** 
 754:Components/Algorithm/Include/arm_math.h ****   /*
 755:Components/Algorithm/Include/arm_math.h ****    * @brief C custom defined QADD16 for M3 and M0 processors
 756:Components/Algorithm/Include/arm_math.h ****    */
 757:Components/Algorithm/Include/arm_math.h **** 
 758:Components/Algorithm/Include/arm_math.h ****   /*
 759:Components/Algorithm/Include/arm_math.h ****    * @brief C custom defined QADD16 for M3 and M0 processors
 760:Components/Algorithm/Include/arm_math.h ****    */
 761:Components/Algorithm/Include/arm_math.h ****   static __INLINE q31_t __QADD16(
 762:Components/Algorithm/Include/arm_math.h ****   q31_t x,
 763:Components/Algorithm/Include/arm_math.h ****   q31_t y)
 764:Components/Algorithm/Include/arm_math.h ****   {
 765:Components/Algorithm/Include/arm_math.h **** 
 766:Components/Algorithm/Include/arm_math.h ****     q31_t sum;
 767:Components/Algorithm/Include/arm_math.h ****     q31_t r, s;
 768:Components/Algorithm/Include/arm_math.h **** 
 769:Components/Algorithm/Include/arm_math.h ****     r = (q15_t) x;
 770:Components/Algorithm/Include/arm_math.h ****     s = (q15_t) y;
 771:Components/Algorithm/Include/arm_math.h **** 
 772:Components/Algorithm/Include/arm_math.h ****     r = __SSAT(r + s, 16);
 773:Components/Algorithm/Include/arm_math.h ****     s = __SSAT(((q31_t) ((x >> 16) + (y >> 16))), 16) << 16;
 774:Components/Algorithm/Include/arm_math.h **** 
 775:Components/Algorithm/Include/arm_math.h ****     sum = (s & 0xFFFF0000) | (r & 0x0000FFFF);
 776:Components/Algorithm/Include/arm_math.h **** 
 777:Components/Algorithm/Include/arm_math.h ****     return sum;
 778:Components/Algorithm/Include/arm_math.h **** 
 779:Components/Algorithm/Include/arm_math.h ****   }
 780:Components/Algorithm/Include/arm_math.h **** 
 781:Components/Algorithm/Include/arm_math.h ****   /*
 782:Components/Algorithm/Include/arm_math.h ****    * @brief C custom defined SHADD16 for M3 and M0 processors
 783:Components/Algorithm/Include/arm_math.h ****    */
 784:Components/Algorithm/Include/arm_math.h ****   static __INLINE q31_t __SHADD16(
 785:Components/Algorithm/Include/arm_math.h ****   q31_t x,
 786:Components/Algorithm/Include/arm_math.h ****   q31_t y)
 787:Components/Algorithm/Include/arm_math.h ****   {
 788:Components/Algorithm/Include/arm_math.h **** 
 789:Components/Algorithm/Include/arm_math.h ****     q31_t sum;
 790:Components/Algorithm/Include/arm_math.h ****     q31_t r, s;
 791:Components/Algorithm/Include/arm_math.h **** 
ARM GAS  C:\Users\86152\AppData\Local\Temp\ccWGVtEI.s 			page 99


 792:Components/Algorithm/Include/arm_math.h ****     r = (q15_t) x;
 793:Components/Algorithm/Include/arm_math.h ****     s = (q15_t) y;
 794:Components/Algorithm/Include/arm_math.h **** 
 795:Components/Algorithm/Include/arm_math.h ****     r = ((r >> 1) + (s >> 1));
 796:Components/Algorithm/Include/arm_math.h ****     s = ((q31_t) ((x >> 17) + (y >> 17))) << 16;
 797:Components/Algorithm/Include/arm_math.h **** 
 798:Components/Algorithm/Include/arm_math.h ****     sum = (s & 0xFFFF0000) | (r & 0x0000FFFF);
 799:Components/Algorithm/Include/arm_math.h **** 
 800:Components/Algorithm/Include/arm_math.h ****     return sum;
 801:Components/Algorithm/Include/arm_math.h **** 
 802:Components/Algorithm/Include/arm_math.h ****   }
 803:Components/Algorithm/Include/arm_math.h **** 
 804:Components/Algorithm/Include/arm_math.h ****   /*
 805:Components/Algorithm/Include/arm_math.h ****    * @brief C custom defined QSUB16 for M3 and M0 processors
 806:Components/Algorithm/Include/arm_math.h ****    */
 807:Components/Algorithm/Include/arm_math.h ****   static __INLINE q31_t __QSUB16(
 808:Components/Algorithm/Include/arm_math.h ****   q31_t x,
 809:Components/Algorithm/Include/arm_math.h ****   q31_t y)
 810:Components/Algorithm/Include/arm_math.h ****   {
 811:Components/Algorithm/Include/arm_math.h **** 
 812:Components/Algorithm/Include/arm_math.h ****     q31_t sum;
 813:Components/Algorithm/Include/arm_math.h ****     q31_t r, s;
 814:Components/Algorithm/Include/arm_math.h **** 
 815:Components/Algorithm/Include/arm_math.h ****     r = (q15_t) x;
 816:Components/Algorithm/Include/arm_math.h ****     s = (q15_t) y;
 817:Components/Algorithm/Include/arm_math.h **** 
 818:Components/Algorithm/Include/arm_math.h ****     r = __SSAT(r - s, 16);
 819:Components/Algorithm/Include/arm_math.h ****     s = __SSAT(((q31_t) ((x >> 16) - (y >> 16))), 16) << 16;
 820:Components/Algorithm/Include/arm_math.h **** 
 821:Components/Algorithm/Include/arm_math.h ****     sum = (s & 0xFFFF0000) | (r & 0x0000FFFF);
 822:Components/Algorithm/Include/arm_math.h **** 
 823:Components/Algorithm/Include/arm_math.h ****     return sum;
 824:Components/Algorithm/Include/arm_math.h ****   }
 825:Components/Algorithm/Include/arm_math.h **** 
 826:Components/Algorithm/Include/arm_math.h ****   /*
 827:Components/Algorithm/Include/arm_math.h ****    * @brief C custom defined SHSUB16 for M3 and M0 processors
 828:Components/Algorithm/Include/arm_math.h ****    */
 829:Components/Algorithm/Include/arm_math.h ****   static __INLINE q31_t __SHSUB16(
 830:Components/Algorithm/Include/arm_math.h ****   q31_t x,
 831:Components/Algorithm/Include/arm_math.h ****   q31_t y)
 832:Components/Algorithm/Include/arm_math.h ****   {
 833:Components/Algorithm/Include/arm_math.h **** 
 834:Components/Algorithm/Include/arm_math.h ****     q31_t diff;
 835:Components/Algorithm/Include/arm_math.h ****     q31_t r, s;
 836:Components/Algorithm/Include/arm_math.h **** 
 837:Components/Algorithm/Include/arm_math.h ****     r = (q15_t) x;
 838:Components/Algorithm/Include/arm_math.h ****     s = (q15_t) y;
 839:Components/Algorithm/Include/arm_math.h **** 
 840:Components/Algorithm/Include/arm_math.h ****     r = ((r >> 1) - (s >> 1));
 841:Components/Algorithm/Include/arm_math.h ****     s = (((x >> 17) - (y >> 17)) << 16);
 842:Components/Algorithm/Include/arm_math.h **** 
 843:Components/Algorithm/Include/arm_math.h ****     diff = (s & 0xFFFF0000) | (r & 0x0000FFFF);
 844:Components/Algorithm/Include/arm_math.h **** 
 845:Components/Algorithm/Include/arm_math.h ****     return diff;
 846:Components/Algorithm/Include/arm_math.h ****   }
 847:Components/Algorithm/Include/arm_math.h **** 
 848:Components/Algorithm/Include/arm_math.h ****   /*
ARM GAS  C:\Users\86152\AppData\Local\Temp\ccWGVtEI.s 			page 100


 849:Components/Algorithm/Include/arm_math.h ****    * @brief C custom defined QASX for M3 and M0 processors
 850:Components/Algorithm/Include/arm_math.h ****    */
 851:Components/Algorithm/Include/arm_math.h ****   static __INLINE q31_t __QASX(
 852:Components/Algorithm/Include/arm_math.h ****   q31_t x,
 853:Components/Algorithm/Include/arm_math.h ****   q31_t y)
 854:Components/Algorithm/Include/arm_math.h ****   {
 855:Components/Algorithm/Include/arm_math.h **** 
 856:Components/Algorithm/Include/arm_math.h ****     q31_t sum = 0;
 857:Components/Algorithm/Include/arm_math.h **** 
 858:Components/Algorithm/Include/arm_math.h ****     sum =
 859:Components/Algorithm/Include/arm_math.h ****       ((sum +
 860:Components/Algorithm/Include/arm_math.h ****         clip_q31_to_q15((q31_t) ((q15_t) (x >> 16) + (q15_t) y))) << 16) +
 861:Components/Algorithm/Include/arm_math.h ****       clip_q31_to_q15((q31_t) ((q15_t) x - (q15_t) (y >> 16)));
 862:Components/Algorithm/Include/arm_math.h **** 
 863:Components/Algorithm/Include/arm_math.h ****     return sum;
 864:Components/Algorithm/Include/arm_math.h ****   }
 865:Components/Algorithm/Include/arm_math.h **** 
 866:Components/Algorithm/Include/arm_math.h ****   /*
 867:Components/Algorithm/Include/arm_math.h ****    * @brief C custom defined SHASX for M3 and M0 processors
 868:Components/Algorithm/Include/arm_math.h ****    */
 869:Components/Algorithm/Include/arm_math.h ****   static __INLINE q31_t __SHASX(
 870:Components/Algorithm/Include/arm_math.h ****   q31_t x,
 871:Components/Algorithm/Include/arm_math.h ****   q31_t y)
 872:Components/Algorithm/Include/arm_math.h ****   {
 873:Components/Algorithm/Include/arm_math.h **** 
 874:Components/Algorithm/Include/arm_math.h ****     q31_t sum;
 875:Components/Algorithm/Include/arm_math.h ****     q31_t r, s;
 876:Components/Algorithm/Include/arm_math.h **** 
 877:Components/Algorithm/Include/arm_math.h ****     r = (q15_t) x;
 878:Components/Algorithm/Include/arm_math.h ****     s = (q15_t) y;
 879:Components/Algorithm/Include/arm_math.h **** 
 880:Components/Algorithm/Include/arm_math.h ****     r = ((r >> 1) - (y >> 17));
 881:Components/Algorithm/Include/arm_math.h ****     s = (((x >> 17) + (s >> 1)) << 16);
 882:Components/Algorithm/Include/arm_math.h **** 
 883:Components/Algorithm/Include/arm_math.h ****     sum = (s & 0xFFFF0000) | (r & 0x0000FFFF);
 884:Components/Algorithm/Include/arm_math.h **** 
 885:Components/Algorithm/Include/arm_math.h ****     return sum;
 886:Components/Algorithm/Include/arm_math.h ****   }
 887:Components/Algorithm/Include/arm_math.h **** 
 888:Components/Algorithm/Include/arm_math.h **** 
 889:Components/Algorithm/Include/arm_math.h ****   /*
 890:Components/Algorithm/Include/arm_math.h ****    * @brief C custom defined QSAX for M3 and M0 processors
 891:Components/Algorithm/Include/arm_math.h ****    */
 892:Components/Algorithm/Include/arm_math.h ****   static __INLINE q31_t __QSAX(
 893:Components/Algorithm/Include/arm_math.h ****   q31_t x,
 894:Components/Algorithm/Include/arm_math.h ****   q31_t y)
 895:Components/Algorithm/Include/arm_math.h ****   {
 896:Components/Algorithm/Include/arm_math.h **** 
 897:Components/Algorithm/Include/arm_math.h ****     q31_t sum = 0;
 898:Components/Algorithm/Include/arm_math.h **** 
 899:Components/Algorithm/Include/arm_math.h ****     sum =
 900:Components/Algorithm/Include/arm_math.h ****       ((sum +
 901:Components/Algorithm/Include/arm_math.h ****         clip_q31_to_q15((q31_t) ((q15_t) (x >> 16) - (q15_t) y))) << 16) +
 902:Components/Algorithm/Include/arm_math.h ****       clip_q31_to_q15((q31_t) ((q15_t) x + (q15_t) (y >> 16)));
 903:Components/Algorithm/Include/arm_math.h **** 
 904:Components/Algorithm/Include/arm_math.h ****     return sum;
 905:Components/Algorithm/Include/arm_math.h ****   }
ARM GAS  C:\Users\86152\AppData\Local\Temp\ccWGVtEI.s 			page 101


 906:Components/Algorithm/Include/arm_math.h **** 
 907:Components/Algorithm/Include/arm_math.h ****   /*
 908:Components/Algorithm/Include/arm_math.h ****    * @brief C custom defined SHSAX for M3 and M0 processors
 909:Components/Algorithm/Include/arm_math.h ****    */
 910:Components/Algorithm/Include/arm_math.h ****   static __INLINE q31_t __SHSAX(
 911:Components/Algorithm/Include/arm_math.h ****   q31_t x,
 912:Components/Algorithm/Include/arm_math.h ****   q31_t y)
 913:Components/Algorithm/Include/arm_math.h ****   {
 914:Components/Algorithm/Include/arm_math.h **** 
 915:Components/Algorithm/Include/arm_math.h ****     q31_t sum;
 916:Components/Algorithm/Include/arm_math.h ****     q31_t r, s;
 917:Components/Algorithm/Include/arm_math.h **** 
 918:Components/Algorithm/Include/arm_math.h ****     r = (q15_t) x;
 919:Components/Algorithm/Include/arm_math.h ****     s = (q15_t) y;
 920:Components/Algorithm/Include/arm_math.h **** 
 921:Components/Algorithm/Include/arm_math.h ****     r = ((r >> 1) + (y >> 17));
 922:Components/Algorithm/Include/arm_math.h ****     s = (((x >> 17) - (s >> 1)) << 16);
 923:Components/Algorithm/Include/arm_math.h **** 
 924:Components/Algorithm/Include/arm_math.h ****     sum = (s & 0xFFFF0000) | (r & 0x0000FFFF);
 925:Components/Algorithm/Include/arm_math.h **** 
 926:Components/Algorithm/Include/arm_math.h ****     return sum;
 927:Components/Algorithm/Include/arm_math.h ****   }
 928:Components/Algorithm/Include/arm_math.h **** 
 929:Components/Algorithm/Include/arm_math.h ****   /*
 930:Components/Algorithm/Include/arm_math.h ****    * @brief C custom defined SMUSDX for M3 and M0 processors
 931:Components/Algorithm/Include/arm_math.h ****    */
 932:Components/Algorithm/Include/arm_math.h ****   static __INLINE q31_t __SMUSDX(
 933:Components/Algorithm/Include/arm_math.h ****   q31_t x,
 934:Components/Algorithm/Include/arm_math.h ****   q31_t y)
 935:Components/Algorithm/Include/arm_math.h ****   {
 936:Components/Algorithm/Include/arm_math.h **** 
 937:Components/Algorithm/Include/arm_math.h ****     return ((q31_t) (((q15_t) x * (q15_t) (y >> 16)) -
 938:Components/Algorithm/Include/arm_math.h ****                      ((q15_t) (x >> 16) * (q15_t) y)));
 939:Components/Algorithm/Include/arm_math.h ****   }
 940:Components/Algorithm/Include/arm_math.h **** 
 941:Components/Algorithm/Include/arm_math.h ****   /*
 942:Components/Algorithm/Include/arm_math.h ****    * @brief C custom defined SMUADX for M3 and M0 processors
 943:Components/Algorithm/Include/arm_math.h ****    */
 944:Components/Algorithm/Include/arm_math.h ****   static __INLINE q31_t __SMUADX(
 945:Components/Algorithm/Include/arm_math.h ****   q31_t x,
 946:Components/Algorithm/Include/arm_math.h ****   q31_t y)
 947:Components/Algorithm/Include/arm_math.h ****   {
 948:Components/Algorithm/Include/arm_math.h **** 
 949:Components/Algorithm/Include/arm_math.h ****     return ((q31_t) (((q15_t) x * (q15_t) (y >> 16)) +
 950:Components/Algorithm/Include/arm_math.h ****                      ((q15_t) (x >> 16) * (q15_t) y)));
 951:Components/Algorithm/Include/arm_math.h ****   }
 952:Components/Algorithm/Include/arm_math.h **** 
 953:Components/Algorithm/Include/arm_math.h ****   /*
 954:Components/Algorithm/Include/arm_math.h ****    * @brief C custom defined QADD for M3 and M0 processors
 955:Components/Algorithm/Include/arm_math.h ****    */
 956:Components/Algorithm/Include/arm_math.h ****   static __INLINE q31_t __QADD(
 957:Components/Algorithm/Include/arm_math.h ****   q31_t x,
 958:Components/Algorithm/Include/arm_math.h ****   q31_t y)
 959:Components/Algorithm/Include/arm_math.h ****   {
 960:Components/Algorithm/Include/arm_math.h ****     return clip_q63_to_q31((q63_t) x + y);
 961:Components/Algorithm/Include/arm_math.h ****   }
 962:Components/Algorithm/Include/arm_math.h **** 
ARM GAS  C:\Users\86152\AppData\Local\Temp\ccWGVtEI.s 			page 102


 963:Components/Algorithm/Include/arm_math.h ****   /*
 964:Components/Algorithm/Include/arm_math.h ****    * @brief C custom defined QSUB for M3 and M0 processors
 965:Components/Algorithm/Include/arm_math.h ****    */
 966:Components/Algorithm/Include/arm_math.h ****   static __INLINE q31_t __QSUB(
 967:Components/Algorithm/Include/arm_math.h ****   q31_t x,
 968:Components/Algorithm/Include/arm_math.h ****   q31_t y)
 969:Components/Algorithm/Include/arm_math.h ****   {
 970:Components/Algorithm/Include/arm_math.h ****     return clip_q63_to_q31((q63_t) x - y);
 971:Components/Algorithm/Include/arm_math.h ****   }
 972:Components/Algorithm/Include/arm_math.h **** 
 973:Components/Algorithm/Include/arm_math.h ****   /*
 974:Components/Algorithm/Include/arm_math.h ****    * @brief C custom defined SMLAD for M3 and M0 processors
 975:Components/Algorithm/Include/arm_math.h ****    */
 976:Components/Algorithm/Include/arm_math.h ****   static __INLINE q31_t __SMLAD(
 977:Components/Algorithm/Include/arm_math.h ****   q31_t x,
 978:Components/Algorithm/Include/arm_math.h ****   q31_t y,
 979:Components/Algorithm/Include/arm_math.h ****   q31_t sum)
 980:Components/Algorithm/Include/arm_math.h ****   {
 981:Components/Algorithm/Include/arm_math.h **** 
 982:Components/Algorithm/Include/arm_math.h ****     return (sum + ((q15_t) (x >> 16) * (q15_t) (y >> 16)) +
 983:Components/Algorithm/Include/arm_math.h ****             ((q15_t) x * (q15_t) y));
 984:Components/Algorithm/Include/arm_math.h ****   }
 985:Components/Algorithm/Include/arm_math.h **** 
 986:Components/Algorithm/Include/arm_math.h ****   /*
 987:Components/Algorithm/Include/arm_math.h ****    * @brief C custom defined SMLADX for M3 and M0 processors
 988:Components/Algorithm/Include/arm_math.h ****    */
 989:Components/Algorithm/Include/arm_math.h ****   static __INLINE q31_t __SMLADX(
 990:Components/Algorithm/Include/arm_math.h ****   q31_t x,
 991:Components/Algorithm/Include/arm_math.h ****   q31_t y,
 992:Components/Algorithm/Include/arm_math.h ****   q31_t sum)
 993:Components/Algorithm/Include/arm_math.h ****   {
 994:Components/Algorithm/Include/arm_math.h **** 
 995:Components/Algorithm/Include/arm_math.h ****     return (sum + ((q15_t) (x >> 16) * (q15_t) (y)) +
 996:Components/Algorithm/Include/arm_math.h ****             ((q15_t) x * (q15_t) (y >> 16)));
 997:Components/Algorithm/Include/arm_math.h ****   }
 998:Components/Algorithm/Include/arm_math.h **** 
 999:Components/Algorithm/Include/arm_math.h ****   /*
1000:Components/Algorithm/Include/arm_math.h ****    * @brief C custom defined SMLSDX for M3 and M0 processors
1001:Components/Algorithm/Include/arm_math.h ****    */
1002:Components/Algorithm/Include/arm_math.h ****   static __INLINE q31_t __SMLSDX(
1003:Components/Algorithm/Include/arm_math.h ****   q31_t x,
1004:Components/Algorithm/Include/arm_math.h ****   q31_t y,
1005:Components/Algorithm/Include/arm_math.h ****   q31_t sum)
1006:Components/Algorithm/Include/arm_math.h ****   {
1007:Components/Algorithm/Include/arm_math.h **** 
1008:Components/Algorithm/Include/arm_math.h ****     return (sum - ((q15_t) (x >> 16) * (q15_t) (y)) +
1009:Components/Algorithm/Include/arm_math.h ****             ((q15_t) x * (q15_t) (y >> 16)));
1010:Components/Algorithm/Include/arm_math.h ****   }
1011:Components/Algorithm/Include/arm_math.h **** 
1012:Components/Algorithm/Include/arm_math.h ****   /*
1013:Components/Algorithm/Include/arm_math.h ****    * @brief C custom defined SMLALD for M3 and M0 processors
1014:Components/Algorithm/Include/arm_math.h ****    */
1015:Components/Algorithm/Include/arm_math.h ****   static __INLINE q63_t __SMLALD(
1016:Components/Algorithm/Include/arm_math.h ****   q31_t x,
1017:Components/Algorithm/Include/arm_math.h ****   q31_t y,
1018:Components/Algorithm/Include/arm_math.h ****   q63_t sum)
1019:Components/Algorithm/Include/arm_math.h ****   {
ARM GAS  C:\Users\86152\AppData\Local\Temp\ccWGVtEI.s 			page 103


1020:Components/Algorithm/Include/arm_math.h **** 
1021:Components/Algorithm/Include/arm_math.h ****     return (sum + ((q15_t) (x >> 16) * (q15_t) (y >> 16)) +
1022:Components/Algorithm/Include/arm_math.h ****             ((q15_t) x * (q15_t) y));
1023:Components/Algorithm/Include/arm_math.h ****   }
1024:Components/Algorithm/Include/arm_math.h **** 
1025:Components/Algorithm/Include/arm_math.h ****   /*
1026:Components/Algorithm/Include/arm_math.h ****    * @brief C custom defined SMLALDX for M3 and M0 processors
1027:Components/Algorithm/Include/arm_math.h ****    */
1028:Components/Algorithm/Include/arm_math.h ****   static __INLINE q63_t __SMLALDX(
1029:Components/Algorithm/Include/arm_math.h ****   q31_t x,
1030:Components/Algorithm/Include/arm_math.h ****   q31_t y,
1031:Components/Algorithm/Include/arm_math.h ****   q63_t sum)
1032:Components/Algorithm/Include/arm_math.h ****   {
1033:Components/Algorithm/Include/arm_math.h **** 
1034:Components/Algorithm/Include/arm_math.h ****     return (sum + ((q15_t) (x >> 16) * (q15_t) y)) +
1035:Components/Algorithm/Include/arm_math.h ****       ((q15_t) x * (q15_t) (y >> 16));
1036:Components/Algorithm/Include/arm_math.h ****   }
1037:Components/Algorithm/Include/arm_math.h **** 
1038:Components/Algorithm/Include/arm_math.h ****   /*
1039:Components/Algorithm/Include/arm_math.h ****    * @brief C custom defined SMUAD for M3 and M0 processors
1040:Components/Algorithm/Include/arm_math.h ****    */
1041:Components/Algorithm/Include/arm_math.h ****   static __INLINE q31_t __SMUAD(
1042:Components/Algorithm/Include/arm_math.h ****   q31_t x,
1043:Components/Algorithm/Include/arm_math.h ****   q31_t y)
1044:Components/Algorithm/Include/arm_math.h ****   {
1045:Components/Algorithm/Include/arm_math.h **** 
1046:Components/Algorithm/Include/arm_math.h ****     return (((x >> 16) * (y >> 16)) +
1047:Components/Algorithm/Include/arm_math.h ****             (((x << 16) >> 16) * ((y << 16) >> 16)));
1048:Components/Algorithm/Include/arm_math.h ****   }
1049:Components/Algorithm/Include/arm_math.h **** 
1050:Components/Algorithm/Include/arm_math.h ****   /*
1051:Components/Algorithm/Include/arm_math.h ****    * @brief C custom defined SMUSD for M3 and M0 processors
1052:Components/Algorithm/Include/arm_math.h ****    */
1053:Components/Algorithm/Include/arm_math.h ****   static __INLINE q31_t __SMUSD(
1054:Components/Algorithm/Include/arm_math.h ****   q31_t x,
1055:Components/Algorithm/Include/arm_math.h ****   q31_t y)
1056:Components/Algorithm/Include/arm_math.h ****   {
1057:Components/Algorithm/Include/arm_math.h **** 
1058:Components/Algorithm/Include/arm_math.h ****     return (-((x >> 16) * (y >> 16)) +
1059:Components/Algorithm/Include/arm_math.h ****             (((x << 16) >> 16) * ((y << 16) >> 16)));
1060:Components/Algorithm/Include/arm_math.h ****   }
1061:Components/Algorithm/Include/arm_math.h **** 
1062:Components/Algorithm/Include/arm_math.h **** 
1063:Components/Algorithm/Include/arm_math.h ****   /*
1064:Components/Algorithm/Include/arm_math.h ****    * @brief C custom defined SXTB16 for M3 and M0 processors
1065:Components/Algorithm/Include/arm_math.h ****    */
1066:Components/Algorithm/Include/arm_math.h ****   static __INLINE q31_t __SXTB16(
1067:Components/Algorithm/Include/arm_math.h ****   q31_t x)
1068:Components/Algorithm/Include/arm_math.h ****   {
1069:Components/Algorithm/Include/arm_math.h **** 
1070:Components/Algorithm/Include/arm_math.h ****     return ((((x << 24) >> 24) & 0x0000FFFF) |
1071:Components/Algorithm/Include/arm_math.h ****             (((x << 8) >> 8) & 0xFFFF0000));
1072:Components/Algorithm/Include/arm_math.h ****   }
1073:Components/Algorithm/Include/arm_math.h **** 
1074:Components/Algorithm/Include/arm_math.h **** 
1075:Components/Algorithm/Include/arm_math.h **** #endif /* defined (ARM_MATH_CM3) || defined (ARM_MATH_CM0_FAMILY) */
1076:Components/Algorithm/Include/arm_math.h **** 
ARM GAS  C:\Users\86152\AppData\Local\Temp\ccWGVtEI.s 			page 104


1077:Components/Algorithm/Include/arm_math.h **** 
1078:Components/Algorithm/Include/arm_math.h ****   /**
1079:Components/Algorithm/Include/arm_math.h ****    * @brief Instance structure for the Q7 FIR filter.
1080:Components/Algorithm/Include/arm_math.h ****    */
1081:Components/Algorithm/Include/arm_math.h ****   typedef struct
1082:Components/Algorithm/Include/arm_math.h ****   {
1083:Components/Algorithm/Include/arm_math.h ****     uint16_t numTaps;        /**< number of filter coefficients in the filter. */
1084:Components/Algorithm/Include/arm_math.h ****     q7_t *pState;            /**< points to the state variable array. The array is of length numTap
1085:Components/Algorithm/Include/arm_math.h ****     q7_t *pCoeffs;           /**< points to the coefficient array. The array is of length numTaps.*
1086:Components/Algorithm/Include/arm_math.h ****   } arm_fir_instance_q7;
1087:Components/Algorithm/Include/arm_math.h **** 
1088:Components/Algorithm/Include/arm_math.h ****   /**
1089:Components/Algorithm/Include/arm_math.h ****    * @brief Instance structure for the Q15 FIR filter.
1090:Components/Algorithm/Include/arm_math.h ****    */
1091:Components/Algorithm/Include/arm_math.h ****   typedef struct
1092:Components/Algorithm/Include/arm_math.h ****   {
1093:Components/Algorithm/Include/arm_math.h ****     uint16_t numTaps;         /**< number of filter coefficients in the filter. */
1094:Components/Algorithm/Include/arm_math.h ****     q15_t *pState;            /**< points to the state variable array. The array is of length numTa
1095:Components/Algorithm/Include/arm_math.h ****     q15_t *pCoeffs;           /**< points to the coefficient array. The array is of length numTaps.
1096:Components/Algorithm/Include/arm_math.h ****   } arm_fir_instance_q15;
1097:Components/Algorithm/Include/arm_math.h **** 
1098:Components/Algorithm/Include/arm_math.h ****   /**
1099:Components/Algorithm/Include/arm_math.h ****    * @brief Instance structure for the Q31 FIR filter.
1100:Components/Algorithm/Include/arm_math.h ****    */
1101:Components/Algorithm/Include/arm_math.h ****   typedef struct
1102:Components/Algorithm/Include/arm_math.h ****   {
1103:Components/Algorithm/Include/arm_math.h ****     uint16_t numTaps;         /**< number of filter coefficients in the filter. */
1104:Components/Algorithm/Include/arm_math.h ****     q31_t *pState;            /**< points to the state variable array. The array is of length numTa
1105:Components/Algorithm/Include/arm_math.h ****     q31_t *pCoeffs;           /**< points to the coefficient array. The array is of length numTaps.
1106:Components/Algorithm/Include/arm_math.h ****   } arm_fir_instance_q31;
1107:Components/Algorithm/Include/arm_math.h **** 
1108:Components/Algorithm/Include/arm_math.h ****   /**
1109:Components/Algorithm/Include/arm_math.h ****    * @brief Instance structure for the floating-point FIR filter.
1110:Components/Algorithm/Include/arm_math.h ****    */
1111:Components/Algorithm/Include/arm_math.h ****   typedef struct
1112:Components/Algorithm/Include/arm_math.h ****   {
1113:Components/Algorithm/Include/arm_math.h ****     uint16_t numTaps;     /**< number of filter coefficients in the filter. */
1114:Components/Algorithm/Include/arm_math.h ****     float32_t *pState;    /**< points to the state variable array. The array is of length numTaps+b
1115:Components/Algorithm/Include/arm_math.h ****     float32_t *pCoeffs;   /**< points to the coefficient array. The array is of length numTaps. */
1116:Components/Algorithm/Include/arm_math.h ****   } arm_fir_instance_f32;
1117:Components/Algorithm/Include/arm_math.h **** 
1118:Components/Algorithm/Include/arm_math.h **** 
1119:Components/Algorithm/Include/arm_math.h ****   /**
1120:Components/Algorithm/Include/arm_math.h ****    * @brief Processing function for the Q7 FIR filter.
1121:Components/Algorithm/Include/arm_math.h ****    * @param[in] *S points to an instance of the Q7 FIR filter structure.
1122:Components/Algorithm/Include/arm_math.h ****    * @param[in] *pSrc points to the block of input data.
1123:Components/Algorithm/Include/arm_math.h ****    * @param[out] *pDst points to the block of output data.
1124:Components/Algorithm/Include/arm_math.h ****    * @param[in] blockSize number of samples to process.
1125:Components/Algorithm/Include/arm_math.h ****    * @return none.
1126:Components/Algorithm/Include/arm_math.h ****    */
1127:Components/Algorithm/Include/arm_math.h ****   void arm_fir_q7(
1128:Components/Algorithm/Include/arm_math.h ****   const arm_fir_instance_q7 * S,
1129:Components/Algorithm/Include/arm_math.h ****   q7_t * pSrc,
1130:Components/Algorithm/Include/arm_math.h ****   q7_t * pDst,
1131:Components/Algorithm/Include/arm_math.h ****   uint32_t blockSize);
1132:Components/Algorithm/Include/arm_math.h **** 
1133:Components/Algorithm/Include/arm_math.h **** 
ARM GAS  C:\Users\86152\AppData\Local\Temp\ccWGVtEI.s 			page 105


1134:Components/Algorithm/Include/arm_math.h ****   /**
1135:Components/Algorithm/Include/arm_math.h ****    * @brief  Initialization function for the Q7 FIR filter.
1136:Components/Algorithm/Include/arm_math.h ****    * @param[in,out] *S points to an instance of the Q7 FIR structure.
1137:Components/Algorithm/Include/arm_math.h ****    * @param[in] numTaps  Number of filter coefficients in the filter.
1138:Components/Algorithm/Include/arm_math.h ****    * @param[in] *pCoeffs points to the filter coefficients.
1139:Components/Algorithm/Include/arm_math.h ****    * @param[in] *pState points to the state buffer.
1140:Components/Algorithm/Include/arm_math.h ****    * @param[in] blockSize number of samples that are processed.
1141:Components/Algorithm/Include/arm_math.h ****    * @return none
1142:Components/Algorithm/Include/arm_math.h ****    */
1143:Components/Algorithm/Include/arm_math.h ****   void arm_fir_init_q7(
1144:Components/Algorithm/Include/arm_math.h ****   arm_fir_instance_q7 * S,
1145:Components/Algorithm/Include/arm_math.h ****   uint16_t numTaps,
1146:Components/Algorithm/Include/arm_math.h ****   q7_t * pCoeffs,
1147:Components/Algorithm/Include/arm_math.h ****   q7_t * pState,
1148:Components/Algorithm/Include/arm_math.h ****   uint32_t blockSize);
1149:Components/Algorithm/Include/arm_math.h **** 
1150:Components/Algorithm/Include/arm_math.h **** 
1151:Components/Algorithm/Include/arm_math.h ****   /**
1152:Components/Algorithm/Include/arm_math.h ****    * @brief Processing function for the Q15 FIR filter.
1153:Components/Algorithm/Include/arm_math.h ****    * @param[in] *S points to an instance of the Q15 FIR structure.
1154:Components/Algorithm/Include/arm_math.h ****    * @param[in] *pSrc points to the block of input data.
1155:Components/Algorithm/Include/arm_math.h ****    * @param[out] *pDst points to the block of output data.
1156:Components/Algorithm/Include/arm_math.h ****    * @param[in] blockSize number of samples to process.
1157:Components/Algorithm/Include/arm_math.h ****    * @return none.
1158:Components/Algorithm/Include/arm_math.h ****    */
1159:Components/Algorithm/Include/arm_math.h ****   void arm_fir_q15(
1160:Components/Algorithm/Include/arm_math.h ****   const arm_fir_instance_q15 * S,
1161:Components/Algorithm/Include/arm_math.h ****   q15_t * pSrc,
1162:Components/Algorithm/Include/arm_math.h ****   q15_t * pDst,
1163:Components/Algorithm/Include/arm_math.h ****   uint32_t blockSize);
1164:Components/Algorithm/Include/arm_math.h **** 
1165:Components/Algorithm/Include/arm_math.h ****   /**
1166:Components/Algorithm/Include/arm_math.h ****    * @brief Processing function for the fast Q15 FIR filter for Cortex-M3 and Cortex-M4.
1167:Components/Algorithm/Include/arm_math.h ****    * @param[in] *S points to an instance of the Q15 FIR filter structure.
1168:Components/Algorithm/Include/arm_math.h ****    * @param[in] *pSrc points to the block of input data.
1169:Components/Algorithm/Include/arm_math.h ****    * @param[out] *pDst points to the block of output data.
1170:Components/Algorithm/Include/arm_math.h ****    * @param[in] blockSize number of samples to process.
1171:Components/Algorithm/Include/arm_math.h ****    * @return none.
1172:Components/Algorithm/Include/arm_math.h ****    */
1173:Components/Algorithm/Include/arm_math.h ****   void arm_fir_fast_q15(
1174:Components/Algorithm/Include/arm_math.h ****   const arm_fir_instance_q15 * S,
1175:Components/Algorithm/Include/arm_math.h ****   q15_t * pSrc,
1176:Components/Algorithm/Include/arm_math.h ****   q15_t * pDst,
1177:Components/Algorithm/Include/arm_math.h ****   uint32_t blockSize);
1178:Components/Algorithm/Include/arm_math.h **** 
1179:Components/Algorithm/Include/arm_math.h ****   /**
1180:Components/Algorithm/Include/arm_math.h ****    * @brief  Initialization function for the Q15 FIR filter.
1181:Components/Algorithm/Include/arm_math.h ****    * @param[in,out] *S points to an instance of the Q15 FIR filter structure.
1182:Components/Algorithm/Include/arm_math.h ****    * @param[in] numTaps  Number of filter coefficients in the filter. Must be even and greater than
1183:Components/Algorithm/Include/arm_math.h ****    * @param[in] *pCoeffs points to the filter coefficients.
1184:Components/Algorithm/Include/arm_math.h ****    * @param[in] *pState points to the state buffer.
1185:Components/Algorithm/Include/arm_math.h ****    * @param[in] blockSize number of samples that are processed at a time.
1186:Components/Algorithm/Include/arm_math.h ****    * @return The function returns ARM_MATH_SUCCESS if initialization was successful or ARM_MATH_ARG
1187:Components/Algorithm/Include/arm_math.h ****    * <code>numTaps</code> is not a supported value.
1188:Components/Algorithm/Include/arm_math.h ****    */
1189:Components/Algorithm/Include/arm_math.h **** 
1190:Components/Algorithm/Include/arm_math.h ****   arm_status arm_fir_init_q15(
ARM GAS  C:\Users\86152\AppData\Local\Temp\ccWGVtEI.s 			page 106


1191:Components/Algorithm/Include/arm_math.h ****   arm_fir_instance_q15 * S,
1192:Components/Algorithm/Include/arm_math.h ****   uint16_t numTaps,
1193:Components/Algorithm/Include/arm_math.h ****   q15_t * pCoeffs,
1194:Components/Algorithm/Include/arm_math.h ****   q15_t * pState,
1195:Components/Algorithm/Include/arm_math.h ****   uint32_t blockSize);
1196:Components/Algorithm/Include/arm_math.h **** 
1197:Components/Algorithm/Include/arm_math.h ****   /**
1198:Components/Algorithm/Include/arm_math.h ****    * @brief Processing function for the Q31 FIR filter.
1199:Components/Algorithm/Include/arm_math.h ****    * @param[in] *S points to an instance of the Q31 FIR filter structure.
1200:Components/Algorithm/Include/arm_math.h ****    * @param[in] *pSrc points to the block of input data.
1201:Components/Algorithm/Include/arm_math.h ****    * @param[out] *pDst points to the block of output data.
1202:Components/Algorithm/Include/arm_math.h ****    * @param[in] blockSize number of samples to process.
1203:Components/Algorithm/Include/arm_math.h ****    * @return none.
1204:Components/Algorithm/Include/arm_math.h ****    */
1205:Components/Algorithm/Include/arm_math.h ****   void arm_fir_q31(
1206:Components/Algorithm/Include/arm_math.h ****   const arm_fir_instance_q31 * S,
1207:Components/Algorithm/Include/arm_math.h ****   q31_t * pSrc,
1208:Components/Algorithm/Include/arm_math.h ****   q31_t * pDst,
1209:Components/Algorithm/Include/arm_math.h ****   uint32_t blockSize);
1210:Components/Algorithm/Include/arm_math.h **** 
1211:Components/Algorithm/Include/arm_math.h ****   /**
1212:Components/Algorithm/Include/arm_math.h ****    * @brief Processing function for the fast Q31 FIR filter for Cortex-M3 and Cortex-M4.
1213:Components/Algorithm/Include/arm_math.h ****    * @param[in] *S points to an instance of the Q31 FIR structure.
1214:Components/Algorithm/Include/arm_math.h ****    * @param[in] *pSrc points to the block of input data.
1215:Components/Algorithm/Include/arm_math.h ****    * @param[out] *pDst points to the block of output data.
1216:Components/Algorithm/Include/arm_math.h ****    * @param[in] blockSize number of samples to process.
1217:Components/Algorithm/Include/arm_math.h ****    * @return none.
1218:Components/Algorithm/Include/arm_math.h ****    */
1219:Components/Algorithm/Include/arm_math.h ****   void arm_fir_fast_q31(
1220:Components/Algorithm/Include/arm_math.h ****   const arm_fir_instance_q31 * S,
1221:Components/Algorithm/Include/arm_math.h ****   q31_t * pSrc,
1222:Components/Algorithm/Include/arm_math.h ****   q31_t * pDst,
1223:Components/Algorithm/Include/arm_math.h ****   uint32_t blockSize);
1224:Components/Algorithm/Include/arm_math.h **** 
1225:Components/Algorithm/Include/arm_math.h ****   /**
1226:Components/Algorithm/Include/arm_math.h ****    * @brief  Initialization function for the Q31 FIR filter.
1227:Components/Algorithm/Include/arm_math.h ****    * @param[in,out] *S points to an instance of the Q31 FIR structure.
1228:Components/Algorithm/Include/arm_math.h ****    * @param[in] 	numTaps  Number of filter coefficients in the filter.
1229:Components/Algorithm/Include/arm_math.h ****    * @param[in] 	*pCoeffs points to the filter coefficients.
1230:Components/Algorithm/Include/arm_math.h ****    * @param[in] 	*pState points to the state buffer.
1231:Components/Algorithm/Include/arm_math.h ****    * @param[in] 	blockSize number of samples that are processed at a time.
1232:Components/Algorithm/Include/arm_math.h ****    * @return 		none.
1233:Components/Algorithm/Include/arm_math.h ****    */
1234:Components/Algorithm/Include/arm_math.h ****   void arm_fir_init_q31(
1235:Components/Algorithm/Include/arm_math.h ****   arm_fir_instance_q31 * S,
1236:Components/Algorithm/Include/arm_math.h ****   uint16_t numTaps,
1237:Components/Algorithm/Include/arm_math.h ****   q31_t * pCoeffs,
1238:Components/Algorithm/Include/arm_math.h ****   q31_t * pState,
1239:Components/Algorithm/Include/arm_math.h ****   uint32_t blockSize);
1240:Components/Algorithm/Include/arm_math.h **** 
1241:Components/Algorithm/Include/arm_math.h ****   /**
1242:Components/Algorithm/Include/arm_math.h ****    * @brief Processing function for the floating-point FIR filter.
1243:Components/Algorithm/Include/arm_math.h ****    * @param[in] *S points to an instance of the floating-point FIR structure.
1244:Components/Algorithm/Include/arm_math.h ****    * @param[in] *pSrc points to the block of input data.
1245:Components/Algorithm/Include/arm_math.h ****    * @param[out] *pDst points to the block of output data.
1246:Components/Algorithm/Include/arm_math.h ****    * @param[in] blockSize number of samples to process.
1247:Components/Algorithm/Include/arm_math.h ****    * @return none.
ARM GAS  C:\Users\86152\AppData\Local\Temp\ccWGVtEI.s 			page 107


1248:Components/Algorithm/Include/arm_math.h ****    */
1249:Components/Algorithm/Include/arm_math.h ****   void arm_fir_f32(
1250:Components/Algorithm/Include/arm_math.h ****   const arm_fir_instance_f32 * S,
1251:Components/Algorithm/Include/arm_math.h ****   float32_t * pSrc,
1252:Components/Algorithm/Include/arm_math.h ****   float32_t * pDst,
1253:Components/Algorithm/Include/arm_math.h ****   uint32_t blockSize);
1254:Components/Algorithm/Include/arm_math.h **** 
1255:Components/Algorithm/Include/arm_math.h ****   /**
1256:Components/Algorithm/Include/arm_math.h ****    * @brief  Initialization function for the floating-point FIR filter.
1257:Components/Algorithm/Include/arm_math.h ****    * @param[in,out] *S points to an instance of the floating-point FIR filter structure.
1258:Components/Algorithm/Include/arm_math.h ****    * @param[in] 	numTaps  Number of filter coefficients in the filter.
1259:Components/Algorithm/Include/arm_math.h ****    * @param[in] 	*pCoeffs points to the filter coefficients.
1260:Components/Algorithm/Include/arm_math.h ****    * @param[in] 	*pState points to the state buffer.
1261:Components/Algorithm/Include/arm_math.h ****    * @param[in] 	blockSize number of samples that are processed at a time.
1262:Components/Algorithm/Include/arm_math.h ****    * @return    	none.
1263:Components/Algorithm/Include/arm_math.h ****    */
1264:Components/Algorithm/Include/arm_math.h ****   void arm_fir_init_f32(
1265:Components/Algorithm/Include/arm_math.h ****   arm_fir_instance_f32 * S,
1266:Components/Algorithm/Include/arm_math.h ****   uint16_t numTaps,
1267:Components/Algorithm/Include/arm_math.h ****   float32_t * pCoeffs,
1268:Components/Algorithm/Include/arm_math.h ****   float32_t * pState,
1269:Components/Algorithm/Include/arm_math.h ****   uint32_t blockSize);
1270:Components/Algorithm/Include/arm_math.h **** 
1271:Components/Algorithm/Include/arm_math.h **** 
1272:Components/Algorithm/Include/arm_math.h ****   /**
1273:Components/Algorithm/Include/arm_math.h ****    * @brief Instance structure for the Q15 Biquad cascade filter.
1274:Components/Algorithm/Include/arm_math.h ****    */
1275:Components/Algorithm/Include/arm_math.h ****   typedef struct
1276:Components/Algorithm/Include/arm_math.h ****   {
1277:Components/Algorithm/Include/arm_math.h ****     int8_t numStages;         /**< number of 2nd order stages in the filter.  Overall order is 2*nu
1278:Components/Algorithm/Include/arm_math.h ****     q15_t *pState;            /**< Points to the array of state coefficients.  The array is of leng
1279:Components/Algorithm/Include/arm_math.h ****     q15_t *pCoeffs;           /**< Points to the array of coefficients.  The array is of length 5*n
1280:Components/Algorithm/Include/arm_math.h ****     int8_t postShift;         /**< Additional shift, in bits, applied to each output sample. */
1281:Components/Algorithm/Include/arm_math.h **** 
1282:Components/Algorithm/Include/arm_math.h ****   } arm_biquad_casd_df1_inst_q15;
1283:Components/Algorithm/Include/arm_math.h **** 
1284:Components/Algorithm/Include/arm_math.h **** 
1285:Components/Algorithm/Include/arm_math.h ****   /**
1286:Components/Algorithm/Include/arm_math.h ****    * @brief Instance structure for the Q31 Biquad cascade filter.
1287:Components/Algorithm/Include/arm_math.h ****    */
1288:Components/Algorithm/Include/arm_math.h ****   typedef struct
1289:Components/Algorithm/Include/arm_math.h ****   {
1290:Components/Algorithm/Include/arm_math.h ****     uint32_t numStages;      /**< number of 2nd order stages in the filter.  Overall order is 2*num
1291:Components/Algorithm/Include/arm_math.h ****     q31_t *pState;           /**< Points to the array of state coefficients.  The array is of lengt
1292:Components/Algorithm/Include/arm_math.h ****     q31_t *pCoeffs;          /**< Points to the array of coefficients.  The array is of length 5*nu
1293:Components/Algorithm/Include/arm_math.h ****     uint8_t postShift;       /**< Additional shift, in bits, applied to each output sample. */
1294:Components/Algorithm/Include/arm_math.h **** 
1295:Components/Algorithm/Include/arm_math.h ****   } arm_biquad_casd_df1_inst_q31;
1296:Components/Algorithm/Include/arm_math.h **** 
1297:Components/Algorithm/Include/arm_math.h ****   /**
1298:Components/Algorithm/Include/arm_math.h ****    * @brief Instance structure for the floating-point Biquad cascade filter.
1299:Components/Algorithm/Include/arm_math.h ****    */
1300:Components/Algorithm/Include/arm_math.h ****   typedef struct
1301:Components/Algorithm/Include/arm_math.h ****   {
1302:Components/Algorithm/Include/arm_math.h ****     uint32_t numStages;         /**< number of 2nd order stages in the filter.  Overall order is 2*
1303:Components/Algorithm/Include/arm_math.h ****     float32_t *pState;          /**< Points to the array of state coefficients.  The array is of le
1304:Components/Algorithm/Include/arm_math.h ****     float32_t *pCoeffs;         /**< Points to the array of coefficients.  The array is of length 5
ARM GAS  C:\Users\86152\AppData\Local\Temp\ccWGVtEI.s 			page 108


1305:Components/Algorithm/Include/arm_math.h **** 
1306:Components/Algorithm/Include/arm_math.h **** 
1307:Components/Algorithm/Include/arm_math.h ****   } arm_biquad_casd_df1_inst_f32;
1308:Components/Algorithm/Include/arm_math.h **** 
1309:Components/Algorithm/Include/arm_math.h **** 
1310:Components/Algorithm/Include/arm_math.h **** 
1311:Components/Algorithm/Include/arm_math.h ****   /**
1312:Components/Algorithm/Include/arm_math.h ****    * @brief Processing function for the Q15 Biquad cascade filter.
1313:Components/Algorithm/Include/arm_math.h ****    * @param[in]  *S points to an instance of the Q15 Biquad cascade structure.
1314:Components/Algorithm/Include/arm_math.h ****    * @param[in]  *pSrc points to the block of input data.
1315:Components/Algorithm/Include/arm_math.h ****    * @param[out] *pDst points to the block of output data.
1316:Components/Algorithm/Include/arm_math.h ****    * @param[in]  blockSize number of samples to process.
1317:Components/Algorithm/Include/arm_math.h ****    * @return     none.
1318:Components/Algorithm/Include/arm_math.h ****    */
1319:Components/Algorithm/Include/arm_math.h **** 
1320:Components/Algorithm/Include/arm_math.h ****   void arm_biquad_cascade_df1_q15(
1321:Components/Algorithm/Include/arm_math.h ****   const arm_biquad_casd_df1_inst_q15 * S,
1322:Components/Algorithm/Include/arm_math.h ****   q15_t * pSrc,
1323:Components/Algorithm/Include/arm_math.h ****   q15_t * pDst,
1324:Components/Algorithm/Include/arm_math.h ****   uint32_t blockSize);
1325:Components/Algorithm/Include/arm_math.h **** 
1326:Components/Algorithm/Include/arm_math.h ****   /**
1327:Components/Algorithm/Include/arm_math.h ****    * @brief  Initialization function for the Q15 Biquad cascade filter.
1328:Components/Algorithm/Include/arm_math.h ****    * @param[in,out] *S           points to an instance of the Q15 Biquad cascade structure.
1329:Components/Algorithm/Include/arm_math.h ****    * @param[in]     numStages    number of 2nd order stages in the filter.
1330:Components/Algorithm/Include/arm_math.h ****    * @param[in]     *pCoeffs     points to the filter coefficients.
1331:Components/Algorithm/Include/arm_math.h ****    * @param[in]     *pState      points to the state buffer.
1332:Components/Algorithm/Include/arm_math.h ****    * @param[in]     postShift    Shift to be applied to the output. Varies according to the coeffic
1333:Components/Algorithm/Include/arm_math.h ****    * @return        none
1334:Components/Algorithm/Include/arm_math.h ****    */
1335:Components/Algorithm/Include/arm_math.h **** 
1336:Components/Algorithm/Include/arm_math.h ****   void arm_biquad_cascade_df1_init_q15(
1337:Components/Algorithm/Include/arm_math.h ****   arm_biquad_casd_df1_inst_q15 * S,
1338:Components/Algorithm/Include/arm_math.h ****   uint8_t numStages,
1339:Components/Algorithm/Include/arm_math.h ****   q15_t * pCoeffs,
1340:Components/Algorithm/Include/arm_math.h ****   q15_t * pState,
1341:Components/Algorithm/Include/arm_math.h ****   int8_t postShift);
1342:Components/Algorithm/Include/arm_math.h **** 
1343:Components/Algorithm/Include/arm_math.h **** 
1344:Components/Algorithm/Include/arm_math.h ****   /**
1345:Components/Algorithm/Include/arm_math.h ****    * @brief Fast but less precise processing function for the Q15 Biquad cascade filter for Cortex-
1346:Components/Algorithm/Include/arm_math.h ****    * @param[in]  *S points to an instance of the Q15 Biquad cascade structure.
1347:Components/Algorithm/Include/arm_math.h ****    * @param[in]  *pSrc points to the block of input data.
1348:Components/Algorithm/Include/arm_math.h ****    * @param[out] *pDst points to the block of output data.
1349:Components/Algorithm/Include/arm_math.h ****    * @param[in]  blockSize number of samples to process.
1350:Components/Algorithm/Include/arm_math.h ****    * @return     none.
1351:Components/Algorithm/Include/arm_math.h ****    */
1352:Components/Algorithm/Include/arm_math.h **** 
1353:Components/Algorithm/Include/arm_math.h ****   void arm_biquad_cascade_df1_fast_q15(
1354:Components/Algorithm/Include/arm_math.h ****   const arm_biquad_casd_df1_inst_q15 * S,
1355:Components/Algorithm/Include/arm_math.h ****   q15_t * pSrc,
1356:Components/Algorithm/Include/arm_math.h ****   q15_t * pDst,
1357:Components/Algorithm/Include/arm_math.h ****   uint32_t blockSize);
1358:Components/Algorithm/Include/arm_math.h **** 
1359:Components/Algorithm/Include/arm_math.h **** 
1360:Components/Algorithm/Include/arm_math.h ****   /**
1361:Components/Algorithm/Include/arm_math.h ****    * @brief Processing function for the Q31 Biquad cascade filter
ARM GAS  C:\Users\86152\AppData\Local\Temp\ccWGVtEI.s 			page 109


1362:Components/Algorithm/Include/arm_math.h ****    * @param[in]  *S         points to an instance of the Q31 Biquad cascade structure.
1363:Components/Algorithm/Include/arm_math.h ****    * @param[in]  *pSrc      points to the block of input data.
1364:Components/Algorithm/Include/arm_math.h ****    * @param[out] *pDst      points to the block of output data.
1365:Components/Algorithm/Include/arm_math.h ****    * @param[in]  blockSize  number of samples to process.
1366:Components/Algorithm/Include/arm_math.h ****    * @return     none.
1367:Components/Algorithm/Include/arm_math.h ****    */
1368:Components/Algorithm/Include/arm_math.h **** 
1369:Components/Algorithm/Include/arm_math.h ****   void arm_biquad_cascade_df1_q31(
1370:Components/Algorithm/Include/arm_math.h ****   const arm_biquad_casd_df1_inst_q31 * S,
1371:Components/Algorithm/Include/arm_math.h ****   q31_t * pSrc,
1372:Components/Algorithm/Include/arm_math.h ****   q31_t * pDst,
1373:Components/Algorithm/Include/arm_math.h ****   uint32_t blockSize);
1374:Components/Algorithm/Include/arm_math.h **** 
1375:Components/Algorithm/Include/arm_math.h ****   /**
1376:Components/Algorithm/Include/arm_math.h ****    * @brief Fast but less precise processing function for the Q31 Biquad cascade filter for Cortex-
1377:Components/Algorithm/Include/arm_math.h ****    * @param[in]  *S         points to an instance of the Q31 Biquad cascade structure.
1378:Components/Algorithm/Include/arm_math.h ****    * @param[in]  *pSrc      points to the block of input data.
1379:Components/Algorithm/Include/arm_math.h ****    * @param[out] *pDst      points to the block of output data.
1380:Components/Algorithm/Include/arm_math.h ****    * @param[in]  blockSize  number of samples to process.
1381:Components/Algorithm/Include/arm_math.h ****    * @return     none.
1382:Components/Algorithm/Include/arm_math.h ****    */
1383:Components/Algorithm/Include/arm_math.h **** 
1384:Components/Algorithm/Include/arm_math.h ****   void arm_biquad_cascade_df1_fast_q31(
1385:Components/Algorithm/Include/arm_math.h ****   const arm_biquad_casd_df1_inst_q31 * S,
1386:Components/Algorithm/Include/arm_math.h ****   q31_t * pSrc,
1387:Components/Algorithm/Include/arm_math.h ****   q31_t * pDst,
1388:Components/Algorithm/Include/arm_math.h ****   uint32_t blockSize);
1389:Components/Algorithm/Include/arm_math.h **** 
1390:Components/Algorithm/Include/arm_math.h ****   /**
1391:Components/Algorithm/Include/arm_math.h ****    * @brief  Initialization function for the Q31 Biquad cascade filter.
1392:Components/Algorithm/Include/arm_math.h ****    * @param[in,out] *S           points to an instance of the Q31 Biquad cascade structure.
1393:Components/Algorithm/Include/arm_math.h ****    * @param[in]     numStages      number of 2nd order stages in the filter.
1394:Components/Algorithm/Include/arm_math.h ****    * @param[in]     *pCoeffs     points to the filter coefficients.
1395:Components/Algorithm/Include/arm_math.h ****    * @param[in]     *pState      points to the state buffer.
1396:Components/Algorithm/Include/arm_math.h ****    * @param[in]     postShift    Shift to be applied to the output. Varies according to the coeffic
1397:Components/Algorithm/Include/arm_math.h ****    * @return        none
1398:Components/Algorithm/Include/arm_math.h ****    */
1399:Components/Algorithm/Include/arm_math.h **** 
1400:Components/Algorithm/Include/arm_math.h ****   void arm_biquad_cascade_df1_init_q31(
1401:Components/Algorithm/Include/arm_math.h ****   arm_biquad_casd_df1_inst_q31 * S,
1402:Components/Algorithm/Include/arm_math.h ****   uint8_t numStages,
1403:Components/Algorithm/Include/arm_math.h ****   q31_t * pCoeffs,
1404:Components/Algorithm/Include/arm_math.h ****   q31_t * pState,
1405:Components/Algorithm/Include/arm_math.h ****   int8_t postShift);
1406:Components/Algorithm/Include/arm_math.h **** 
1407:Components/Algorithm/Include/arm_math.h ****   /**
1408:Components/Algorithm/Include/arm_math.h ****    * @brief Processing function for the floating-point Biquad cascade filter.
1409:Components/Algorithm/Include/arm_math.h ****    * @param[in]  *S         points to an instance of the floating-point Biquad cascade structure.
1410:Components/Algorithm/Include/arm_math.h ****    * @param[in]  *pSrc      points to the block of input data.
1411:Components/Algorithm/Include/arm_math.h ****    * @param[out] *pDst      points to the block of output data.
1412:Components/Algorithm/Include/arm_math.h ****    * @param[in]  blockSize  number of samples to process.
1413:Components/Algorithm/Include/arm_math.h ****    * @return     none.
1414:Components/Algorithm/Include/arm_math.h ****    */
1415:Components/Algorithm/Include/arm_math.h **** 
1416:Components/Algorithm/Include/arm_math.h ****   void arm_biquad_cascade_df1_f32(
1417:Components/Algorithm/Include/arm_math.h ****   const arm_biquad_casd_df1_inst_f32 * S,
1418:Components/Algorithm/Include/arm_math.h ****   float32_t * pSrc,
ARM GAS  C:\Users\86152\AppData\Local\Temp\ccWGVtEI.s 			page 110


1419:Components/Algorithm/Include/arm_math.h ****   float32_t * pDst,
1420:Components/Algorithm/Include/arm_math.h ****   uint32_t blockSize);
1421:Components/Algorithm/Include/arm_math.h **** 
1422:Components/Algorithm/Include/arm_math.h ****   /**
1423:Components/Algorithm/Include/arm_math.h ****    * @brief  Initialization function for the floating-point Biquad cascade filter.
1424:Components/Algorithm/Include/arm_math.h ****    * @param[in,out] *S           points to an instance of the floating-point Biquad cascade structu
1425:Components/Algorithm/Include/arm_math.h ****    * @param[in]     numStages    number of 2nd order stages in the filter.
1426:Components/Algorithm/Include/arm_math.h ****    * @param[in]     *pCoeffs     points to the filter coefficients.
1427:Components/Algorithm/Include/arm_math.h ****    * @param[in]     *pState      points to the state buffer.
1428:Components/Algorithm/Include/arm_math.h ****    * @return        none
1429:Components/Algorithm/Include/arm_math.h ****    */
1430:Components/Algorithm/Include/arm_math.h **** 
1431:Components/Algorithm/Include/arm_math.h ****   void arm_biquad_cascade_df1_init_f32(
1432:Components/Algorithm/Include/arm_math.h ****   arm_biquad_casd_df1_inst_f32 * S,
1433:Components/Algorithm/Include/arm_math.h ****   uint8_t numStages,
1434:Components/Algorithm/Include/arm_math.h ****   float32_t * pCoeffs,
1435:Components/Algorithm/Include/arm_math.h ****   float32_t * pState);
1436:Components/Algorithm/Include/arm_math.h **** 
1437:Components/Algorithm/Include/arm_math.h **** 
1438:Components/Algorithm/Include/arm_math.h ****   /**
1439:Components/Algorithm/Include/arm_math.h ****    * @brief Instance structure for the floating-point matrix structure.
1440:Components/Algorithm/Include/arm_math.h ****    */
1441:Components/Algorithm/Include/arm_math.h **** 
1442:Components/Algorithm/Include/arm_math.h ****   typedef struct
1443:Components/Algorithm/Include/arm_math.h ****   {
1444:Components/Algorithm/Include/arm_math.h ****     uint16_t numRows;     /**< number of rows of the matrix.     */
1445:Components/Algorithm/Include/arm_math.h ****     uint16_t numCols;     /**< number of columns of the matrix.  */
1446:Components/Algorithm/Include/arm_math.h ****     float32_t *pData;     /**< points to the data of the matrix. */
1447:Components/Algorithm/Include/arm_math.h ****   } arm_matrix_instance_f32;
1448:Components/Algorithm/Include/arm_math.h **** 
1449:Components/Algorithm/Include/arm_math.h **** 
1450:Components/Algorithm/Include/arm_math.h ****   /**
1451:Components/Algorithm/Include/arm_math.h ****    * @brief Instance structure for the floating-point matrix structure.
1452:Components/Algorithm/Include/arm_math.h ****    */
1453:Components/Algorithm/Include/arm_math.h **** 
1454:Components/Algorithm/Include/arm_math.h ****   typedef struct
1455:Components/Algorithm/Include/arm_math.h ****   {
1456:Components/Algorithm/Include/arm_math.h ****     uint16_t numRows;     /**< number of rows of the matrix.     */
1457:Components/Algorithm/Include/arm_math.h ****     uint16_t numCols;     /**< number of columns of the matrix.  */
1458:Components/Algorithm/Include/arm_math.h ****     float64_t *pData;     /**< points to the data of the matrix. */
1459:Components/Algorithm/Include/arm_math.h ****   } arm_matrix_instance_f64;
1460:Components/Algorithm/Include/arm_math.h **** 
1461:Components/Algorithm/Include/arm_math.h ****   /**
1462:Components/Algorithm/Include/arm_math.h ****    * @brief Instance structure for the Q15 matrix structure.
1463:Components/Algorithm/Include/arm_math.h ****    */
1464:Components/Algorithm/Include/arm_math.h **** 
1465:Components/Algorithm/Include/arm_math.h ****   typedef struct
1466:Components/Algorithm/Include/arm_math.h ****   {
1467:Components/Algorithm/Include/arm_math.h ****     uint16_t numRows;     /**< number of rows of the matrix.     */
1468:Components/Algorithm/Include/arm_math.h ****     uint16_t numCols;     /**< number of columns of the matrix.  */
1469:Components/Algorithm/Include/arm_math.h ****     q15_t *pData;         /**< points to the data of the matrix. */
1470:Components/Algorithm/Include/arm_math.h **** 
1471:Components/Algorithm/Include/arm_math.h ****   } arm_matrix_instance_q15;
1472:Components/Algorithm/Include/arm_math.h **** 
1473:Components/Algorithm/Include/arm_math.h ****   /**
1474:Components/Algorithm/Include/arm_math.h ****    * @brief Instance structure for the Q31 matrix structure.
1475:Components/Algorithm/Include/arm_math.h ****    */
ARM GAS  C:\Users\86152\AppData\Local\Temp\ccWGVtEI.s 			page 111


1476:Components/Algorithm/Include/arm_math.h **** 
1477:Components/Algorithm/Include/arm_math.h ****   typedef struct
1478:Components/Algorithm/Include/arm_math.h ****   {
1479:Components/Algorithm/Include/arm_math.h ****     uint16_t numRows;     /**< number of rows of the matrix.     */
1480:Components/Algorithm/Include/arm_math.h ****     uint16_t numCols;     /**< number of columns of the matrix.  */
1481:Components/Algorithm/Include/arm_math.h ****     q31_t *pData;         /**< points to the data of the matrix. */
1482:Components/Algorithm/Include/arm_math.h **** 
1483:Components/Algorithm/Include/arm_math.h ****   } arm_matrix_instance_q31;
1484:Components/Algorithm/Include/arm_math.h **** 
1485:Components/Algorithm/Include/arm_math.h **** 
1486:Components/Algorithm/Include/arm_math.h **** 
1487:Components/Algorithm/Include/arm_math.h ****   /**
1488:Components/Algorithm/Include/arm_math.h ****    * @brief Floating-point matrix addition.
1489:Components/Algorithm/Include/arm_math.h ****    * @param[in]       *pSrcA points to the first input matrix structure
1490:Components/Algorithm/Include/arm_math.h ****    * @param[in]       *pSrcB points to the second input matrix structure
1491:Components/Algorithm/Include/arm_math.h ****    * @param[out]      *pDst points to output matrix structure
1492:Components/Algorithm/Include/arm_math.h ****    * @return     The function returns either
1493:Components/Algorithm/Include/arm_math.h ****    * <code>ARM_MATH_SIZE_MISMATCH</code> or <code>ARM_MATH_SUCCESS</code> based on the outcome of s
1494:Components/Algorithm/Include/arm_math.h ****    */
1495:Components/Algorithm/Include/arm_math.h **** 
1496:Components/Algorithm/Include/arm_math.h ****   arm_status arm_mat_add_f32(
1497:Components/Algorithm/Include/arm_math.h ****   const arm_matrix_instance_f32 * pSrcA,
1498:Components/Algorithm/Include/arm_math.h ****   const arm_matrix_instance_f32 * pSrcB,
1499:Components/Algorithm/Include/arm_math.h ****   arm_matrix_instance_f32 * pDst);
1500:Components/Algorithm/Include/arm_math.h **** 
1501:Components/Algorithm/Include/arm_math.h ****   /**
1502:Components/Algorithm/Include/arm_math.h ****    * @brief Q15 matrix addition.
1503:Components/Algorithm/Include/arm_math.h ****    * @param[in]       *pSrcA points to the first input matrix structure
1504:Components/Algorithm/Include/arm_math.h ****    * @param[in]       *pSrcB points to the second input matrix structure
1505:Components/Algorithm/Include/arm_math.h ****    * @param[out]      *pDst points to output matrix structure
1506:Components/Algorithm/Include/arm_math.h ****    * @return     The function returns either
1507:Components/Algorithm/Include/arm_math.h ****    * <code>ARM_MATH_SIZE_MISMATCH</code> or <code>ARM_MATH_SUCCESS</code> based on the outcome of s
1508:Components/Algorithm/Include/arm_math.h ****    */
1509:Components/Algorithm/Include/arm_math.h **** 
1510:Components/Algorithm/Include/arm_math.h ****   arm_status arm_mat_add_q15(
1511:Components/Algorithm/Include/arm_math.h ****   const arm_matrix_instance_q15 * pSrcA,
1512:Components/Algorithm/Include/arm_math.h ****   const arm_matrix_instance_q15 * pSrcB,
1513:Components/Algorithm/Include/arm_math.h ****   arm_matrix_instance_q15 * pDst);
1514:Components/Algorithm/Include/arm_math.h **** 
1515:Components/Algorithm/Include/arm_math.h ****   /**
1516:Components/Algorithm/Include/arm_math.h ****    * @brief Q31 matrix addition.
1517:Components/Algorithm/Include/arm_math.h ****    * @param[in]       *pSrcA points to the first input matrix structure
1518:Components/Algorithm/Include/arm_math.h ****    * @param[in]       *pSrcB points to the second input matrix structure
1519:Components/Algorithm/Include/arm_math.h ****    * @param[out]      *pDst points to output matrix structure
1520:Components/Algorithm/Include/arm_math.h ****    * @return     The function returns either
1521:Components/Algorithm/Include/arm_math.h ****    * <code>ARM_MATH_SIZE_MISMATCH</code> or <code>ARM_MATH_SUCCESS</code> based on the outcome of s
1522:Components/Algorithm/Include/arm_math.h ****    */
1523:Components/Algorithm/Include/arm_math.h **** 
1524:Components/Algorithm/Include/arm_math.h ****   arm_status arm_mat_add_q31(
1525:Components/Algorithm/Include/arm_math.h ****   const arm_matrix_instance_q31 * pSrcA,
1526:Components/Algorithm/Include/arm_math.h ****   const arm_matrix_instance_q31 * pSrcB,
1527:Components/Algorithm/Include/arm_math.h ****   arm_matrix_instance_q31 * pDst);
1528:Components/Algorithm/Include/arm_math.h **** 
1529:Components/Algorithm/Include/arm_math.h ****   /**
1530:Components/Algorithm/Include/arm_math.h ****    * @brief Floating-point, complex, matrix multiplication.
1531:Components/Algorithm/Include/arm_math.h ****    * @param[in]       *pSrcA points to the first input matrix structure
1532:Components/Algorithm/Include/arm_math.h ****    * @param[in]       *pSrcB points to the second input matrix structure
ARM GAS  C:\Users\86152\AppData\Local\Temp\ccWGVtEI.s 			page 112


1533:Components/Algorithm/Include/arm_math.h ****    * @param[out]      *pDst points to output matrix structure
1534:Components/Algorithm/Include/arm_math.h ****    * @return     The function returns either
1535:Components/Algorithm/Include/arm_math.h ****    * <code>ARM_MATH_SIZE_MISMATCH</code> or <code>ARM_MATH_SUCCESS</code> based on the outcome of s
1536:Components/Algorithm/Include/arm_math.h ****    */
1537:Components/Algorithm/Include/arm_math.h **** 
1538:Components/Algorithm/Include/arm_math.h ****   arm_status arm_mat_cmplx_mult_f32(
1539:Components/Algorithm/Include/arm_math.h ****   const arm_matrix_instance_f32 * pSrcA,
1540:Components/Algorithm/Include/arm_math.h ****   const arm_matrix_instance_f32 * pSrcB,
1541:Components/Algorithm/Include/arm_math.h ****   arm_matrix_instance_f32 * pDst);
1542:Components/Algorithm/Include/arm_math.h **** 
1543:Components/Algorithm/Include/arm_math.h ****   /**
1544:Components/Algorithm/Include/arm_math.h ****    * @brief Q15, complex,  matrix multiplication.
1545:Components/Algorithm/Include/arm_math.h ****    * @param[in]       *pSrcA points to the first input matrix structure
1546:Components/Algorithm/Include/arm_math.h ****    * @param[in]       *pSrcB points to the second input matrix structure
1547:Components/Algorithm/Include/arm_math.h ****    * @param[out]      *pDst points to output matrix structure
1548:Components/Algorithm/Include/arm_math.h ****    * @return     The function returns either
1549:Components/Algorithm/Include/arm_math.h ****    * <code>ARM_MATH_SIZE_MISMATCH</code> or <code>ARM_MATH_SUCCESS</code> based on the outcome of s
1550:Components/Algorithm/Include/arm_math.h ****    */
1551:Components/Algorithm/Include/arm_math.h **** 
1552:Components/Algorithm/Include/arm_math.h ****   arm_status arm_mat_cmplx_mult_q15(
1553:Components/Algorithm/Include/arm_math.h ****   const arm_matrix_instance_q15 * pSrcA,
1554:Components/Algorithm/Include/arm_math.h ****   const arm_matrix_instance_q15 * pSrcB,
1555:Components/Algorithm/Include/arm_math.h ****   arm_matrix_instance_q15 * pDst,
1556:Components/Algorithm/Include/arm_math.h ****   q15_t * pScratch);
1557:Components/Algorithm/Include/arm_math.h **** 
1558:Components/Algorithm/Include/arm_math.h ****   /**
1559:Components/Algorithm/Include/arm_math.h ****    * @brief Q31, complex, matrix multiplication.
1560:Components/Algorithm/Include/arm_math.h ****    * @param[in]       *pSrcA points to the first input matrix structure
1561:Components/Algorithm/Include/arm_math.h ****    * @param[in]       *pSrcB points to the second input matrix structure
1562:Components/Algorithm/Include/arm_math.h ****    * @param[out]      *pDst points to output matrix structure
1563:Components/Algorithm/Include/arm_math.h ****    * @return     The function returns either
1564:Components/Algorithm/Include/arm_math.h ****    * <code>ARM_MATH_SIZE_MISMATCH</code> or <code>ARM_MATH_SUCCESS</code> based on the outcome of s
1565:Components/Algorithm/Include/arm_math.h ****    */
1566:Components/Algorithm/Include/arm_math.h **** 
1567:Components/Algorithm/Include/arm_math.h ****   arm_status arm_mat_cmplx_mult_q31(
1568:Components/Algorithm/Include/arm_math.h ****   const arm_matrix_instance_q31 * pSrcA,
1569:Components/Algorithm/Include/arm_math.h ****   const arm_matrix_instance_q31 * pSrcB,
1570:Components/Algorithm/Include/arm_math.h ****   arm_matrix_instance_q31 * pDst);
1571:Components/Algorithm/Include/arm_math.h **** 
1572:Components/Algorithm/Include/arm_math.h **** 
1573:Components/Algorithm/Include/arm_math.h ****   /**
1574:Components/Algorithm/Include/arm_math.h ****    * @brief Floating-point matrix transpose.
1575:Components/Algorithm/Include/arm_math.h ****    * @param[in]  *pSrc points to the input matrix
1576:Components/Algorithm/Include/arm_math.h ****    * @param[out] *pDst points to the output matrix
1577:Components/Algorithm/Include/arm_math.h ****    * @return 	The function returns either  <code>ARM_MATH_SIZE_MISMATCH</code>
1578:Components/Algorithm/Include/arm_math.h ****    * or <code>ARM_MATH_SUCCESS</code> based on the outcome of size checking.
1579:Components/Algorithm/Include/arm_math.h ****    */
1580:Components/Algorithm/Include/arm_math.h **** 
1581:Components/Algorithm/Include/arm_math.h ****   arm_status arm_mat_trans_f32(
1582:Components/Algorithm/Include/arm_math.h ****   const arm_matrix_instance_f32 * pSrc,
1583:Components/Algorithm/Include/arm_math.h ****   arm_matrix_instance_f32 * pDst);
1584:Components/Algorithm/Include/arm_math.h **** 
1585:Components/Algorithm/Include/arm_math.h **** 
1586:Components/Algorithm/Include/arm_math.h ****   /**
1587:Components/Algorithm/Include/arm_math.h ****    * @brief Q15 matrix transpose.
1588:Components/Algorithm/Include/arm_math.h ****    * @param[in]  *pSrc points to the input matrix
1589:Components/Algorithm/Include/arm_math.h ****    * @param[out] *pDst points to the output matrix
ARM GAS  C:\Users\86152\AppData\Local\Temp\ccWGVtEI.s 			page 113


1590:Components/Algorithm/Include/arm_math.h ****    * @return 	The function returns either  <code>ARM_MATH_SIZE_MISMATCH</code>
1591:Components/Algorithm/Include/arm_math.h ****    * or <code>ARM_MATH_SUCCESS</code> based on the outcome of size checking.
1592:Components/Algorithm/Include/arm_math.h ****    */
1593:Components/Algorithm/Include/arm_math.h **** 
1594:Components/Algorithm/Include/arm_math.h ****   arm_status arm_mat_trans_q15(
1595:Components/Algorithm/Include/arm_math.h ****   const arm_matrix_instance_q15 * pSrc,
1596:Components/Algorithm/Include/arm_math.h ****   arm_matrix_instance_q15 * pDst);
1597:Components/Algorithm/Include/arm_math.h **** 
1598:Components/Algorithm/Include/arm_math.h ****   /**
1599:Components/Algorithm/Include/arm_math.h ****    * @brief Q31 matrix transpose.
1600:Components/Algorithm/Include/arm_math.h ****    * @param[in]  *pSrc points to the input matrix
1601:Components/Algorithm/Include/arm_math.h ****    * @param[out] *pDst points to the output matrix
1602:Components/Algorithm/Include/arm_math.h ****    * @return 	The function returns either  <code>ARM_MATH_SIZE_MISMATCH</code>
1603:Components/Algorithm/Include/arm_math.h ****    * or <code>ARM_MATH_SUCCESS</code> based on the outcome of size checking.
1604:Components/Algorithm/Include/arm_math.h ****    */
1605:Components/Algorithm/Include/arm_math.h **** 
1606:Components/Algorithm/Include/arm_math.h ****   arm_status arm_mat_trans_q31(
1607:Components/Algorithm/Include/arm_math.h ****   const arm_matrix_instance_q31 * pSrc,
1608:Components/Algorithm/Include/arm_math.h ****   arm_matrix_instance_q31 * pDst);
1609:Components/Algorithm/Include/arm_math.h **** 
1610:Components/Algorithm/Include/arm_math.h **** 
1611:Components/Algorithm/Include/arm_math.h ****   /**
1612:Components/Algorithm/Include/arm_math.h ****    * @brief Floating-point matrix multiplication
1613:Components/Algorithm/Include/arm_math.h ****    * @param[in]       *pSrcA points to the first input matrix structure
1614:Components/Algorithm/Include/arm_math.h ****    * @param[in]       *pSrcB points to the second input matrix structure
1615:Components/Algorithm/Include/arm_math.h ****    * @param[out]      *pDst points to output matrix structure
1616:Components/Algorithm/Include/arm_math.h ****    * @return     The function returns either
1617:Components/Algorithm/Include/arm_math.h ****    * <code>ARM_MATH_SIZE_MISMATCH</code> or <code>ARM_MATH_SUCCESS</code> based on the outcome of s
1618:Components/Algorithm/Include/arm_math.h ****    */
1619:Components/Algorithm/Include/arm_math.h **** 
1620:Components/Algorithm/Include/arm_math.h ****   arm_status arm_mat_mult_f32(
1621:Components/Algorithm/Include/arm_math.h ****   const arm_matrix_instance_f32 * pSrcA,
1622:Components/Algorithm/Include/arm_math.h ****   const arm_matrix_instance_f32 * pSrcB,
1623:Components/Algorithm/Include/arm_math.h ****   arm_matrix_instance_f32 * pDst);
1624:Components/Algorithm/Include/arm_math.h **** 
1625:Components/Algorithm/Include/arm_math.h ****   /**
1626:Components/Algorithm/Include/arm_math.h ****    * @brief Q15 matrix multiplication
1627:Components/Algorithm/Include/arm_math.h ****    * @param[in]       *pSrcA points to the first input matrix structure
1628:Components/Algorithm/Include/arm_math.h ****    * @param[in]       *pSrcB points to the second input matrix structure
1629:Components/Algorithm/Include/arm_math.h ****    * @param[out]      *pDst points to output matrix structure
1630:Components/Algorithm/Include/arm_math.h ****    * @param[in]		 *pState points to the array for storing intermediate results
1631:Components/Algorithm/Include/arm_math.h ****    * @return     The function returns either
1632:Components/Algorithm/Include/arm_math.h ****    * <code>ARM_MATH_SIZE_MISMATCH</code> or <code>ARM_MATH_SUCCESS</code> based on the outcome of s
1633:Components/Algorithm/Include/arm_math.h ****    */
1634:Components/Algorithm/Include/arm_math.h **** 
1635:Components/Algorithm/Include/arm_math.h ****   arm_status arm_mat_mult_q15(
1636:Components/Algorithm/Include/arm_math.h ****   const arm_matrix_instance_q15 * pSrcA,
1637:Components/Algorithm/Include/arm_math.h ****   const arm_matrix_instance_q15 * pSrcB,
1638:Components/Algorithm/Include/arm_math.h ****   arm_matrix_instance_q15 * pDst,
1639:Components/Algorithm/Include/arm_math.h ****   q15_t * pState);
1640:Components/Algorithm/Include/arm_math.h **** 
1641:Components/Algorithm/Include/arm_math.h ****   /**
1642:Components/Algorithm/Include/arm_math.h ****    * @brief Q15 matrix multiplication (fast variant) for Cortex-M3 and Cortex-M4
1643:Components/Algorithm/Include/arm_math.h ****    * @param[in]       *pSrcA  points to the first input matrix structure
1644:Components/Algorithm/Include/arm_math.h ****    * @param[in]       *pSrcB  points to the second input matrix structure
1645:Components/Algorithm/Include/arm_math.h ****    * @param[out]      *pDst   points to output matrix structure
1646:Components/Algorithm/Include/arm_math.h ****    * @param[in]		  *pState points to the array for storing intermediate results
ARM GAS  C:\Users\86152\AppData\Local\Temp\ccWGVtEI.s 			page 114


1647:Components/Algorithm/Include/arm_math.h ****    * @return     The function returns either
1648:Components/Algorithm/Include/arm_math.h ****    * <code>ARM_MATH_SIZE_MISMATCH</code> or <code>ARM_MATH_SUCCESS</code> based on the outcome of s
1649:Components/Algorithm/Include/arm_math.h ****    */
1650:Components/Algorithm/Include/arm_math.h **** 
1651:Components/Algorithm/Include/arm_math.h ****   arm_status arm_mat_mult_fast_q15(
1652:Components/Algorithm/Include/arm_math.h ****   const arm_matrix_instance_q15 * pSrcA,
1653:Components/Algorithm/Include/arm_math.h ****   const arm_matrix_instance_q15 * pSrcB,
1654:Components/Algorithm/Include/arm_math.h ****   arm_matrix_instance_q15 * pDst,
1655:Components/Algorithm/Include/arm_math.h ****   q15_t * pState);
1656:Components/Algorithm/Include/arm_math.h **** 
1657:Components/Algorithm/Include/arm_math.h ****   /**
1658:Components/Algorithm/Include/arm_math.h ****    * @brief Q31 matrix multiplication
1659:Components/Algorithm/Include/arm_math.h ****    * @param[in]       *pSrcA points to the first input matrix structure
1660:Components/Algorithm/Include/arm_math.h ****    * @param[in]       *pSrcB points to the second input matrix structure
1661:Components/Algorithm/Include/arm_math.h ****    * @param[out]      *pDst points to output matrix structure
1662:Components/Algorithm/Include/arm_math.h ****    * @return     The function returns either
1663:Components/Algorithm/Include/arm_math.h ****    * <code>ARM_MATH_SIZE_MISMATCH</code> or <code>ARM_MATH_SUCCESS</code> based on the outcome of s
1664:Components/Algorithm/Include/arm_math.h ****    */
1665:Components/Algorithm/Include/arm_math.h **** 
1666:Components/Algorithm/Include/arm_math.h ****   arm_status arm_mat_mult_q31(
1667:Components/Algorithm/Include/arm_math.h ****   const arm_matrix_instance_q31 * pSrcA,
1668:Components/Algorithm/Include/arm_math.h ****   const arm_matrix_instance_q31 * pSrcB,
1669:Components/Algorithm/Include/arm_math.h ****   arm_matrix_instance_q31 * pDst);
1670:Components/Algorithm/Include/arm_math.h **** 
1671:Components/Algorithm/Include/arm_math.h ****   /**
1672:Components/Algorithm/Include/arm_math.h ****    * @brief Q31 matrix multiplication (fast variant) for Cortex-M3 and Cortex-M4
1673:Components/Algorithm/Include/arm_math.h ****    * @param[in]       *pSrcA points to the first input matrix structure
1674:Components/Algorithm/Include/arm_math.h ****    * @param[in]       *pSrcB points to the second input matrix structure
1675:Components/Algorithm/Include/arm_math.h ****    * @param[out]      *pDst points to output matrix structure
1676:Components/Algorithm/Include/arm_math.h ****    * @return     The function returns either
1677:Components/Algorithm/Include/arm_math.h ****    * <code>ARM_MATH_SIZE_MISMATCH</code> or <code>ARM_MATH_SUCCESS</code> based on the outcome of s
1678:Components/Algorithm/Include/arm_math.h ****    */
1679:Components/Algorithm/Include/arm_math.h **** 
1680:Components/Algorithm/Include/arm_math.h ****   arm_status arm_mat_mult_fast_q31(
1681:Components/Algorithm/Include/arm_math.h ****   const arm_matrix_instance_q31 * pSrcA,
1682:Components/Algorithm/Include/arm_math.h ****   const arm_matrix_instance_q31 * pSrcB,
1683:Components/Algorithm/Include/arm_math.h ****   arm_matrix_instance_q31 * pDst);
1684:Components/Algorithm/Include/arm_math.h **** 
1685:Components/Algorithm/Include/arm_math.h **** 
1686:Components/Algorithm/Include/arm_math.h ****   /**
1687:Components/Algorithm/Include/arm_math.h ****    * @brief Floating-point matrix subtraction
1688:Components/Algorithm/Include/arm_math.h ****    * @param[in]       *pSrcA points to the first input matrix structure
1689:Components/Algorithm/Include/arm_math.h ****    * @param[in]       *pSrcB points to the second input matrix structure
1690:Components/Algorithm/Include/arm_math.h ****    * @param[out]      *pDst points to output matrix structure
1691:Components/Algorithm/Include/arm_math.h ****    * @return     The function returns either
1692:Components/Algorithm/Include/arm_math.h ****    * <code>ARM_MATH_SIZE_MISMATCH</code> or <code>ARM_MATH_SUCCESS</code> based on the outcome of s
1693:Components/Algorithm/Include/arm_math.h ****    */
1694:Components/Algorithm/Include/arm_math.h **** 
1695:Components/Algorithm/Include/arm_math.h ****   arm_status arm_mat_sub_f32(
1696:Components/Algorithm/Include/arm_math.h ****   const arm_matrix_instance_f32 * pSrcA,
1697:Components/Algorithm/Include/arm_math.h ****   const arm_matrix_instance_f32 * pSrcB,
1698:Components/Algorithm/Include/arm_math.h ****   arm_matrix_instance_f32 * pDst);
1699:Components/Algorithm/Include/arm_math.h **** 
1700:Components/Algorithm/Include/arm_math.h ****   /**
1701:Components/Algorithm/Include/arm_math.h ****    * @brief Q15 matrix subtraction
1702:Components/Algorithm/Include/arm_math.h ****    * @param[in]       *pSrcA points to the first input matrix structure
1703:Components/Algorithm/Include/arm_math.h ****    * @param[in]       *pSrcB points to the second input matrix structure
ARM GAS  C:\Users\86152\AppData\Local\Temp\ccWGVtEI.s 			page 115


1704:Components/Algorithm/Include/arm_math.h ****    * @param[out]      *pDst points to output matrix structure
1705:Components/Algorithm/Include/arm_math.h ****    * @return     The function returns either
1706:Components/Algorithm/Include/arm_math.h ****    * <code>ARM_MATH_SIZE_MISMATCH</code> or <code>ARM_MATH_SUCCESS</code> based on the outcome of s
1707:Components/Algorithm/Include/arm_math.h ****    */
1708:Components/Algorithm/Include/arm_math.h **** 
1709:Components/Algorithm/Include/arm_math.h ****   arm_status arm_mat_sub_q15(
1710:Components/Algorithm/Include/arm_math.h ****   const arm_matrix_instance_q15 * pSrcA,
1711:Components/Algorithm/Include/arm_math.h ****   const arm_matrix_instance_q15 * pSrcB,
1712:Components/Algorithm/Include/arm_math.h ****   arm_matrix_instance_q15 * pDst);
1713:Components/Algorithm/Include/arm_math.h **** 
1714:Components/Algorithm/Include/arm_math.h ****   /**
1715:Components/Algorithm/Include/arm_math.h ****    * @brief Q31 matrix subtraction
1716:Components/Algorithm/Include/arm_math.h ****    * @param[in]       *pSrcA points to the first input matrix structure
1717:Components/Algorithm/Include/arm_math.h ****    * @param[in]       *pSrcB points to the second input matrix structure
1718:Components/Algorithm/Include/arm_math.h ****    * @param[out]      *pDst points to output matrix structure
1719:Components/Algorithm/Include/arm_math.h ****    * @return     The function returns either
1720:Components/Algorithm/Include/arm_math.h ****    * <code>ARM_MATH_SIZE_MISMATCH</code> or <code>ARM_MATH_SUCCESS</code> based on the outcome of s
1721:Components/Algorithm/Include/arm_math.h ****    */
1722:Components/Algorithm/Include/arm_math.h **** 
1723:Components/Algorithm/Include/arm_math.h ****   arm_status arm_mat_sub_q31(
1724:Components/Algorithm/Include/arm_math.h ****   const arm_matrix_instance_q31 * pSrcA,
1725:Components/Algorithm/Include/arm_math.h ****   const arm_matrix_instance_q31 * pSrcB,
1726:Components/Algorithm/Include/arm_math.h ****   arm_matrix_instance_q31 * pDst);
1727:Components/Algorithm/Include/arm_math.h **** 
1728:Components/Algorithm/Include/arm_math.h ****   /**
1729:Components/Algorithm/Include/arm_math.h ****    * @brief Floating-point matrix scaling.
1730:Components/Algorithm/Include/arm_math.h ****    * @param[in]  *pSrc points to the input matrix
1731:Components/Algorithm/Include/arm_math.h ****    * @param[in]  scale scale factor
1732:Components/Algorithm/Include/arm_math.h ****    * @param[out] *pDst points to the output matrix
1733:Components/Algorithm/Include/arm_math.h ****    * @return     The function returns either
1734:Components/Algorithm/Include/arm_math.h ****    * <code>ARM_MATH_SIZE_MISMATCH</code> or <code>ARM_MATH_SUCCESS</code> based on the outcome of s
1735:Components/Algorithm/Include/arm_math.h ****    */
1736:Components/Algorithm/Include/arm_math.h **** 
1737:Components/Algorithm/Include/arm_math.h ****   arm_status arm_mat_scale_f32(
1738:Components/Algorithm/Include/arm_math.h ****   const arm_matrix_instance_f32 * pSrc,
1739:Components/Algorithm/Include/arm_math.h ****   float32_t scale,
1740:Components/Algorithm/Include/arm_math.h ****   arm_matrix_instance_f32 * pDst);
1741:Components/Algorithm/Include/arm_math.h **** 
1742:Components/Algorithm/Include/arm_math.h ****   /**
1743:Components/Algorithm/Include/arm_math.h ****    * @brief Q15 matrix scaling.
1744:Components/Algorithm/Include/arm_math.h ****    * @param[in]       *pSrc points to input matrix
1745:Components/Algorithm/Include/arm_math.h ****    * @param[in]       scaleFract fractional portion of the scale factor
1746:Components/Algorithm/Include/arm_math.h ****    * @param[in]       shift number of bits to shift the result by
1747:Components/Algorithm/Include/arm_math.h ****    * @param[out]      *pDst points to output matrix
1748:Components/Algorithm/Include/arm_math.h ****    * @return     The function returns either
1749:Components/Algorithm/Include/arm_math.h ****    * <code>ARM_MATH_SIZE_MISMATCH</code> or <code>ARM_MATH_SUCCESS</code> based on the outcome of s
1750:Components/Algorithm/Include/arm_math.h ****    */
1751:Components/Algorithm/Include/arm_math.h **** 
1752:Components/Algorithm/Include/arm_math.h ****   arm_status arm_mat_scale_q15(
1753:Components/Algorithm/Include/arm_math.h ****   const arm_matrix_instance_q15 * pSrc,
1754:Components/Algorithm/Include/arm_math.h ****   q15_t scaleFract,
1755:Components/Algorithm/Include/arm_math.h ****   int32_t shift,
1756:Components/Algorithm/Include/arm_math.h ****   arm_matrix_instance_q15 * pDst);
1757:Components/Algorithm/Include/arm_math.h **** 
1758:Components/Algorithm/Include/arm_math.h ****   /**
1759:Components/Algorithm/Include/arm_math.h ****    * @brief Q31 matrix scaling.
1760:Components/Algorithm/Include/arm_math.h ****    * @param[in]       *pSrc points to input matrix
ARM GAS  C:\Users\86152\AppData\Local\Temp\ccWGVtEI.s 			page 116


1761:Components/Algorithm/Include/arm_math.h ****    * @param[in]       scaleFract fractional portion of the scale factor
1762:Components/Algorithm/Include/arm_math.h ****    * @param[in]       shift number of bits to shift the result by
1763:Components/Algorithm/Include/arm_math.h ****    * @param[out]      *pDst points to output matrix structure
1764:Components/Algorithm/Include/arm_math.h ****    * @return     The function returns either
1765:Components/Algorithm/Include/arm_math.h ****    * <code>ARM_MATH_SIZE_MISMATCH</code> or <code>ARM_MATH_SUCCESS</code> based on the outcome of s
1766:Components/Algorithm/Include/arm_math.h ****    */
1767:Components/Algorithm/Include/arm_math.h **** 
1768:Components/Algorithm/Include/arm_math.h ****   arm_status arm_mat_scale_q31(
1769:Components/Algorithm/Include/arm_math.h ****   const arm_matrix_instance_q31 * pSrc,
1770:Components/Algorithm/Include/arm_math.h ****   q31_t scaleFract,
1771:Components/Algorithm/Include/arm_math.h ****   int32_t shift,
1772:Components/Algorithm/Include/arm_math.h ****   arm_matrix_instance_q31 * pDst);
1773:Components/Algorithm/Include/arm_math.h **** 
1774:Components/Algorithm/Include/arm_math.h **** 
1775:Components/Algorithm/Include/arm_math.h ****   /**
1776:Components/Algorithm/Include/arm_math.h ****    * @brief  Q31 matrix initialization.
1777:Components/Algorithm/Include/arm_math.h ****    * @param[in,out] *S             points to an instance of the floating-point matrix structure.
1778:Components/Algorithm/Include/arm_math.h ****    * @param[in]     nRows          number of rows in the matrix.
1779:Components/Algorithm/Include/arm_math.h ****    * @param[in]     nColumns       number of columns in the matrix.
1780:Components/Algorithm/Include/arm_math.h ****    * @param[in]     *pData	       points to the matrix data array.
1781:Components/Algorithm/Include/arm_math.h ****    * @return        none
1782:Components/Algorithm/Include/arm_math.h ****    */
1783:Components/Algorithm/Include/arm_math.h **** 
1784:Components/Algorithm/Include/arm_math.h ****   void arm_mat_init_q31(
1785:Components/Algorithm/Include/arm_math.h ****   arm_matrix_instance_q31 * S,
1786:Components/Algorithm/Include/arm_math.h ****   uint16_t nRows,
1787:Components/Algorithm/Include/arm_math.h ****   uint16_t nColumns,
1788:Components/Algorithm/Include/arm_math.h ****   q31_t * pData);
1789:Components/Algorithm/Include/arm_math.h **** 
1790:Components/Algorithm/Include/arm_math.h ****   /**
1791:Components/Algorithm/Include/arm_math.h ****    * @brief  Q15 matrix initialization.
1792:Components/Algorithm/Include/arm_math.h ****    * @param[in,out] *S             points to an instance of the floating-point matrix structure.
1793:Components/Algorithm/Include/arm_math.h ****    * @param[in]     nRows          number of rows in the matrix.
1794:Components/Algorithm/Include/arm_math.h ****    * @param[in]     nColumns       number of columns in the matrix.
1795:Components/Algorithm/Include/arm_math.h ****    * @param[in]     *pData	       points to the matrix data array.
1796:Components/Algorithm/Include/arm_math.h ****    * @return        none
1797:Components/Algorithm/Include/arm_math.h ****    */
1798:Components/Algorithm/Include/arm_math.h **** 
1799:Components/Algorithm/Include/arm_math.h ****   void arm_mat_init_q15(
1800:Components/Algorithm/Include/arm_math.h ****   arm_matrix_instance_q15 * S,
1801:Components/Algorithm/Include/arm_math.h ****   uint16_t nRows,
1802:Components/Algorithm/Include/arm_math.h ****   uint16_t nColumns,
1803:Components/Algorithm/Include/arm_math.h ****   q15_t * pData);
1804:Components/Algorithm/Include/arm_math.h **** 
1805:Components/Algorithm/Include/arm_math.h ****   /**
1806:Components/Algorithm/Include/arm_math.h ****    * @brief  Floating-point matrix initialization.
1807:Components/Algorithm/Include/arm_math.h ****    * @param[in,out] *S             points to an instance of the floating-point matrix structure.
1808:Components/Algorithm/Include/arm_math.h ****    * @param[in]     nRows          number of rows in the matrix.
1809:Components/Algorithm/Include/arm_math.h ****    * @param[in]     nColumns       number of columns in the matrix.
1810:Components/Algorithm/Include/arm_math.h ****    * @param[in]     *pData	       points to the matrix data array.
1811:Components/Algorithm/Include/arm_math.h ****    * @return        none
1812:Components/Algorithm/Include/arm_math.h ****    */
1813:Components/Algorithm/Include/arm_math.h **** 
1814:Components/Algorithm/Include/arm_math.h ****   void arm_mat_init_f32(
1815:Components/Algorithm/Include/arm_math.h ****   arm_matrix_instance_f32 * S,
1816:Components/Algorithm/Include/arm_math.h ****   uint16_t nRows,
1817:Components/Algorithm/Include/arm_math.h ****   uint16_t nColumns,
ARM GAS  C:\Users\86152\AppData\Local\Temp\ccWGVtEI.s 			page 117


1818:Components/Algorithm/Include/arm_math.h ****   float32_t * pData);
1819:Components/Algorithm/Include/arm_math.h **** 
1820:Components/Algorithm/Include/arm_math.h **** 
1821:Components/Algorithm/Include/arm_math.h **** 
1822:Components/Algorithm/Include/arm_math.h ****   /**
1823:Components/Algorithm/Include/arm_math.h ****    * @brief Instance structure for the Q15 PID Control.
1824:Components/Algorithm/Include/arm_math.h ****    */
1825:Components/Algorithm/Include/arm_math.h ****   typedef struct
1826:Components/Algorithm/Include/arm_math.h ****   {
1827:Components/Algorithm/Include/arm_math.h ****     q15_t A0;    /**< The derived gain, A0 = Kp + Ki + Kd . */
1828:Components/Algorithm/Include/arm_math.h **** #ifdef ARM_MATH_CM0_FAMILY
1829:Components/Algorithm/Include/arm_math.h ****     q15_t A1;
1830:Components/Algorithm/Include/arm_math.h ****     q15_t A2;
1831:Components/Algorithm/Include/arm_math.h **** #else
1832:Components/Algorithm/Include/arm_math.h ****     q31_t A1;           /**< The derived gain A1 = -Kp - 2Kd | Kd.*/
1833:Components/Algorithm/Include/arm_math.h **** #endif
1834:Components/Algorithm/Include/arm_math.h ****     q15_t state[3];       /**< The state array of length 3. */
1835:Components/Algorithm/Include/arm_math.h ****     q15_t Kp;           /**< The proportional gain. */
1836:Components/Algorithm/Include/arm_math.h ****     q15_t Ki;           /**< The integral gain. */
1837:Components/Algorithm/Include/arm_math.h ****     q15_t Kd;           /**< The derivative gain. */
1838:Components/Algorithm/Include/arm_math.h ****   } arm_pid_instance_q15;
1839:Components/Algorithm/Include/arm_math.h **** 
1840:Components/Algorithm/Include/arm_math.h ****   /**
1841:Components/Algorithm/Include/arm_math.h ****    * @brief Instance structure for the Q31 PID Control.
1842:Components/Algorithm/Include/arm_math.h ****    */
1843:Components/Algorithm/Include/arm_math.h ****   typedef struct
1844:Components/Algorithm/Include/arm_math.h ****   {
1845:Components/Algorithm/Include/arm_math.h ****     q31_t A0;            /**< The derived gain, A0 = Kp + Ki + Kd . */
1846:Components/Algorithm/Include/arm_math.h ****     q31_t A1;            /**< The derived gain, A1 = -Kp - 2Kd. */
1847:Components/Algorithm/Include/arm_math.h ****     q31_t A2;            /**< The derived gain, A2 = Kd . */
1848:Components/Algorithm/Include/arm_math.h ****     q31_t state[3];      /**< The state array of length 3. */
1849:Components/Algorithm/Include/arm_math.h ****     q31_t Kp;            /**< The proportional gain. */
1850:Components/Algorithm/Include/arm_math.h ****     q31_t Ki;            /**< The integral gain. */
1851:Components/Algorithm/Include/arm_math.h ****     q31_t Kd;            /**< The derivative gain. */
1852:Components/Algorithm/Include/arm_math.h **** 
1853:Components/Algorithm/Include/arm_math.h ****   } arm_pid_instance_q31;
1854:Components/Algorithm/Include/arm_math.h **** 
1855:Components/Algorithm/Include/arm_math.h ****   /**
1856:Components/Algorithm/Include/arm_math.h ****    * @brief Instance structure for the floating-point PID Control.
1857:Components/Algorithm/Include/arm_math.h ****    */
1858:Components/Algorithm/Include/arm_math.h ****   typedef struct
1859:Components/Algorithm/Include/arm_math.h ****   {
1860:Components/Algorithm/Include/arm_math.h ****     float32_t A0;          /**< The derived gain, A0 = Kp + Ki + Kd . */
1861:Components/Algorithm/Include/arm_math.h ****     float32_t A1;          /**< The derived gain, A1 = -Kp - 2Kd. */
1862:Components/Algorithm/Include/arm_math.h ****     float32_t A2;          /**< The derived gain, A2 = Kd . */
1863:Components/Algorithm/Include/arm_math.h ****     float32_t state[3];    /**< The state array of length 3. */
1864:Components/Algorithm/Include/arm_math.h ****     float32_t Kp;               /**< The proportional gain. */
1865:Components/Algorithm/Include/arm_math.h ****     float32_t Ki;               /**< The integral gain. */
1866:Components/Algorithm/Include/arm_math.h ****     float32_t Kd;               /**< The derivative gain. */
1867:Components/Algorithm/Include/arm_math.h ****   } arm_pid_instance_f32;
1868:Components/Algorithm/Include/arm_math.h **** 
1869:Components/Algorithm/Include/arm_math.h **** 
1870:Components/Algorithm/Include/arm_math.h **** 
1871:Components/Algorithm/Include/arm_math.h ****   /**
1872:Components/Algorithm/Include/arm_math.h ****    * @brief  Initialization function for the floating-point PID Control.
1873:Components/Algorithm/Include/arm_math.h ****    * @param[in,out] *S      points to an instance of the PID structure.
1874:Components/Algorithm/Include/arm_math.h ****    * @param[in]     resetStateFlag  flag to reset the state. 0 = no change in state 1 = reset the s
ARM GAS  C:\Users\86152\AppData\Local\Temp\ccWGVtEI.s 			page 118


1875:Components/Algorithm/Include/arm_math.h ****    * @return none.
1876:Components/Algorithm/Include/arm_math.h ****    */
1877:Components/Algorithm/Include/arm_math.h ****   void arm_pid_init_f32(
1878:Components/Algorithm/Include/arm_math.h ****   arm_pid_instance_f32 * S,
1879:Components/Algorithm/Include/arm_math.h ****   int32_t resetStateFlag);
1880:Components/Algorithm/Include/arm_math.h **** 
1881:Components/Algorithm/Include/arm_math.h ****   /**
1882:Components/Algorithm/Include/arm_math.h ****    * @brief  Reset function for the floating-point PID Control.
1883:Components/Algorithm/Include/arm_math.h ****    * @param[in,out] *S is an instance of the floating-point PID Control structure
1884:Components/Algorithm/Include/arm_math.h ****    * @return none
1885:Components/Algorithm/Include/arm_math.h ****    */
1886:Components/Algorithm/Include/arm_math.h ****   void arm_pid_reset_f32(
1887:Components/Algorithm/Include/arm_math.h ****   arm_pid_instance_f32 * S);
1888:Components/Algorithm/Include/arm_math.h **** 
1889:Components/Algorithm/Include/arm_math.h **** 
1890:Components/Algorithm/Include/arm_math.h ****   /**
1891:Components/Algorithm/Include/arm_math.h ****    * @brief  Initialization function for the Q31 PID Control.
1892:Components/Algorithm/Include/arm_math.h ****    * @param[in,out] *S points to an instance of the Q15 PID structure.
1893:Components/Algorithm/Include/arm_math.h ****    * @param[in]     resetStateFlag  flag to reset the state. 0 = no change in state 1 = reset the s
1894:Components/Algorithm/Include/arm_math.h ****    * @return none.
1895:Components/Algorithm/Include/arm_math.h ****    */
1896:Components/Algorithm/Include/arm_math.h ****   void arm_pid_init_q31(
1897:Components/Algorithm/Include/arm_math.h ****   arm_pid_instance_q31 * S,
1898:Components/Algorithm/Include/arm_math.h ****   int32_t resetStateFlag);
1899:Components/Algorithm/Include/arm_math.h **** 
1900:Components/Algorithm/Include/arm_math.h **** 
1901:Components/Algorithm/Include/arm_math.h ****   /**
1902:Components/Algorithm/Include/arm_math.h ****    * @brief  Reset function for the Q31 PID Control.
1903:Components/Algorithm/Include/arm_math.h ****    * @param[in,out] *S points to an instance of the Q31 PID Control structure
1904:Components/Algorithm/Include/arm_math.h ****    * @return none
1905:Components/Algorithm/Include/arm_math.h ****    */
1906:Components/Algorithm/Include/arm_math.h **** 
1907:Components/Algorithm/Include/arm_math.h ****   void arm_pid_reset_q31(
1908:Components/Algorithm/Include/arm_math.h ****   arm_pid_instance_q31 * S);
1909:Components/Algorithm/Include/arm_math.h **** 
1910:Components/Algorithm/Include/arm_math.h ****   /**
1911:Components/Algorithm/Include/arm_math.h ****    * @brief  Initialization function for the Q15 PID Control.
1912:Components/Algorithm/Include/arm_math.h ****    * @param[in,out] *S points to an instance of the Q15 PID structure.
1913:Components/Algorithm/Include/arm_math.h ****    * @param[in] resetStateFlag  flag to reset the state. 0 = no change in state 1 = reset the state
1914:Components/Algorithm/Include/arm_math.h ****    * @return none.
1915:Components/Algorithm/Include/arm_math.h ****    */
1916:Components/Algorithm/Include/arm_math.h ****   void arm_pid_init_q15(
1917:Components/Algorithm/Include/arm_math.h ****   arm_pid_instance_q15 * S,
1918:Components/Algorithm/Include/arm_math.h ****   int32_t resetStateFlag);
1919:Components/Algorithm/Include/arm_math.h **** 
1920:Components/Algorithm/Include/arm_math.h ****   /**
1921:Components/Algorithm/Include/arm_math.h ****    * @brief  Reset function for the Q15 PID Control.
1922:Components/Algorithm/Include/arm_math.h ****    * @param[in,out] *S points to an instance of the q15 PID Control structure
1923:Components/Algorithm/Include/arm_math.h ****    * @return none
1924:Components/Algorithm/Include/arm_math.h ****    */
1925:Components/Algorithm/Include/arm_math.h ****   void arm_pid_reset_q15(
1926:Components/Algorithm/Include/arm_math.h ****   arm_pid_instance_q15 * S);
1927:Components/Algorithm/Include/arm_math.h **** 
1928:Components/Algorithm/Include/arm_math.h **** 
1929:Components/Algorithm/Include/arm_math.h ****   /**
1930:Components/Algorithm/Include/arm_math.h ****    * @brief Instance structure for the floating-point Linear Interpolate function.
1931:Components/Algorithm/Include/arm_math.h ****    */
ARM GAS  C:\Users\86152\AppData\Local\Temp\ccWGVtEI.s 			page 119


1932:Components/Algorithm/Include/arm_math.h ****   typedef struct
1933:Components/Algorithm/Include/arm_math.h ****   {
1934:Components/Algorithm/Include/arm_math.h ****     uint32_t nValues;           /**< nValues */
1935:Components/Algorithm/Include/arm_math.h ****     float32_t x1;               /**< x1 */
1936:Components/Algorithm/Include/arm_math.h ****     float32_t xSpacing;         /**< xSpacing */
1937:Components/Algorithm/Include/arm_math.h ****     float32_t *pYData;          /**< pointer to the table of Y values */
1938:Components/Algorithm/Include/arm_math.h ****   } arm_linear_interp_instance_f32;
1939:Components/Algorithm/Include/arm_math.h **** 
1940:Components/Algorithm/Include/arm_math.h ****   /**
1941:Components/Algorithm/Include/arm_math.h ****    * @brief Instance structure for the floating-point bilinear interpolation function.
1942:Components/Algorithm/Include/arm_math.h ****    */
1943:Components/Algorithm/Include/arm_math.h **** 
1944:Components/Algorithm/Include/arm_math.h ****   typedef struct
1945:Components/Algorithm/Include/arm_math.h ****   {
1946:Components/Algorithm/Include/arm_math.h ****     uint16_t numRows;   /**< number of rows in the data table. */
1947:Components/Algorithm/Include/arm_math.h ****     uint16_t numCols;   /**< number of columns in the data table. */
1948:Components/Algorithm/Include/arm_math.h ****     float32_t *pData;   /**< points to the data table. */
1949:Components/Algorithm/Include/arm_math.h ****   } arm_bilinear_interp_instance_f32;
1950:Components/Algorithm/Include/arm_math.h **** 
1951:Components/Algorithm/Include/arm_math.h ****    /**
1952:Components/Algorithm/Include/arm_math.h ****    * @brief Instance structure for the Q31 bilinear interpolation function.
1953:Components/Algorithm/Include/arm_math.h ****    */
1954:Components/Algorithm/Include/arm_math.h **** 
1955:Components/Algorithm/Include/arm_math.h ****   typedef struct
1956:Components/Algorithm/Include/arm_math.h ****   {
1957:Components/Algorithm/Include/arm_math.h ****     uint16_t numRows;   /**< number of rows in the data table. */
1958:Components/Algorithm/Include/arm_math.h ****     uint16_t numCols;   /**< number of columns in the data table. */
1959:Components/Algorithm/Include/arm_math.h ****     q31_t *pData;       /**< points to the data table. */
1960:Components/Algorithm/Include/arm_math.h ****   } arm_bilinear_interp_instance_q31;
1961:Components/Algorithm/Include/arm_math.h **** 
1962:Components/Algorithm/Include/arm_math.h ****    /**
1963:Components/Algorithm/Include/arm_math.h ****    * @brief Instance structure for the Q15 bilinear interpolation function.
1964:Components/Algorithm/Include/arm_math.h ****    */
1965:Components/Algorithm/Include/arm_math.h **** 
1966:Components/Algorithm/Include/arm_math.h ****   typedef struct
1967:Components/Algorithm/Include/arm_math.h ****   {
1968:Components/Algorithm/Include/arm_math.h ****     uint16_t numRows;   /**< number of rows in the data table. */
1969:Components/Algorithm/Include/arm_math.h ****     uint16_t numCols;   /**< number of columns in the data table. */
1970:Components/Algorithm/Include/arm_math.h ****     q15_t *pData;       /**< points to the data table. */
1971:Components/Algorithm/Include/arm_math.h ****   } arm_bilinear_interp_instance_q15;
1972:Components/Algorithm/Include/arm_math.h **** 
1973:Components/Algorithm/Include/arm_math.h ****    /**
1974:Components/Algorithm/Include/arm_math.h ****    * @brief Instance structure for the Q15 bilinear interpolation function.
1975:Components/Algorithm/Include/arm_math.h ****    */
1976:Components/Algorithm/Include/arm_math.h **** 
1977:Components/Algorithm/Include/arm_math.h ****   typedef struct
1978:Components/Algorithm/Include/arm_math.h ****   {
1979:Components/Algorithm/Include/arm_math.h ****     uint16_t numRows;   /**< number of rows in the data table. */
1980:Components/Algorithm/Include/arm_math.h ****     uint16_t numCols;   /**< number of columns in the data table. */
1981:Components/Algorithm/Include/arm_math.h ****     q7_t *pData;                /**< points to the data table. */
1982:Components/Algorithm/Include/arm_math.h ****   } arm_bilinear_interp_instance_q7;
1983:Components/Algorithm/Include/arm_math.h **** 
1984:Components/Algorithm/Include/arm_math.h **** 
1985:Components/Algorithm/Include/arm_math.h ****   /**
1986:Components/Algorithm/Include/arm_math.h ****    * @brief Q7 vector multiplication.
1987:Components/Algorithm/Include/arm_math.h ****    * @param[in]       *pSrcA points to the first input vector
1988:Components/Algorithm/Include/arm_math.h ****    * @param[in]       *pSrcB points to the second input vector
ARM GAS  C:\Users\86152\AppData\Local\Temp\ccWGVtEI.s 			page 120


1989:Components/Algorithm/Include/arm_math.h ****    * @param[out]      *pDst  points to the output vector
1990:Components/Algorithm/Include/arm_math.h ****    * @param[in]       blockSize number of samples in each vector
1991:Components/Algorithm/Include/arm_math.h ****    * @return none.
1992:Components/Algorithm/Include/arm_math.h ****    */
1993:Components/Algorithm/Include/arm_math.h **** 
1994:Components/Algorithm/Include/arm_math.h ****   void arm_mult_q7(
1995:Components/Algorithm/Include/arm_math.h ****   q7_t * pSrcA,
1996:Components/Algorithm/Include/arm_math.h ****   q7_t * pSrcB,
1997:Components/Algorithm/Include/arm_math.h ****   q7_t * pDst,
1998:Components/Algorithm/Include/arm_math.h ****   uint32_t blockSize);
1999:Components/Algorithm/Include/arm_math.h **** 
2000:Components/Algorithm/Include/arm_math.h ****   /**
2001:Components/Algorithm/Include/arm_math.h ****    * @brief Q15 vector multiplication.
2002:Components/Algorithm/Include/arm_math.h ****    * @param[in]       *pSrcA points to the first input vector
2003:Components/Algorithm/Include/arm_math.h ****    * @param[in]       *pSrcB points to the second input vector
2004:Components/Algorithm/Include/arm_math.h ****    * @param[out]      *pDst  points to the output vector
2005:Components/Algorithm/Include/arm_math.h ****    * @param[in]       blockSize number of samples in each vector
2006:Components/Algorithm/Include/arm_math.h ****    * @return none.
2007:Components/Algorithm/Include/arm_math.h ****    */
2008:Components/Algorithm/Include/arm_math.h **** 
2009:Components/Algorithm/Include/arm_math.h ****   void arm_mult_q15(
2010:Components/Algorithm/Include/arm_math.h ****   q15_t * pSrcA,
2011:Components/Algorithm/Include/arm_math.h ****   q15_t * pSrcB,
2012:Components/Algorithm/Include/arm_math.h ****   q15_t * pDst,
2013:Components/Algorithm/Include/arm_math.h ****   uint32_t blockSize);
2014:Components/Algorithm/Include/arm_math.h **** 
2015:Components/Algorithm/Include/arm_math.h ****   /**
2016:Components/Algorithm/Include/arm_math.h ****    * @brief Q31 vector multiplication.
2017:Components/Algorithm/Include/arm_math.h ****    * @param[in]       *pSrcA points to the first input vector
2018:Components/Algorithm/Include/arm_math.h ****    * @param[in]       *pSrcB points to the second input vector
2019:Components/Algorithm/Include/arm_math.h ****    * @param[out]      *pDst points to the output vector
2020:Components/Algorithm/Include/arm_math.h ****    * @param[in]       blockSize number of samples in each vector
2021:Components/Algorithm/Include/arm_math.h ****    * @return none.
2022:Components/Algorithm/Include/arm_math.h ****    */
2023:Components/Algorithm/Include/arm_math.h **** 
2024:Components/Algorithm/Include/arm_math.h ****   void arm_mult_q31(
2025:Components/Algorithm/Include/arm_math.h ****   q31_t * pSrcA,
2026:Components/Algorithm/Include/arm_math.h ****   q31_t * pSrcB,
2027:Components/Algorithm/Include/arm_math.h ****   q31_t * pDst,
2028:Components/Algorithm/Include/arm_math.h ****   uint32_t blockSize);
2029:Components/Algorithm/Include/arm_math.h **** 
2030:Components/Algorithm/Include/arm_math.h ****   /**
2031:Components/Algorithm/Include/arm_math.h ****    * @brief Floating-point vector multiplication.
2032:Components/Algorithm/Include/arm_math.h ****    * @param[in]       *pSrcA points to the first input vector
2033:Components/Algorithm/Include/arm_math.h ****    * @param[in]       *pSrcB points to the second input vector
2034:Components/Algorithm/Include/arm_math.h ****    * @param[out]      *pDst points to the output vector
2035:Components/Algorithm/Include/arm_math.h ****    * @param[in]       blockSize number of samples in each vector
2036:Components/Algorithm/Include/arm_math.h ****    * @return none.
2037:Components/Algorithm/Include/arm_math.h ****    */
2038:Components/Algorithm/Include/arm_math.h **** 
2039:Components/Algorithm/Include/arm_math.h ****   void arm_mult_f32(
2040:Components/Algorithm/Include/arm_math.h ****   float32_t * pSrcA,
2041:Components/Algorithm/Include/arm_math.h ****   float32_t * pSrcB,
2042:Components/Algorithm/Include/arm_math.h ****   float32_t * pDst,
2043:Components/Algorithm/Include/arm_math.h ****   uint32_t blockSize);
2044:Components/Algorithm/Include/arm_math.h **** 
2045:Components/Algorithm/Include/arm_math.h **** 
ARM GAS  C:\Users\86152\AppData\Local\Temp\ccWGVtEI.s 			page 121


2046:Components/Algorithm/Include/arm_math.h **** 
2047:Components/Algorithm/Include/arm_math.h **** 
2048:Components/Algorithm/Include/arm_math.h **** 
2049:Components/Algorithm/Include/arm_math.h **** 
2050:Components/Algorithm/Include/arm_math.h ****   /**
2051:Components/Algorithm/Include/arm_math.h ****    * @brief Instance structure for the Q15 CFFT/CIFFT function.
2052:Components/Algorithm/Include/arm_math.h ****    */
2053:Components/Algorithm/Include/arm_math.h **** 
2054:Components/Algorithm/Include/arm_math.h ****   typedef struct
2055:Components/Algorithm/Include/arm_math.h ****   {
2056:Components/Algorithm/Include/arm_math.h ****     uint16_t fftLen;                 /**< length of the FFT. */
2057:Components/Algorithm/Include/arm_math.h ****     uint8_t ifftFlag;                /**< flag that selects forward (ifftFlag=0) or inverse (ifftFl
2058:Components/Algorithm/Include/arm_math.h ****     uint8_t bitReverseFlag;          /**< flag that enables (bitReverseFlag=1) or disables (bitReve
2059:Components/Algorithm/Include/arm_math.h ****     q15_t *pTwiddle;                     /**< points to the Sin twiddle factor table. */
2060:Components/Algorithm/Include/arm_math.h ****     uint16_t *pBitRevTable;          /**< points to the bit reversal table. */
2061:Components/Algorithm/Include/arm_math.h ****     uint16_t twidCoefModifier;       /**< twiddle coefficient modifier that supports different size
2062:Components/Algorithm/Include/arm_math.h ****     uint16_t bitRevFactor;           /**< bit reversal modifier that supports different size FFTs w
2063:Components/Algorithm/Include/arm_math.h ****   } arm_cfft_radix2_instance_q15;
2064:Components/Algorithm/Include/arm_math.h **** 
2065:Components/Algorithm/Include/arm_math.h **** /* Deprecated */
2066:Components/Algorithm/Include/arm_math.h ****   arm_status arm_cfft_radix2_init_q15(
2067:Components/Algorithm/Include/arm_math.h ****   arm_cfft_radix2_instance_q15 * S,
2068:Components/Algorithm/Include/arm_math.h ****   uint16_t fftLen,
2069:Components/Algorithm/Include/arm_math.h ****   uint8_t ifftFlag,
2070:Components/Algorithm/Include/arm_math.h ****   uint8_t bitReverseFlag);
2071:Components/Algorithm/Include/arm_math.h **** 
2072:Components/Algorithm/Include/arm_math.h **** /* Deprecated */
2073:Components/Algorithm/Include/arm_math.h ****   void arm_cfft_radix2_q15(
2074:Components/Algorithm/Include/arm_math.h ****   const arm_cfft_radix2_instance_q15 * S,
2075:Components/Algorithm/Include/arm_math.h ****   q15_t * pSrc);
2076:Components/Algorithm/Include/arm_math.h **** 
2077:Components/Algorithm/Include/arm_math.h **** 
2078:Components/Algorithm/Include/arm_math.h **** 
2079:Components/Algorithm/Include/arm_math.h ****   /**
2080:Components/Algorithm/Include/arm_math.h ****    * @brief Instance structure for the Q15 CFFT/CIFFT function.
2081:Components/Algorithm/Include/arm_math.h ****    */
2082:Components/Algorithm/Include/arm_math.h **** 
2083:Components/Algorithm/Include/arm_math.h ****   typedef struct
2084:Components/Algorithm/Include/arm_math.h ****   {
2085:Components/Algorithm/Include/arm_math.h ****     uint16_t fftLen;                 /**< length of the FFT. */
2086:Components/Algorithm/Include/arm_math.h ****     uint8_t ifftFlag;                /**< flag that selects forward (ifftFlag=0) or inverse (ifftFl
2087:Components/Algorithm/Include/arm_math.h ****     uint8_t bitReverseFlag;          /**< flag that enables (bitReverseFlag=1) or disables (bitReve
2088:Components/Algorithm/Include/arm_math.h ****     q15_t *pTwiddle;                 /**< points to the twiddle factor table. */
2089:Components/Algorithm/Include/arm_math.h ****     uint16_t *pBitRevTable;          /**< points to the bit reversal table. */
2090:Components/Algorithm/Include/arm_math.h ****     uint16_t twidCoefModifier;       /**< twiddle coefficient modifier that supports different size
2091:Components/Algorithm/Include/arm_math.h ****     uint16_t bitRevFactor;           /**< bit reversal modifier that supports different size FFTs w
2092:Components/Algorithm/Include/arm_math.h ****   } arm_cfft_radix4_instance_q15;
2093:Components/Algorithm/Include/arm_math.h **** 
2094:Components/Algorithm/Include/arm_math.h **** /* Deprecated */
2095:Components/Algorithm/Include/arm_math.h ****   arm_status arm_cfft_radix4_init_q15(
2096:Components/Algorithm/Include/arm_math.h ****   arm_cfft_radix4_instance_q15 * S,
2097:Components/Algorithm/Include/arm_math.h ****   uint16_t fftLen,
2098:Components/Algorithm/Include/arm_math.h ****   uint8_t ifftFlag,
2099:Components/Algorithm/Include/arm_math.h ****   uint8_t bitReverseFlag);
2100:Components/Algorithm/Include/arm_math.h **** 
2101:Components/Algorithm/Include/arm_math.h **** /* Deprecated */
2102:Components/Algorithm/Include/arm_math.h ****   void arm_cfft_radix4_q15(
ARM GAS  C:\Users\86152\AppData\Local\Temp\ccWGVtEI.s 			page 122


2103:Components/Algorithm/Include/arm_math.h ****   const arm_cfft_radix4_instance_q15 * S,
2104:Components/Algorithm/Include/arm_math.h ****   q15_t * pSrc);
2105:Components/Algorithm/Include/arm_math.h **** 
2106:Components/Algorithm/Include/arm_math.h ****   /**
2107:Components/Algorithm/Include/arm_math.h ****    * @brief Instance structure for the Radix-2 Q31 CFFT/CIFFT function.
2108:Components/Algorithm/Include/arm_math.h ****    */
2109:Components/Algorithm/Include/arm_math.h **** 
2110:Components/Algorithm/Include/arm_math.h ****   typedef struct
2111:Components/Algorithm/Include/arm_math.h ****   {
2112:Components/Algorithm/Include/arm_math.h ****     uint16_t fftLen;                 /**< length of the FFT. */
2113:Components/Algorithm/Include/arm_math.h ****     uint8_t ifftFlag;                /**< flag that selects forward (ifftFlag=0) or inverse (ifftFl
2114:Components/Algorithm/Include/arm_math.h ****     uint8_t bitReverseFlag;          /**< flag that enables (bitReverseFlag=1) or disables (bitReve
2115:Components/Algorithm/Include/arm_math.h ****     q31_t *pTwiddle;                     /**< points to the Twiddle factor table. */
2116:Components/Algorithm/Include/arm_math.h ****     uint16_t *pBitRevTable;          /**< points to the bit reversal table. */
2117:Components/Algorithm/Include/arm_math.h ****     uint16_t twidCoefModifier;       /**< twiddle coefficient modifier that supports different size
2118:Components/Algorithm/Include/arm_math.h ****     uint16_t bitRevFactor;           /**< bit reversal modifier that supports different size FFTs w
2119:Components/Algorithm/Include/arm_math.h ****   } arm_cfft_radix2_instance_q31;
2120:Components/Algorithm/Include/arm_math.h **** 
2121:Components/Algorithm/Include/arm_math.h **** /* Deprecated */
2122:Components/Algorithm/Include/arm_math.h ****   arm_status arm_cfft_radix2_init_q31(
2123:Components/Algorithm/Include/arm_math.h ****   arm_cfft_radix2_instance_q31 * S,
2124:Components/Algorithm/Include/arm_math.h ****   uint16_t fftLen,
2125:Components/Algorithm/Include/arm_math.h ****   uint8_t ifftFlag,
2126:Components/Algorithm/Include/arm_math.h ****   uint8_t bitReverseFlag);
2127:Components/Algorithm/Include/arm_math.h **** 
2128:Components/Algorithm/Include/arm_math.h **** /* Deprecated */
2129:Components/Algorithm/Include/arm_math.h ****   void arm_cfft_radix2_q31(
2130:Components/Algorithm/Include/arm_math.h ****   const arm_cfft_radix2_instance_q31 * S,
2131:Components/Algorithm/Include/arm_math.h ****   q31_t * pSrc);
2132:Components/Algorithm/Include/arm_math.h **** 
2133:Components/Algorithm/Include/arm_math.h ****   /**
2134:Components/Algorithm/Include/arm_math.h ****    * @brief Instance structure for the Q31 CFFT/CIFFT function.
2135:Components/Algorithm/Include/arm_math.h ****    */
2136:Components/Algorithm/Include/arm_math.h **** 
2137:Components/Algorithm/Include/arm_math.h ****   typedef struct
2138:Components/Algorithm/Include/arm_math.h ****   {
2139:Components/Algorithm/Include/arm_math.h ****     uint16_t fftLen;                 /**< length of the FFT. */
2140:Components/Algorithm/Include/arm_math.h ****     uint8_t ifftFlag;                /**< flag that selects forward (ifftFlag=0) or inverse (ifftFl
2141:Components/Algorithm/Include/arm_math.h ****     uint8_t bitReverseFlag;          /**< flag that enables (bitReverseFlag=1) or disables (bitReve
2142:Components/Algorithm/Include/arm_math.h ****     q31_t *pTwiddle;                 /**< points to the twiddle factor table. */
2143:Components/Algorithm/Include/arm_math.h ****     uint16_t *pBitRevTable;          /**< points to the bit reversal table. */
2144:Components/Algorithm/Include/arm_math.h ****     uint16_t twidCoefModifier;       /**< twiddle coefficient modifier that supports different size
2145:Components/Algorithm/Include/arm_math.h ****     uint16_t bitRevFactor;           /**< bit reversal modifier that supports different size FFTs w
2146:Components/Algorithm/Include/arm_math.h ****   } arm_cfft_radix4_instance_q31;
2147:Components/Algorithm/Include/arm_math.h **** 
2148:Components/Algorithm/Include/arm_math.h **** /* Deprecated */
2149:Components/Algorithm/Include/arm_math.h ****   void arm_cfft_radix4_q31(
2150:Components/Algorithm/Include/arm_math.h ****   const arm_cfft_radix4_instance_q31 * S,
2151:Components/Algorithm/Include/arm_math.h ****   q31_t * pSrc);
2152:Components/Algorithm/Include/arm_math.h **** 
2153:Components/Algorithm/Include/arm_math.h **** /* Deprecated */
2154:Components/Algorithm/Include/arm_math.h ****   arm_status arm_cfft_radix4_init_q31(
2155:Components/Algorithm/Include/arm_math.h ****   arm_cfft_radix4_instance_q31 * S,
2156:Components/Algorithm/Include/arm_math.h ****   uint16_t fftLen,
2157:Components/Algorithm/Include/arm_math.h ****   uint8_t ifftFlag,
2158:Components/Algorithm/Include/arm_math.h ****   uint8_t bitReverseFlag);
2159:Components/Algorithm/Include/arm_math.h **** 
ARM GAS  C:\Users\86152\AppData\Local\Temp\ccWGVtEI.s 			page 123


2160:Components/Algorithm/Include/arm_math.h ****   /**
2161:Components/Algorithm/Include/arm_math.h ****    * @brief Instance structure for the floating-point CFFT/CIFFT function.
2162:Components/Algorithm/Include/arm_math.h ****    */
2163:Components/Algorithm/Include/arm_math.h **** 
2164:Components/Algorithm/Include/arm_math.h ****   typedef struct
2165:Components/Algorithm/Include/arm_math.h ****   {
2166:Components/Algorithm/Include/arm_math.h ****     uint16_t fftLen;                   /**< length of the FFT. */
2167:Components/Algorithm/Include/arm_math.h ****     uint8_t ifftFlag;                  /**< flag that selects forward (ifftFlag=0) or inverse (ifft
2168:Components/Algorithm/Include/arm_math.h ****     uint8_t bitReverseFlag;            /**< flag that enables (bitReverseFlag=1) or disables (bitRe
2169:Components/Algorithm/Include/arm_math.h ****     float32_t *pTwiddle;               /**< points to the Twiddle factor table. */
2170:Components/Algorithm/Include/arm_math.h ****     uint16_t *pBitRevTable;            /**< points to the bit reversal table. */
2171:Components/Algorithm/Include/arm_math.h ****     uint16_t twidCoefModifier;         /**< twiddle coefficient modifier that supports different si
2172:Components/Algorithm/Include/arm_math.h ****     uint16_t bitRevFactor;             /**< bit reversal modifier that supports different size FFTs
2173:Components/Algorithm/Include/arm_math.h ****     float32_t onebyfftLen;                 /**< value of 1/fftLen. */
2174:Components/Algorithm/Include/arm_math.h ****   } arm_cfft_radix2_instance_f32;
2175:Components/Algorithm/Include/arm_math.h **** 
2176:Components/Algorithm/Include/arm_math.h **** /* Deprecated */
2177:Components/Algorithm/Include/arm_math.h ****   arm_status arm_cfft_radix2_init_f32(
2178:Components/Algorithm/Include/arm_math.h ****   arm_cfft_radix2_instance_f32 * S,
2179:Components/Algorithm/Include/arm_math.h ****   uint16_t fftLen,
2180:Components/Algorithm/Include/arm_math.h ****   uint8_t ifftFlag,
2181:Components/Algorithm/Include/arm_math.h ****   uint8_t bitReverseFlag);
2182:Components/Algorithm/Include/arm_math.h **** 
2183:Components/Algorithm/Include/arm_math.h **** /* Deprecated */
2184:Components/Algorithm/Include/arm_math.h ****   void arm_cfft_radix2_f32(
2185:Components/Algorithm/Include/arm_math.h ****   const arm_cfft_radix2_instance_f32 * S,
2186:Components/Algorithm/Include/arm_math.h ****   float32_t * pSrc);
2187:Components/Algorithm/Include/arm_math.h **** 
2188:Components/Algorithm/Include/arm_math.h ****   /**
2189:Components/Algorithm/Include/arm_math.h ****    * @brief Instance structure for the floating-point CFFT/CIFFT function.
2190:Components/Algorithm/Include/arm_math.h ****    */
2191:Components/Algorithm/Include/arm_math.h **** 
2192:Components/Algorithm/Include/arm_math.h ****   typedef struct
2193:Components/Algorithm/Include/arm_math.h ****   {
2194:Components/Algorithm/Include/arm_math.h ****     uint16_t fftLen;                   /**< length of the FFT. */
2195:Components/Algorithm/Include/arm_math.h ****     uint8_t ifftFlag;                  /**< flag that selects forward (ifftFlag=0) or inverse (ifft
2196:Components/Algorithm/Include/arm_math.h ****     uint8_t bitReverseFlag;            /**< flag that enables (bitReverseFlag=1) or disables (bitRe
2197:Components/Algorithm/Include/arm_math.h ****     float32_t *pTwiddle;               /**< points to the Twiddle factor table. */
2198:Components/Algorithm/Include/arm_math.h ****     uint16_t *pBitRevTable;            /**< points to the bit reversal table. */
2199:Components/Algorithm/Include/arm_math.h ****     uint16_t twidCoefModifier;         /**< twiddle coefficient modifier that supports different si
2200:Components/Algorithm/Include/arm_math.h ****     uint16_t bitRevFactor;             /**< bit reversal modifier that supports different size FFTs
2201:Components/Algorithm/Include/arm_math.h ****     float32_t onebyfftLen;                 /**< value of 1/fftLen. */
2202:Components/Algorithm/Include/arm_math.h ****   } arm_cfft_radix4_instance_f32;
2203:Components/Algorithm/Include/arm_math.h **** 
2204:Components/Algorithm/Include/arm_math.h **** /* Deprecated */
2205:Components/Algorithm/Include/arm_math.h ****   arm_status arm_cfft_radix4_init_f32(
2206:Components/Algorithm/Include/arm_math.h ****   arm_cfft_radix4_instance_f32 * S,
2207:Components/Algorithm/Include/arm_math.h ****   uint16_t fftLen,
2208:Components/Algorithm/Include/arm_math.h ****   uint8_t ifftFlag,
2209:Components/Algorithm/Include/arm_math.h ****   uint8_t bitReverseFlag);
2210:Components/Algorithm/Include/arm_math.h **** 
2211:Components/Algorithm/Include/arm_math.h **** /* Deprecated */
2212:Components/Algorithm/Include/arm_math.h ****   void arm_cfft_radix4_f32(
2213:Components/Algorithm/Include/arm_math.h ****   const arm_cfft_radix4_instance_f32 * S,
2214:Components/Algorithm/Include/arm_math.h ****   float32_t * pSrc);
2215:Components/Algorithm/Include/arm_math.h **** 
2216:Components/Algorithm/Include/arm_math.h ****   /**
ARM GAS  C:\Users\86152\AppData\Local\Temp\ccWGVtEI.s 			page 124


2217:Components/Algorithm/Include/arm_math.h ****    * @brief Instance structure for the fixed-point CFFT/CIFFT function.
2218:Components/Algorithm/Include/arm_math.h ****    */
2219:Components/Algorithm/Include/arm_math.h **** 
2220:Components/Algorithm/Include/arm_math.h ****   typedef struct
2221:Components/Algorithm/Include/arm_math.h ****   {
2222:Components/Algorithm/Include/arm_math.h ****     uint16_t fftLen;                   /**< length of the FFT. */
2223:Components/Algorithm/Include/arm_math.h ****     const q15_t *pTwiddle;             /**< points to the Twiddle factor table. */
2224:Components/Algorithm/Include/arm_math.h ****     const uint16_t *pBitRevTable;      /**< points to the bit reversal table. */
2225:Components/Algorithm/Include/arm_math.h ****     uint16_t bitRevLength;             /**< bit reversal table length. */
2226:Components/Algorithm/Include/arm_math.h ****   } arm_cfft_instance_q15;
2227:Components/Algorithm/Include/arm_math.h **** 
2228:Components/Algorithm/Include/arm_math.h **** void arm_cfft_q15( 
2229:Components/Algorithm/Include/arm_math.h ****     const arm_cfft_instance_q15 * S, 
2230:Components/Algorithm/Include/arm_math.h ****     q15_t * p1,
2231:Components/Algorithm/Include/arm_math.h ****     uint8_t ifftFlag,
2232:Components/Algorithm/Include/arm_math.h ****     uint8_t bitReverseFlag);  
2233:Components/Algorithm/Include/arm_math.h **** 
2234:Components/Algorithm/Include/arm_math.h ****   /**
2235:Components/Algorithm/Include/arm_math.h ****    * @brief Instance structure for the fixed-point CFFT/CIFFT function.
2236:Components/Algorithm/Include/arm_math.h ****    */
2237:Components/Algorithm/Include/arm_math.h **** 
2238:Components/Algorithm/Include/arm_math.h ****   typedef struct
2239:Components/Algorithm/Include/arm_math.h ****   {
2240:Components/Algorithm/Include/arm_math.h ****     uint16_t fftLen;                   /**< length of the FFT. */
2241:Components/Algorithm/Include/arm_math.h ****     const q31_t *pTwiddle;             /**< points to the Twiddle factor table. */
2242:Components/Algorithm/Include/arm_math.h ****     const uint16_t *pBitRevTable;      /**< points to the bit reversal table. */
2243:Components/Algorithm/Include/arm_math.h ****     uint16_t bitRevLength;             /**< bit reversal table length. */
2244:Components/Algorithm/Include/arm_math.h ****   } arm_cfft_instance_q31;
2245:Components/Algorithm/Include/arm_math.h **** 
2246:Components/Algorithm/Include/arm_math.h **** void arm_cfft_q31( 
2247:Components/Algorithm/Include/arm_math.h ****     const arm_cfft_instance_q31 * S, 
2248:Components/Algorithm/Include/arm_math.h ****     q31_t * p1,
2249:Components/Algorithm/Include/arm_math.h ****     uint8_t ifftFlag,
2250:Components/Algorithm/Include/arm_math.h ****     uint8_t bitReverseFlag);  
2251:Components/Algorithm/Include/arm_math.h ****   
2252:Components/Algorithm/Include/arm_math.h ****   /**
2253:Components/Algorithm/Include/arm_math.h ****    * @brief Instance structure for the floating-point CFFT/CIFFT function.
2254:Components/Algorithm/Include/arm_math.h ****    */
2255:Components/Algorithm/Include/arm_math.h **** 
2256:Components/Algorithm/Include/arm_math.h ****   typedef struct
2257:Components/Algorithm/Include/arm_math.h ****   {
2258:Components/Algorithm/Include/arm_math.h ****     uint16_t fftLen;                   /**< length of the FFT. */
2259:Components/Algorithm/Include/arm_math.h ****     const float32_t *pTwiddle;         /**< points to the Twiddle factor table. */
2260:Components/Algorithm/Include/arm_math.h ****     const uint16_t *pBitRevTable;      /**< points to the bit reversal table. */
2261:Components/Algorithm/Include/arm_math.h ****     uint16_t bitRevLength;             /**< bit reversal table length. */
2262:Components/Algorithm/Include/arm_math.h ****   } arm_cfft_instance_f32;
2263:Components/Algorithm/Include/arm_math.h **** 
2264:Components/Algorithm/Include/arm_math.h ****   void arm_cfft_f32(
2265:Components/Algorithm/Include/arm_math.h ****   const arm_cfft_instance_f32 * S,
2266:Components/Algorithm/Include/arm_math.h ****   float32_t * p1,
2267:Components/Algorithm/Include/arm_math.h ****   uint8_t ifftFlag,
2268:Components/Algorithm/Include/arm_math.h ****   uint8_t bitReverseFlag);
2269:Components/Algorithm/Include/arm_math.h **** 
2270:Components/Algorithm/Include/arm_math.h ****   /**
2271:Components/Algorithm/Include/arm_math.h ****    * @brief Instance structure for the Q15 RFFT/RIFFT function.
2272:Components/Algorithm/Include/arm_math.h ****    */
2273:Components/Algorithm/Include/arm_math.h **** 
ARM GAS  C:\Users\86152\AppData\Local\Temp\ccWGVtEI.s 			page 125


2274:Components/Algorithm/Include/arm_math.h ****   typedef struct
2275:Components/Algorithm/Include/arm_math.h ****   {
2276:Components/Algorithm/Include/arm_math.h ****     uint32_t fftLenReal;                      /**< length of the real FFT. */
2277:Components/Algorithm/Include/arm_math.h ****     uint8_t ifftFlagR;                        /**< flag that selects forward (ifftFlagR=0) or inver
2278:Components/Algorithm/Include/arm_math.h ****     uint8_t bitReverseFlagR;                  /**< flag that enables (bitReverseFlagR=1) or disable
2279:Components/Algorithm/Include/arm_math.h ****     uint32_t twidCoefRModifier;               /**< twiddle coefficient modifier that supports diffe
2280:Components/Algorithm/Include/arm_math.h ****     q15_t *pTwiddleAReal;                     /**< points to the real twiddle factor table. */
2281:Components/Algorithm/Include/arm_math.h ****     q15_t *pTwiddleBReal;                     /**< points to the imag twiddle factor table. */
2282:Components/Algorithm/Include/arm_math.h ****     const arm_cfft_instance_q15 *pCfft;       /**< points to the complex FFT instance. */
2283:Components/Algorithm/Include/arm_math.h ****   } arm_rfft_instance_q15;
2284:Components/Algorithm/Include/arm_math.h **** 
2285:Components/Algorithm/Include/arm_math.h ****   arm_status arm_rfft_init_q15(
2286:Components/Algorithm/Include/arm_math.h ****   arm_rfft_instance_q15 * S,
2287:Components/Algorithm/Include/arm_math.h ****   uint32_t fftLenReal,
2288:Components/Algorithm/Include/arm_math.h ****   uint32_t ifftFlagR,
2289:Components/Algorithm/Include/arm_math.h ****   uint32_t bitReverseFlag);
2290:Components/Algorithm/Include/arm_math.h **** 
2291:Components/Algorithm/Include/arm_math.h ****   void arm_rfft_q15(
2292:Components/Algorithm/Include/arm_math.h ****   const arm_rfft_instance_q15 * S,
2293:Components/Algorithm/Include/arm_math.h ****   q15_t * pSrc,
2294:Components/Algorithm/Include/arm_math.h ****   q15_t * pDst);
2295:Components/Algorithm/Include/arm_math.h **** 
2296:Components/Algorithm/Include/arm_math.h ****   /**
2297:Components/Algorithm/Include/arm_math.h ****    * @brief Instance structure for the Q31 RFFT/RIFFT function.
2298:Components/Algorithm/Include/arm_math.h ****    */
2299:Components/Algorithm/Include/arm_math.h **** 
2300:Components/Algorithm/Include/arm_math.h ****   typedef struct
2301:Components/Algorithm/Include/arm_math.h ****   {
2302:Components/Algorithm/Include/arm_math.h ****     uint32_t fftLenReal;                        /**< length of the real FFT. */
2303:Components/Algorithm/Include/arm_math.h ****     uint8_t ifftFlagR;                          /**< flag that selects forward (ifftFlagR=0) or inv
2304:Components/Algorithm/Include/arm_math.h ****     uint8_t bitReverseFlagR;                    /**< flag that enables (bitReverseFlagR=1) or disab
2305:Components/Algorithm/Include/arm_math.h ****     uint32_t twidCoefRModifier;                 /**< twiddle coefficient modifier that supports dif
2306:Components/Algorithm/Include/arm_math.h ****     q31_t *pTwiddleAReal;                       /**< points to the real twiddle factor table. */
2307:Components/Algorithm/Include/arm_math.h ****     q31_t *pTwiddleBReal;                       /**< points to the imag twiddle factor table. */
2308:Components/Algorithm/Include/arm_math.h ****     const arm_cfft_instance_q31 *pCfft;         /**< points to the complex FFT instance. */
2309:Components/Algorithm/Include/arm_math.h ****   } arm_rfft_instance_q31;
2310:Components/Algorithm/Include/arm_math.h **** 
2311:Components/Algorithm/Include/arm_math.h ****   arm_status arm_rfft_init_q31(
2312:Components/Algorithm/Include/arm_math.h ****   arm_rfft_instance_q31 * S,
2313:Components/Algorithm/Include/arm_math.h ****   uint32_t fftLenReal,
2314:Components/Algorithm/Include/arm_math.h ****   uint32_t ifftFlagR,
2315:Components/Algorithm/Include/arm_math.h ****   uint32_t bitReverseFlag);
2316:Components/Algorithm/Include/arm_math.h **** 
2317:Components/Algorithm/Include/arm_math.h ****   void arm_rfft_q31(
2318:Components/Algorithm/Include/arm_math.h ****   const arm_rfft_instance_q31 * S,
2319:Components/Algorithm/Include/arm_math.h ****   q31_t * pSrc,
2320:Components/Algorithm/Include/arm_math.h ****   q31_t * pDst);
2321:Components/Algorithm/Include/arm_math.h **** 
2322:Components/Algorithm/Include/arm_math.h ****   /**
2323:Components/Algorithm/Include/arm_math.h ****    * @brief Instance structure for the floating-point RFFT/RIFFT function.
2324:Components/Algorithm/Include/arm_math.h ****    */
2325:Components/Algorithm/Include/arm_math.h **** 
2326:Components/Algorithm/Include/arm_math.h ****   typedef struct
2327:Components/Algorithm/Include/arm_math.h ****   {
2328:Components/Algorithm/Include/arm_math.h ****     uint32_t fftLenReal;                        /**< length of the real FFT. */
2329:Components/Algorithm/Include/arm_math.h ****     uint16_t fftLenBy2;                         /**< length of the complex FFT. */
2330:Components/Algorithm/Include/arm_math.h ****     uint8_t ifftFlagR;                          /**< flag that selects forward (ifftFlagR=0) or inv
ARM GAS  C:\Users\86152\AppData\Local\Temp\ccWGVtEI.s 			page 126


2331:Components/Algorithm/Include/arm_math.h ****     uint8_t bitReverseFlagR;                    /**< flag that enables (bitReverseFlagR=1) or disab
2332:Components/Algorithm/Include/arm_math.h ****     uint32_t twidCoefRModifier;                     /**< twiddle coefficient modifier that supports
2333:Components/Algorithm/Include/arm_math.h ****     float32_t *pTwiddleAReal;                   /**< points to the real twiddle factor table. */
2334:Components/Algorithm/Include/arm_math.h ****     float32_t *pTwiddleBReal;                   /**< points to the imag twiddle factor table. */
2335:Components/Algorithm/Include/arm_math.h ****     arm_cfft_radix4_instance_f32 *pCfft;        /**< points to the complex FFT instance. */
2336:Components/Algorithm/Include/arm_math.h ****   } arm_rfft_instance_f32;
2337:Components/Algorithm/Include/arm_math.h **** 
2338:Components/Algorithm/Include/arm_math.h ****   arm_status arm_rfft_init_f32(
2339:Components/Algorithm/Include/arm_math.h ****   arm_rfft_instance_f32 * S,
2340:Components/Algorithm/Include/arm_math.h ****   arm_cfft_radix4_instance_f32 * S_CFFT,
2341:Components/Algorithm/Include/arm_math.h ****   uint32_t fftLenReal,
2342:Components/Algorithm/Include/arm_math.h ****   uint32_t ifftFlagR,
2343:Components/Algorithm/Include/arm_math.h ****   uint32_t bitReverseFlag);
2344:Components/Algorithm/Include/arm_math.h **** 
2345:Components/Algorithm/Include/arm_math.h ****   void arm_rfft_f32(
2346:Components/Algorithm/Include/arm_math.h ****   const arm_rfft_instance_f32 * S,
2347:Components/Algorithm/Include/arm_math.h ****   float32_t * pSrc,
2348:Components/Algorithm/Include/arm_math.h ****   float32_t * pDst);
2349:Components/Algorithm/Include/arm_math.h **** 
2350:Components/Algorithm/Include/arm_math.h ****   /**
2351:Components/Algorithm/Include/arm_math.h ****    * @brief Instance structure for the floating-point RFFT/RIFFT function.
2352:Components/Algorithm/Include/arm_math.h ****    */
2353:Components/Algorithm/Include/arm_math.h **** 
2354:Components/Algorithm/Include/arm_math.h **** typedef struct
2355:Components/Algorithm/Include/arm_math.h ****   {
2356:Components/Algorithm/Include/arm_math.h ****     arm_cfft_instance_f32 Sint;      /**< Internal CFFT structure. */
2357:Components/Algorithm/Include/arm_math.h ****     uint16_t fftLenRFFT;                        /**< length of the real sequence */
2358:Components/Algorithm/Include/arm_math.h **** 	float32_t * pTwiddleRFFT;					/**< Twiddle factors real stage  */
2359:Components/Algorithm/Include/arm_math.h ****   } arm_rfft_fast_instance_f32 ;
2360:Components/Algorithm/Include/arm_math.h **** 
2361:Components/Algorithm/Include/arm_math.h **** arm_status arm_rfft_fast_init_f32 (
2362:Components/Algorithm/Include/arm_math.h **** 	arm_rfft_fast_instance_f32 * S,
2363:Components/Algorithm/Include/arm_math.h **** 	uint16_t fftLen);
2364:Components/Algorithm/Include/arm_math.h **** 
2365:Components/Algorithm/Include/arm_math.h **** void arm_rfft_fast_f32(
2366:Components/Algorithm/Include/arm_math.h ****   arm_rfft_fast_instance_f32 * S,
2367:Components/Algorithm/Include/arm_math.h ****   float32_t * p, float32_t * pOut,
2368:Components/Algorithm/Include/arm_math.h ****   uint8_t ifftFlag);
2369:Components/Algorithm/Include/arm_math.h **** 
2370:Components/Algorithm/Include/arm_math.h ****   /**
2371:Components/Algorithm/Include/arm_math.h ****    * @brief Instance structure for the floating-point DCT4/IDCT4 function.
2372:Components/Algorithm/Include/arm_math.h ****    */
2373:Components/Algorithm/Include/arm_math.h **** 
2374:Components/Algorithm/Include/arm_math.h ****   typedef struct
2375:Components/Algorithm/Include/arm_math.h ****   {
2376:Components/Algorithm/Include/arm_math.h ****     uint16_t N;                         /**< length of the DCT4. */
2377:Components/Algorithm/Include/arm_math.h ****     uint16_t Nby2;                      /**< half of the length of the DCT4. */
2378:Components/Algorithm/Include/arm_math.h ****     float32_t normalize;                /**< normalizing factor. */
2379:Components/Algorithm/Include/arm_math.h ****     float32_t *pTwiddle;                /**< points to the twiddle factor table. */
2380:Components/Algorithm/Include/arm_math.h ****     float32_t *pCosFactor;              /**< points to the cosFactor table. */
2381:Components/Algorithm/Include/arm_math.h ****     arm_rfft_instance_f32 *pRfft;        /**< points to the real FFT instance. */
2382:Components/Algorithm/Include/arm_math.h ****     arm_cfft_radix4_instance_f32 *pCfft; /**< points to the complex FFT instance. */
2383:Components/Algorithm/Include/arm_math.h ****   } arm_dct4_instance_f32;
2384:Components/Algorithm/Include/arm_math.h **** 
2385:Components/Algorithm/Include/arm_math.h ****   /**
2386:Components/Algorithm/Include/arm_math.h ****    * @brief  Initialization function for the floating-point DCT4/IDCT4.
2387:Components/Algorithm/Include/arm_math.h ****    * @param[in,out] *S         points to an instance of floating-point DCT4/IDCT4 structure.
ARM GAS  C:\Users\86152\AppData\Local\Temp\ccWGVtEI.s 			page 127


2388:Components/Algorithm/Include/arm_math.h ****    * @param[in]     *S_RFFT    points to an instance of floating-point RFFT/RIFFT structure.
2389:Components/Algorithm/Include/arm_math.h ****    * @param[in]     *S_CFFT    points to an instance of floating-point CFFT/CIFFT structure.
2390:Components/Algorithm/Include/arm_math.h ****    * @param[in]     N          length of the DCT4.
2391:Components/Algorithm/Include/arm_math.h ****    * @param[in]     Nby2       half of the length of the DCT4.
2392:Components/Algorithm/Include/arm_math.h ****    * @param[in]     normalize  normalizing factor.
2393:Components/Algorithm/Include/arm_math.h ****    * @return		arm_status function returns ARM_MATH_SUCCESS if initialization is successful or ARM_M
2394:Components/Algorithm/Include/arm_math.h ****    */
2395:Components/Algorithm/Include/arm_math.h **** 
2396:Components/Algorithm/Include/arm_math.h ****   arm_status arm_dct4_init_f32(
2397:Components/Algorithm/Include/arm_math.h ****   arm_dct4_instance_f32 * S,
2398:Components/Algorithm/Include/arm_math.h ****   arm_rfft_instance_f32 * S_RFFT,
2399:Components/Algorithm/Include/arm_math.h ****   arm_cfft_radix4_instance_f32 * S_CFFT,
2400:Components/Algorithm/Include/arm_math.h ****   uint16_t N,
2401:Components/Algorithm/Include/arm_math.h ****   uint16_t Nby2,
2402:Components/Algorithm/Include/arm_math.h ****   float32_t normalize);
2403:Components/Algorithm/Include/arm_math.h **** 
2404:Components/Algorithm/Include/arm_math.h ****   /**
2405:Components/Algorithm/Include/arm_math.h ****    * @brief Processing function for the floating-point DCT4/IDCT4.
2406:Components/Algorithm/Include/arm_math.h ****    * @param[in]       *S             points to an instance of the floating-point DCT4/IDCT4 structu
2407:Components/Algorithm/Include/arm_math.h ****    * @param[in]       *pState        points to state buffer.
2408:Components/Algorithm/Include/arm_math.h ****    * @param[in,out]   *pInlineBuffer points to the in-place input and output buffer.
2409:Components/Algorithm/Include/arm_math.h ****    * @return none.
2410:Components/Algorithm/Include/arm_math.h ****    */
2411:Components/Algorithm/Include/arm_math.h **** 
2412:Components/Algorithm/Include/arm_math.h ****   void arm_dct4_f32(
2413:Components/Algorithm/Include/arm_math.h ****   const arm_dct4_instance_f32 * S,
2414:Components/Algorithm/Include/arm_math.h ****   float32_t * pState,
2415:Components/Algorithm/Include/arm_math.h ****   float32_t * pInlineBuffer);
2416:Components/Algorithm/Include/arm_math.h **** 
2417:Components/Algorithm/Include/arm_math.h ****   /**
2418:Components/Algorithm/Include/arm_math.h ****    * @brief Instance structure for the Q31 DCT4/IDCT4 function.
2419:Components/Algorithm/Include/arm_math.h ****    */
2420:Components/Algorithm/Include/arm_math.h **** 
2421:Components/Algorithm/Include/arm_math.h ****   typedef struct
2422:Components/Algorithm/Include/arm_math.h ****   {
2423:Components/Algorithm/Include/arm_math.h ****     uint16_t N;                         /**< length of the DCT4. */
2424:Components/Algorithm/Include/arm_math.h ****     uint16_t Nby2;                      /**< half of the length of the DCT4. */
2425:Components/Algorithm/Include/arm_math.h ****     q31_t normalize;                    /**< normalizing factor. */
2426:Components/Algorithm/Include/arm_math.h ****     q31_t *pTwiddle;                    /**< points to the twiddle factor table. */
2427:Components/Algorithm/Include/arm_math.h ****     q31_t *pCosFactor;                  /**< points to the cosFactor table. */
2428:Components/Algorithm/Include/arm_math.h ****     arm_rfft_instance_q31 *pRfft;        /**< points to the real FFT instance. */
2429:Components/Algorithm/Include/arm_math.h ****     arm_cfft_radix4_instance_q31 *pCfft; /**< points to the complex FFT instance. */
2430:Components/Algorithm/Include/arm_math.h ****   } arm_dct4_instance_q31;
2431:Components/Algorithm/Include/arm_math.h **** 
2432:Components/Algorithm/Include/arm_math.h ****   /**
2433:Components/Algorithm/Include/arm_math.h ****    * @brief  Initialization function for the Q31 DCT4/IDCT4.
2434:Components/Algorithm/Include/arm_math.h ****    * @param[in,out] *S         points to an instance of Q31 DCT4/IDCT4 structure.
2435:Components/Algorithm/Include/arm_math.h ****    * @param[in]     *S_RFFT    points to an instance of Q31 RFFT/RIFFT structure
2436:Components/Algorithm/Include/arm_math.h ****    * @param[in]     *S_CFFT    points to an instance of Q31 CFFT/CIFFT structure
2437:Components/Algorithm/Include/arm_math.h ****    * @param[in]     N          length of the DCT4.
2438:Components/Algorithm/Include/arm_math.h ****    * @param[in]     Nby2       half of the length of the DCT4.
2439:Components/Algorithm/Include/arm_math.h ****    * @param[in]     normalize  normalizing factor.
2440:Components/Algorithm/Include/arm_math.h ****    * @return		arm_status function returns ARM_MATH_SUCCESS if initialization is successful or ARM_M
2441:Components/Algorithm/Include/arm_math.h ****    */
2442:Components/Algorithm/Include/arm_math.h **** 
2443:Components/Algorithm/Include/arm_math.h ****   arm_status arm_dct4_init_q31(
2444:Components/Algorithm/Include/arm_math.h ****   arm_dct4_instance_q31 * S,
ARM GAS  C:\Users\86152\AppData\Local\Temp\ccWGVtEI.s 			page 128


2445:Components/Algorithm/Include/arm_math.h ****   arm_rfft_instance_q31 * S_RFFT,
2446:Components/Algorithm/Include/arm_math.h ****   arm_cfft_radix4_instance_q31 * S_CFFT,
2447:Components/Algorithm/Include/arm_math.h ****   uint16_t N,
2448:Components/Algorithm/Include/arm_math.h ****   uint16_t Nby2,
2449:Components/Algorithm/Include/arm_math.h ****   q31_t normalize);
2450:Components/Algorithm/Include/arm_math.h **** 
2451:Components/Algorithm/Include/arm_math.h ****   /**
2452:Components/Algorithm/Include/arm_math.h ****    * @brief Processing function for the Q31 DCT4/IDCT4.
2453:Components/Algorithm/Include/arm_math.h ****    * @param[in]       *S             points to an instance of the Q31 DCT4 structure.
2454:Components/Algorithm/Include/arm_math.h ****    * @param[in]       *pState        points to state buffer.
2455:Components/Algorithm/Include/arm_math.h ****    * @param[in,out]   *pInlineBuffer points to the in-place input and output buffer.
2456:Components/Algorithm/Include/arm_math.h ****    * @return none.
2457:Components/Algorithm/Include/arm_math.h ****    */
2458:Components/Algorithm/Include/arm_math.h **** 
2459:Components/Algorithm/Include/arm_math.h ****   void arm_dct4_q31(
2460:Components/Algorithm/Include/arm_math.h ****   const arm_dct4_instance_q31 * S,
2461:Components/Algorithm/Include/arm_math.h ****   q31_t * pState,
2462:Components/Algorithm/Include/arm_math.h ****   q31_t * pInlineBuffer);
2463:Components/Algorithm/Include/arm_math.h **** 
2464:Components/Algorithm/Include/arm_math.h ****   /**
2465:Components/Algorithm/Include/arm_math.h ****    * @brief Instance structure for the Q15 DCT4/IDCT4 function.
2466:Components/Algorithm/Include/arm_math.h ****    */
2467:Components/Algorithm/Include/arm_math.h **** 
2468:Components/Algorithm/Include/arm_math.h ****   typedef struct
2469:Components/Algorithm/Include/arm_math.h ****   {
2470:Components/Algorithm/Include/arm_math.h ****     uint16_t N;                         /**< length of the DCT4. */
2471:Components/Algorithm/Include/arm_math.h ****     uint16_t Nby2;                      /**< half of the length of the DCT4. */
2472:Components/Algorithm/Include/arm_math.h ****     q15_t normalize;                    /**< normalizing factor. */
2473:Components/Algorithm/Include/arm_math.h ****     q15_t *pTwiddle;                    /**< points to the twiddle factor table. */
2474:Components/Algorithm/Include/arm_math.h ****     q15_t *pCosFactor;                  /**< points to the cosFactor table. */
2475:Components/Algorithm/Include/arm_math.h ****     arm_rfft_instance_q15 *pRfft;        /**< points to the real FFT instance. */
2476:Components/Algorithm/Include/arm_math.h ****     arm_cfft_radix4_instance_q15 *pCfft; /**< points to the complex FFT instance. */
2477:Components/Algorithm/Include/arm_math.h ****   } arm_dct4_instance_q15;
2478:Components/Algorithm/Include/arm_math.h **** 
2479:Components/Algorithm/Include/arm_math.h ****   /**
2480:Components/Algorithm/Include/arm_math.h ****    * @brief  Initialization function for the Q15 DCT4/IDCT4.
2481:Components/Algorithm/Include/arm_math.h ****    * @param[in,out] *S         points to an instance of Q15 DCT4/IDCT4 structure.
2482:Components/Algorithm/Include/arm_math.h ****    * @param[in]     *S_RFFT    points to an instance of Q15 RFFT/RIFFT structure.
2483:Components/Algorithm/Include/arm_math.h ****    * @param[in]     *S_CFFT    points to an instance of Q15 CFFT/CIFFT structure.
2484:Components/Algorithm/Include/arm_math.h ****    * @param[in]     N          length of the DCT4.
2485:Components/Algorithm/Include/arm_math.h ****    * @param[in]     Nby2       half of the length of the DCT4.
2486:Components/Algorithm/Include/arm_math.h ****    * @param[in]     normalize  normalizing factor.
2487:Components/Algorithm/Include/arm_math.h ****    * @return		arm_status function returns ARM_MATH_SUCCESS if initialization is successful or ARM_M
2488:Components/Algorithm/Include/arm_math.h ****    */
2489:Components/Algorithm/Include/arm_math.h **** 
2490:Components/Algorithm/Include/arm_math.h ****   arm_status arm_dct4_init_q15(
2491:Components/Algorithm/Include/arm_math.h ****   arm_dct4_instance_q15 * S,
2492:Components/Algorithm/Include/arm_math.h ****   arm_rfft_instance_q15 * S_RFFT,
2493:Components/Algorithm/Include/arm_math.h ****   arm_cfft_radix4_instance_q15 * S_CFFT,
2494:Components/Algorithm/Include/arm_math.h ****   uint16_t N,
2495:Components/Algorithm/Include/arm_math.h ****   uint16_t Nby2,
2496:Components/Algorithm/Include/arm_math.h ****   q15_t normalize);
2497:Components/Algorithm/Include/arm_math.h **** 
2498:Components/Algorithm/Include/arm_math.h ****   /**
2499:Components/Algorithm/Include/arm_math.h ****    * @brief Processing function for the Q15 DCT4/IDCT4.
2500:Components/Algorithm/Include/arm_math.h ****    * @param[in]       *S             points to an instance of the Q15 DCT4 structure.
2501:Components/Algorithm/Include/arm_math.h ****    * @param[in]       *pState        points to state buffer.
ARM GAS  C:\Users\86152\AppData\Local\Temp\ccWGVtEI.s 			page 129


2502:Components/Algorithm/Include/arm_math.h ****    * @param[in,out]   *pInlineBuffer points to the in-place input and output buffer.
2503:Components/Algorithm/Include/arm_math.h ****    * @return none.
2504:Components/Algorithm/Include/arm_math.h ****    */
2505:Components/Algorithm/Include/arm_math.h **** 
2506:Components/Algorithm/Include/arm_math.h ****   void arm_dct4_q15(
2507:Components/Algorithm/Include/arm_math.h ****   const arm_dct4_instance_q15 * S,
2508:Components/Algorithm/Include/arm_math.h ****   q15_t * pState,
2509:Components/Algorithm/Include/arm_math.h ****   q15_t * pInlineBuffer);
2510:Components/Algorithm/Include/arm_math.h **** 
2511:Components/Algorithm/Include/arm_math.h ****   /**
2512:Components/Algorithm/Include/arm_math.h ****    * @brief Floating-point vector addition.
2513:Components/Algorithm/Include/arm_math.h ****    * @param[in]       *pSrcA points to the first input vector
2514:Components/Algorithm/Include/arm_math.h ****    * @param[in]       *pSrcB points to the second input vector
2515:Components/Algorithm/Include/arm_math.h ****    * @param[out]      *pDst points to the output vector
2516:Components/Algorithm/Include/arm_math.h ****    * @param[in]       blockSize number of samples in each vector
2517:Components/Algorithm/Include/arm_math.h ****    * @return none.
2518:Components/Algorithm/Include/arm_math.h ****    */
2519:Components/Algorithm/Include/arm_math.h **** 
2520:Components/Algorithm/Include/arm_math.h ****   void arm_add_f32(
2521:Components/Algorithm/Include/arm_math.h ****   float32_t * pSrcA,
2522:Components/Algorithm/Include/arm_math.h ****   float32_t * pSrcB,
2523:Components/Algorithm/Include/arm_math.h ****   float32_t * pDst,
2524:Components/Algorithm/Include/arm_math.h ****   uint32_t blockSize);
2525:Components/Algorithm/Include/arm_math.h **** 
2526:Components/Algorithm/Include/arm_math.h ****   /**
2527:Components/Algorithm/Include/arm_math.h ****    * @brief Q7 vector addition.
2528:Components/Algorithm/Include/arm_math.h ****    * @param[in]       *pSrcA points to the first input vector
2529:Components/Algorithm/Include/arm_math.h ****    * @param[in]       *pSrcB points to the second input vector
2530:Components/Algorithm/Include/arm_math.h ****    * @param[out]      *pDst points to the output vector
2531:Components/Algorithm/Include/arm_math.h ****    * @param[in]       blockSize number of samples in each vector
2532:Components/Algorithm/Include/arm_math.h ****    * @return none.
2533:Components/Algorithm/Include/arm_math.h ****    */
2534:Components/Algorithm/Include/arm_math.h **** 
2535:Components/Algorithm/Include/arm_math.h ****   void arm_add_q7(
2536:Components/Algorithm/Include/arm_math.h ****   q7_t * pSrcA,
2537:Components/Algorithm/Include/arm_math.h ****   q7_t * pSrcB,
2538:Components/Algorithm/Include/arm_math.h ****   q7_t * pDst,
2539:Components/Algorithm/Include/arm_math.h ****   uint32_t blockSize);
2540:Components/Algorithm/Include/arm_math.h **** 
2541:Components/Algorithm/Include/arm_math.h ****   /**
2542:Components/Algorithm/Include/arm_math.h ****    * @brief Q15 vector addition.
2543:Components/Algorithm/Include/arm_math.h ****    * @param[in]       *pSrcA points to the first input vector
2544:Components/Algorithm/Include/arm_math.h ****    * @param[in]       *pSrcB points to the second input vector
2545:Components/Algorithm/Include/arm_math.h ****    * @param[out]      *pDst points to the output vector
2546:Components/Algorithm/Include/arm_math.h ****    * @param[in]       blockSize number of samples in each vector
2547:Components/Algorithm/Include/arm_math.h ****    * @return none.
2548:Components/Algorithm/Include/arm_math.h ****    */
2549:Components/Algorithm/Include/arm_math.h **** 
2550:Components/Algorithm/Include/arm_math.h ****   void arm_add_q15(
2551:Components/Algorithm/Include/arm_math.h ****   q15_t * pSrcA,
2552:Components/Algorithm/Include/arm_math.h ****   q15_t * pSrcB,
2553:Components/Algorithm/Include/arm_math.h ****   q15_t * pDst,
2554:Components/Algorithm/Include/arm_math.h ****   uint32_t blockSize);
2555:Components/Algorithm/Include/arm_math.h **** 
2556:Components/Algorithm/Include/arm_math.h ****   /**
2557:Components/Algorithm/Include/arm_math.h ****    * @brief Q31 vector addition.
2558:Components/Algorithm/Include/arm_math.h ****    * @param[in]       *pSrcA points to the first input vector
ARM GAS  C:\Users\86152\AppData\Local\Temp\ccWGVtEI.s 			page 130


2559:Components/Algorithm/Include/arm_math.h ****    * @param[in]       *pSrcB points to the second input vector
2560:Components/Algorithm/Include/arm_math.h ****    * @param[out]      *pDst points to the output vector
2561:Components/Algorithm/Include/arm_math.h ****    * @param[in]       blockSize number of samples in each vector
2562:Components/Algorithm/Include/arm_math.h ****    * @return none.
2563:Components/Algorithm/Include/arm_math.h ****    */
2564:Components/Algorithm/Include/arm_math.h **** 
2565:Components/Algorithm/Include/arm_math.h ****   void arm_add_q31(
2566:Components/Algorithm/Include/arm_math.h ****   q31_t * pSrcA,
2567:Components/Algorithm/Include/arm_math.h ****   q31_t * pSrcB,
2568:Components/Algorithm/Include/arm_math.h ****   q31_t * pDst,
2569:Components/Algorithm/Include/arm_math.h ****   uint32_t blockSize);
2570:Components/Algorithm/Include/arm_math.h **** 
2571:Components/Algorithm/Include/arm_math.h ****   /**
2572:Components/Algorithm/Include/arm_math.h ****    * @brief Floating-point vector subtraction.
2573:Components/Algorithm/Include/arm_math.h ****    * @param[in]       *pSrcA points to the first input vector
2574:Components/Algorithm/Include/arm_math.h ****    * @param[in]       *pSrcB points to the second input vector
2575:Components/Algorithm/Include/arm_math.h ****    * @param[out]      *pDst points to the output vector
2576:Components/Algorithm/Include/arm_math.h ****    * @param[in]       blockSize number of samples in each vector
2577:Components/Algorithm/Include/arm_math.h ****    * @return none.
2578:Components/Algorithm/Include/arm_math.h ****    */
2579:Components/Algorithm/Include/arm_math.h **** 
2580:Components/Algorithm/Include/arm_math.h ****   void arm_sub_f32(
2581:Components/Algorithm/Include/arm_math.h ****   float32_t * pSrcA,
2582:Components/Algorithm/Include/arm_math.h ****   float32_t * pSrcB,
2583:Components/Algorithm/Include/arm_math.h ****   float32_t * pDst,
2584:Components/Algorithm/Include/arm_math.h ****   uint32_t blockSize);
2585:Components/Algorithm/Include/arm_math.h **** 
2586:Components/Algorithm/Include/arm_math.h ****   /**
2587:Components/Algorithm/Include/arm_math.h ****    * @brief Q7 vector subtraction.
2588:Components/Algorithm/Include/arm_math.h ****    * @param[in]       *pSrcA points to the first input vector
2589:Components/Algorithm/Include/arm_math.h ****    * @param[in]       *pSrcB points to the second input vector
2590:Components/Algorithm/Include/arm_math.h ****    * @param[out]      *pDst points to the output vector
2591:Components/Algorithm/Include/arm_math.h ****    * @param[in]       blockSize number of samples in each vector
2592:Components/Algorithm/Include/arm_math.h ****    * @return none.
2593:Components/Algorithm/Include/arm_math.h ****    */
2594:Components/Algorithm/Include/arm_math.h **** 
2595:Components/Algorithm/Include/arm_math.h ****   void arm_sub_q7(
2596:Components/Algorithm/Include/arm_math.h ****   q7_t * pSrcA,
2597:Components/Algorithm/Include/arm_math.h ****   q7_t * pSrcB,
2598:Components/Algorithm/Include/arm_math.h ****   q7_t * pDst,
2599:Components/Algorithm/Include/arm_math.h ****   uint32_t blockSize);
2600:Components/Algorithm/Include/arm_math.h **** 
2601:Components/Algorithm/Include/arm_math.h ****   /**
2602:Components/Algorithm/Include/arm_math.h ****    * @brief Q15 vector subtraction.
2603:Components/Algorithm/Include/arm_math.h ****    * @param[in]       *pSrcA points to the first input vector
2604:Components/Algorithm/Include/arm_math.h ****    * @param[in]       *pSrcB points to the second input vector
2605:Components/Algorithm/Include/arm_math.h ****    * @param[out]      *pDst points to the output vector
2606:Components/Algorithm/Include/arm_math.h ****    * @param[in]       blockSize number of samples in each vector
2607:Components/Algorithm/Include/arm_math.h ****    * @return none.
2608:Components/Algorithm/Include/arm_math.h ****    */
2609:Components/Algorithm/Include/arm_math.h **** 
2610:Components/Algorithm/Include/arm_math.h ****   void arm_sub_q15(
2611:Components/Algorithm/Include/arm_math.h ****   q15_t * pSrcA,
2612:Components/Algorithm/Include/arm_math.h ****   q15_t * pSrcB,
2613:Components/Algorithm/Include/arm_math.h ****   q15_t * pDst,
2614:Components/Algorithm/Include/arm_math.h ****   uint32_t blockSize);
2615:Components/Algorithm/Include/arm_math.h **** 
ARM GAS  C:\Users\86152\AppData\Local\Temp\ccWGVtEI.s 			page 131


2616:Components/Algorithm/Include/arm_math.h ****   /**
2617:Components/Algorithm/Include/arm_math.h ****    * @brief Q31 vector subtraction.
2618:Components/Algorithm/Include/arm_math.h ****    * @param[in]       *pSrcA points to the first input vector
2619:Components/Algorithm/Include/arm_math.h ****    * @param[in]       *pSrcB points to the second input vector
2620:Components/Algorithm/Include/arm_math.h ****    * @param[out]      *pDst points to the output vector
2621:Components/Algorithm/Include/arm_math.h ****    * @param[in]       blockSize number of samples in each vector
2622:Components/Algorithm/Include/arm_math.h ****    * @return none.
2623:Components/Algorithm/Include/arm_math.h ****    */
2624:Components/Algorithm/Include/arm_math.h **** 
2625:Components/Algorithm/Include/arm_math.h ****   void arm_sub_q31(
2626:Components/Algorithm/Include/arm_math.h ****   q31_t * pSrcA,
2627:Components/Algorithm/Include/arm_math.h ****   q31_t * pSrcB,
2628:Components/Algorithm/Include/arm_math.h ****   q31_t * pDst,
2629:Components/Algorithm/Include/arm_math.h ****   uint32_t blockSize);
2630:Components/Algorithm/Include/arm_math.h **** 
2631:Components/Algorithm/Include/arm_math.h ****   /**
2632:Components/Algorithm/Include/arm_math.h ****    * @brief Multiplies a floating-point vector by a scalar.
2633:Components/Algorithm/Include/arm_math.h ****    * @param[in]       *pSrc points to the input vector
2634:Components/Algorithm/Include/arm_math.h ****    * @param[in]       scale scale factor to be applied
2635:Components/Algorithm/Include/arm_math.h ****    * @param[out]      *pDst points to the output vector
2636:Components/Algorithm/Include/arm_math.h ****    * @param[in]       blockSize number of samples in the vector
2637:Components/Algorithm/Include/arm_math.h ****    * @return none.
2638:Components/Algorithm/Include/arm_math.h ****    */
2639:Components/Algorithm/Include/arm_math.h **** 
2640:Components/Algorithm/Include/arm_math.h ****   void arm_scale_f32(
2641:Components/Algorithm/Include/arm_math.h ****   float32_t * pSrc,
2642:Components/Algorithm/Include/arm_math.h ****   float32_t scale,
2643:Components/Algorithm/Include/arm_math.h ****   float32_t * pDst,
2644:Components/Algorithm/Include/arm_math.h ****   uint32_t blockSize);
2645:Components/Algorithm/Include/arm_math.h **** 
2646:Components/Algorithm/Include/arm_math.h ****   /**
2647:Components/Algorithm/Include/arm_math.h ****    * @brief Multiplies a Q7 vector by a scalar.
2648:Components/Algorithm/Include/arm_math.h ****    * @param[in]       *pSrc points to the input vector
2649:Components/Algorithm/Include/arm_math.h ****    * @param[in]       scaleFract fractional portion of the scale value
2650:Components/Algorithm/Include/arm_math.h ****    * @param[in]       shift number of bits to shift the result by
2651:Components/Algorithm/Include/arm_math.h ****    * @param[out]      *pDst points to the output vector
2652:Components/Algorithm/Include/arm_math.h ****    * @param[in]       blockSize number of samples in the vector
2653:Components/Algorithm/Include/arm_math.h ****    * @return none.
2654:Components/Algorithm/Include/arm_math.h ****    */
2655:Components/Algorithm/Include/arm_math.h **** 
2656:Components/Algorithm/Include/arm_math.h ****   void arm_scale_q7(
2657:Components/Algorithm/Include/arm_math.h ****   q7_t * pSrc,
2658:Components/Algorithm/Include/arm_math.h ****   q7_t scaleFract,
2659:Components/Algorithm/Include/arm_math.h ****   int8_t shift,
2660:Components/Algorithm/Include/arm_math.h ****   q7_t * pDst,
2661:Components/Algorithm/Include/arm_math.h ****   uint32_t blockSize);
2662:Components/Algorithm/Include/arm_math.h **** 
2663:Components/Algorithm/Include/arm_math.h ****   /**
2664:Components/Algorithm/Include/arm_math.h ****    * @brief Multiplies a Q15 vector by a scalar.
2665:Components/Algorithm/Include/arm_math.h ****    * @param[in]       *pSrc points to the input vector
2666:Components/Algorithm/Include/arm_math.h ****    * @param[in]       scaleFract fractional portion of the scale value
2667:Components/Algorithm/Include/arm_math.h ****    * @param[in]       shift number of bits to shift the result by
2668:Components/Algorithm/Include/arm_math.h ****    * @param[out]      *pDst points to the output vector
2669:Components/Algorithm/Include/arm_math.h ****    * @param[in]       blockSize number of samples in the vector
2670:Components/Algorithm/Include/arm_math.h ****    * @return none.
2671:Components/Algorithm/Include/arm_math.h ****    */
2672:Components/Algorithm/Include/arm_math.h **** 
ARM GAS  C:\Users\86152\AppData\Local\Temp\ccWGVtEI.s 			page 132


2673:Components/Algorithm/Include/arm_math.h ****   void arm_scale_q15(
2674:Components/Algorithm/Include/arm_math.h ****   q15_t * pSrc,
2675:Components/Algorithm/Include/arm_math.h ****   q15_t scaleFract,
2676:Components/Algorithm/Include/arm_math.h ****   int8_t shift,
2677:Components/Algorithm/Include/arm_math.h ****   q15_t * pDst,
2678:Components/Algorithm/Include/arm_math.h ****   uint32_t blockSize);
2679:Components/Algorithm/Include/arm_math.h **** 
2680:Components/Algorithm/Include/arm_math.h ****   /**
2681:Components/Algorithm/Include/arm_math.h ****    * @brief Multiplies a Q31 vector by a scalar.
2682:Components/Algorithm/Include/arm_math.h ****    * @param[in]       *pSrc points to the input vector
2683:Components/Algorithm/Include/arm_math.h ****    * @param[in]       scaleFract fractional portion of the scale value
2684:Components/Algorithm/Include/arm_math.h ****    * @param[in]       shift number of bits to shift the result by
2685:Components/Algorithm/Include/arm_math.h ****    * @param[out]      *pDst points to the output vector
2686:Components/Algorithm/Include/arm_math.h ****    * @param[in]       blockSize number of samples in the vector
2687:Components/Algorithm/Include/arm_math.h ****    * @return none.
2688:Components/Algorithm/Include/arm_math.h ****    */
2689:Components/Algorithm/Include/arm_math.h **** 
2690:Components/Algorithm/Include/arm_math.h ****   void arm_scale_q31(
2691:Components/Algorithm/Include/arm_math.h ****   q31_t * pSrc,
2692:Components/Algorithm/Include/arm_math.h ****   q31_t scaleFract,
2693:Components/Algorithm/Include/arm_math.h ****   int8_t shift,
2694:Components/Algorithm/Include/arm_math.h ****   q31_t * pDst,
2695:Components/Algorithm/Include/arm_math.h ****   uint32_t blockSize);
2696:Components/Algorithm/Include/arm_math.h **** 
2697:Components/Algorithm/Include/arm_math.h ****   /**
2698:Components/Algorithm/Include/arm_math.h ****    * @brief Q7 vector absolute value.
2699:Components/Algorithm/Include/arm_math.h ****    * @param[in]       *pSrc points to the input buffer
2700:Components/Algorithm/Include/arm_math.h ****    * @param[out]      *pDst points to the output buffer
2701:Components/Algorithm/Include/arm_math.h ****    * @param[in]       blockSize number of samples in each vector
2702:Components/Algorithm/Include/arm_math.h ****    * @return none.
2703:Components/Algorithm/Include/arm_math.h ****    */
2704:Components/Algorithm/Include/arm_math.h **** 
2705:Components/Algorithm/Include/arm_math.h ****   void arm_abs_q7(
2706:Components/Algorithm/Include/arm_math.h ****   q7_t * pSrc,
2707:Components/Algorithm/Include/arm_math.h ****   q7_t * pDst,
2708:Components/Algorithm/Include/arm_math.h ****   uint32_t blockSize);
2709:Components/Algorithm/Include/arm_math.h **** 
2710:Components/Algorithm/Include/arm_math.h ****   /**
2711:Components/Algorithm/Include/arm_math.h ****    * @brief Floating-point vector absolute value.
2712:Components/Algorithm/Include/arm_math.h ****    * @param[in]       *pSrc points to the input buffer
2713:Components/Algorithm/Include/arm_math.h ****    * @param[out]      *pDst points to the output buffer
2714:Components/Algorithm/Include/arm_math.h ****    * @param[in]       blockSize number of samples in each vector
2715:Components/Algorithm/Include/arm_math.h ****    * @return none.
2716:Components/Algorithm/Include/arm_math.h ****    */
2717:Components/Algorithm/Include/arm_math.h **** 
2718:Components/Algorithm/Include/arm_math.h ****   void arm_abs_f32(
2719:Components/Algorithm/Include/arm_math.h ****   float32_t * pSrc,
2720:Components/Algorithm/Include/arm_math.h ****   float32_t * pDst,
2721:Components/Algorithm/Include/arm_math.h ****   uint32_t blockSize);
2722:Components/Algorithm/Include/arm_math.h **** 
2723:Components/Algorithm/Include/arm_math.h ****   /**
2724:Components/Algorithm/Include/arm_math.h ****    * @brief Q15 vector absolute value.
2725:Components/Algorithm/Include/arm_math.h ****    * @param[in]       *pSrc points to the input buffer
2726:Components/Algorithm/Include/arm_math.h ****    * @param[out]      *pDst points to the output buffer
2727:Components/Algorithm/Include/arm_math.h ****    * @param[in]       blockSize number of samples in each vector
2728:Components/Algorithm/Include/arm_math.h ****    * @return none.
2729:Components/Algorithm/Include/arm_math.h ****    */
ARM GAS  C:\Users\86152\AppData\Local\Temp\ccWGVtEI.s 			page 133


2730:Components/Algorithm/Include/arm_math.h **** 
2731:Components/Algorithm/Include/arm_math.h ****   void arm_abs_q15(
2732:Components/Algorithm/Include/arm_math.h ****   q15_t * pSrc,
2733:Components/Algorithm/Include/arm_math.h ****   q15_t * pDst,
2734:Components/Algorithm/Include/arm_math.h ****   uint32_t blockSize);
2735:Components/Algorithm/Include/arm_math.h **** 
2736:Components/Algorithm/Include/arm_math.h ****   /**
2737:Components/Algorithm/Include/arm_math.h ****    * @brief Q31 vector absolute value.
2738:Components/Algorithm/Include/arm_math.h ****    * @param[in]       *pSrc points to the input buffer
2739:Components/Algorithm/Include/arm_math.h ****    * @param[out]      *pDst points to the output buffer
2740:Components/Algorithm/Include/arm_math.h ****    * @param[in]       blockSize number of samples in each vector
2741:Components/Algorithm/Include/arm_math.h ****    * @return none.
2742:Components/Algorithm/Include/arm_math.h ****    */
2743:Components/Algorithm/Include/arm_math.h **** 
2744:Components/Algorithm/Include/arm_math.h ****   void arm_abs_q31(
2745:Components/Algorithm/Include/arm_math.h ****   q31_t * pSrc,
2746:Components/Algorithm/Include/arm_math.h ****   q31_t * pDst,
2747:Components/Algorithm/Include/arm_math.h ****   uint32_t blockSize);
2748:Components/Algorithm/Include/arm_math.h **** 
2749:Components/Algorithm/Include/arm_math.h ****   /**
2750:Components/Algorithm/Include/arm_math.h ****    * @brief Dot product of floating-point vectors.
2751:Components/Algorithm/Include/arm_math.h ****    * @param[in]       *pSrcA points to the first input vector
2752:Components/Algorithm/Include/arm_math.h ****    * @param[in]       *pSrcB points to the second input vector
2753:Components/Algorithm/Include/arm_math.h ****    * @param[in]       blockSize number of samples in each vector
2754:Components/Algorithm/Include/arm_math.h ****    * @param[out]      *result output result returned here
2755:Components/Algorithm/Include/arm_math.h ****    * @return none.
2756:Components/Algorithm/Include/arm_math.h ****    */
2757:Components/Algorithm/Include/arm_math.h **** 
2758:Components/Algorithm/Include/arm_math.h ****   void arm_dot_prod_f32(
2759:Components/Algorithm/Include/arm_math.h ****   float32_t * pSrcA,
2760:Components/Algorithm/Include/arm_math.h ****   float32_t * pSrcB,
2761:Components/Algorithm/Include/arm_math.h ****   uint32_t blockSize,
2762:Components/Algorithm/Include/arm_math.h ****   float32_t * result);
2763:Components/Algorithm/Include/arm_math.h **** 
2764:Components/Algorithm/Include/arm_math.h ****   /**
2765:Components/Algorithm/Include/arm_math.h ****    * @brief Dot product of Q7 vectors.
2766:Components/Algorithm/Include/arm_math.h ****    * @param[in]       *pSrcA points to the first input vector
2767:Components/Algorithm/Include/arm_math.h ****    * @param[in]       *pSrcB points to the second input vector
2768:Components/Algorithm/Include/arm_math.h ****    * @param[in]       blockSize number of samples in each vector
2769:Components/Algorithm/Include/arm_math.h ****    * @param[out]      *result output result returned here
2770:Components/Algorithm/Include/arm_math.h ****    * @return none.
2771:Components/Algorithm/Include/arm_math.h ****    */
2772:Components/Algorithm/Include/arm_math.h **** 
2773:Components/Algorithm/Include/arm_math.h ****   void arm_dot_prod_q7(
2774:Components/Algorithm/Include/arm_math.h ****   q7_t * pSrcA,
2775:Components/Algorithm/Include/arm_math.h ****   q7_t * pSrcB,
2776:Components/Algorithm/Include/arm_math.h ****   uint32_t blockSize,
2777:Components/Algorithm/Include/arm_math.h ****   q31_t * result);
2778:Components/Algorithm/Include/arm_math.h **** 
2779:Components/Algorithm/Include/arm_math.h ****   /**
2780:Components/Algorithm/Include/arm_math.h ****    * @brief Dot product of Q15 vectors.
2781:Components/Algorithm/Include/arm_math.h ****    * @param[in]       *pSrcA points to the first input vector
2782:Components/Algorithm/Include/arm_math.h ****    * @param[in]       *pSrcB points to the second input vector
2783:Components/Algorithm/Include/arm_math.h ****    * @param[in]       blockSize number of samples in each vector
2784:Components/Algorithm/Include/arm_math.h ****    * @param[out]      *result output result returned here
2785:Components/Algorithm/Include/arm_math.h ****    * @return none.
2786:Components/Algorithm/Include/arm_math.h ****    */
ARM GAS  C:\Users\86152\AppData\Local\Temp\ccWGVtEI.s 			page 134


2787:Components/Algorithm/Include/arm_math.h **** 
2788:Components/Algorithm/Include/arm_math.h ****   void arm_dot_prod_q15(
2789:Components/Algorithm/Include/arm_math.h ****   q15_t * pSrcA,
2790:Components/Algorithm/Include/arm_math.h ****   q15_t * pSrcB,
2791:Components/Algorithm/Include/arm_math.h ****   uint32_t blockSize,
2792:Components/Algorithm/Include/arm_math.h ****   q63_t * result);
2793:Components/Algorithm/Include/arm_math.h **** 
2794:Components/Algorithm/Include/arm_math.h ****   /**
2795:Components/Algorithm/Include/arm_math.h ****    * @brief Dot product of Q31 vectors.
2796:Components/Algorithm/Include/arm_math.h ****    * @param[in]       *pSrcA points to the first input vector
2797:Components/Algorithm/Include/arm_math.h ****    * @param[in]       *pSrcB points to the second input vector
2798:Components/Algorithm/Include/arm_math.h ****    * @param[in]       blockSize number of samples in each vector
2799:Components/Algorithm/Include/arm_math.h ****    * @param[out]      *result output result returned here
2800:Components/Algorithm/Include/arm_math.h ****    * @return none.
2801:Components/Algorithm/Include/arm_math.h ****    */
2802:Components/Algorithm/Include/arm_math.h **** 
2803:Components/Algorithm/Include/arm_math.h ****   void arm_dot_prod_q31(
2804:Components/Algorithm/Include/arm_math.h ****   q31_t * pSrcA,
2805:Components/Algorithm/Include/arm_math.h ****   q31_t * pSrcB,
2806:Components/Algorithm/Include/arm_math.h ****   uint32_t blockSize,
2807:Components/Algorithm/Include/arm_math.h ****   q63_t * result);
2808:Components/Algorithm/Include/arm_math.h **** 
2809:Components/Algorithm/Include/arm_math.h ****   /**
2810:Components/Algorithm/Include/arm_math.h ****    * @brief  Shifts the elements of a Q7 vector a specified number of bits.
2811:Components/Algorithm/Include/arm_math.h ****    * @param[in]  *pSrc points to the input vector
2812:Components/Algorithm/Include/arm_math.h ****    * @param[in]  shiftBits number of bits to shift.  A positive value shifts left; a negative value
2813:Components/Algorithm/Include/arm_math.h ****    * @param[out]  *pDst points to the output vector
2814:Components/Algorithm/Include/arm_math.h ****    * @param[in]  blockSize number of samples in the vector
2815:Components/Algorithm/Include/arm_math.h ****    * @return none.
2816:Components/Algorithm/Include/arm_math.h ****    */
2817:Components/Algorithm/Include/arm_math.h **** 
2818:Components/Algorithm/Include/arm_math.h ****   void arm_shift_q7(
2819:Components/Algorithm/Include/arm_math.h ****   q7_t * pSrc,
2820:Components/Algorithm/Include/arm_math.h ****   int8_t shiftBits,
2821:Components/Algorithm/Include/arm_math.h ****   q7_t * pDst,
2822:Components/Algorithm/Include/arm_math.h ****   uint32_t blockSize);
2823:Components/Algorithm/Include/arm_math.h **** 
2824:Components/Algorithm/Include/arm_math.h ****   /**
2825:Components/Algorithm/Include/arm_math.h ****    * @brief  Shifts the elements of a Q15 vector a specified number of bits.
2826:Components/Algorithm/Include/arm_math.h ****    * @param[in]  *pSrc points to the input vector
2827:Components/Algorithm/Include/arm_math.h ****    * @param[in]  shiftBits number of bits to shift.  A positive value shifts left; a negative value
2828:Components/Algorithm/Include/arm_math.h ****    * @param[out]  *pDst points to the output vector
2829:Components/Algorithm/Include/arm_math.h ****    * @param[in]  blockSize number of samples in the vector
2830:Components/Algorithm/Include/arm_math.h ****    * @return none.
2831:Components/Algorithm/Include/arm_math.h ****    */
2832:Components/Algorithm/Include/arm_math.h **** 
2833:Components/Algorithm/Include/arm_math.h ****   void arm_shift_q15(
2834:Components/Algorithm/Include/arm_math.h ****   q15_t * pSrc,
2835:Components/Algorithm/Include/arm_math.h ****   int8_t shiftBits,
2836:Components/Algorithm/Include/arm_math.h ****   q15_t * pDst,
2837:Components/Algorithm/Include/arm_math.h ****   uint32_t blockSize);
2838:Components/Algorithm/Include/arm_math.h **** 
2839:Components/Algorithm/Include/arm_math.h ****   /**
2840:Components/Algorithm/Include/arm_math.h ****    * @brief  Shifts the elements of a Q31 vector a specified number of bits.
2841:Components/Algorithm/Include/arm_math.h ****    * @param[in]  *pSrc points to the input vector
2842:Components/Algorithm/Include/arm_math.h ****    * @param[in]  shiftBits number of bits to shift.  A positive value shifts left; a negative value
2843:Components/Algorithm/Include/arm_math.h ****    * @param[out]  *pDst points to the output vector
ARM GAS  C:\Users\86152\AppData\Local\Temp\ccWGVtEI.s 			page 135


2844:Components/Algorithm/Include/arm_math.h ****    * @param[in]  blockSize number of samples in the vector
2845:Components/Algorithm/Include/arm_math.h ****    * @return none.
2846:Components/Algorithm/Include/arm_math.h ****    */
2847:Components/Algorithm/Include/arm_math.h **** 
2848:Components/Algorithm/Include/arm_math.h ****   void arm_shift_q31(
2849:Components/Algorithm/Include/arm_math.h ****   q31_t * pSrc,
2850:Components/Algorithm/Include/arm_math.h ****   int8_t shiftBits,
2851:Components/Algorithm/Include/arm_math.h ****   q31_t * pDst,
2852:Components/Algorithm/Include/arm_math.h ****   uint32_t blockSize);
2853:Components/Algorithm/Include/arm_math.h **** 
2854:Components/Algorithm/Include/arm_math.h ****   /**
2855:Components/Algorithm/Include/arm_math.h ****    * @brief  Adds a constant offset to a floating-point vector.
2856:Components/Algorithm/Include/arm_math.h ****    * @param[in]  *pSrc points to the input vector
2857:Components/Algorithm/Include/arm_math.h ****    * @param[in]  offset is the offset to be added
2858:Components/Algorithm/Include/arm_math.h ****    * @param[out]  *pDst points to the output vector
2859:Components/Algorithm/Include/arm_math.h ****    * @param[in]  blockSize number of samples in the vector
2860:Components/Algorithm/Include/arm_math.h ****    * @return none.
2861:Components/Algorithm/Include/arm_math.h ****    */
2862:Components/Algorithm/Include/arm_math.h **** 
2863:Components/Algorithm/Include/arm_math.h ****   void arm_offset_f32(
2864:Components/Algorithm/Include/arm_math.h ****   float32_t * pSrc,
2865:Components/Algorithm/Include/arm_math.h ****   float32_t offset,
2866:Components/Algorithm/Include/arm_math.h ****   float32_t * pDst,
2867:Components/Algorithm/Include/arm_math.h ****   uint32_t blockSize);
2868:Components/Algorithm/Include/arm_math.h **** 
2869:Components/Algorithm/Include/arm_math.h ****   /**
2870:Components/Algorithm/Include/arm_math.h ****    * @brief  Adds a constant offset to a Q7 vector.
2871:Components/Algorithm/Include/arm_math.h ****    * @param[in]  *pSrc points to the input vector
2872:Components/Algorithm/Include/arm_math.h ****    * @param[in]  offset is the offset to be added
2873:Components/Algorithm/Include/arm_math.h ****    * @param[out]  *pDst points to the output vector
2874:Components/Algorithm/Include/arm_math.h ****    * @param[in]  blockSize number of samples in the vector
2875:Components/Algorithm/Include/arm_math.h ****    * @return none.
2876:Components/Algorithm/Include/arm_math.h ****    */
2877:Components/Algorithm/Include/arm_math.h **** 
2878:Components/Algorithm/Include/arm_math.h ****   void arm_offset_q7(
2879:Components/Algorithm/Include/arm_math.h ****   q7_t * pSrc,
2880:Components/Algorithm/Include/arm_math.h ****   q7_t offset,
2881:Components/Algorithm/Include/arm_math.h ****   q7_t * pDst,
2882:Components/Algorithm/Include/arm_math.h ****   uint32_t blockSize);
2883:Components/Algorithm/Include/arm_math.h **** 
2884:Components/Algorithm/Include/arm_math.h ****   /**
2885:Components/Algorithm/Include/arm_math.h ****    * @brief  Adds a constant offset to a Q15 vector.
2886:Components/Algorithm/Include/arm_math.h ****    * @param[in]  *pSrc points to the input vector
2887:Components/Algorithm/Include/arm_math.h ****    * @param[in]  offset is the offset to be added
2888:Components/Algorithm/Include/arm_math.h ****    * @param[out]  *pDst points to the output vector
2889:Components/Algorithm/Include/arm_math.h ****    * @param[in]  blockSize number of samples in the vector
2890:Components/Algorithm/Include/arm_math.h ****    * @return none.
2891:Components/Algorithm/Include/arm_math.h ****    */
2892:Components/Algorithm/Include/arm_math.h **** 
2893:Components/Algorithm/Include/arm_math.h ****   void arm_offset_q15(
2894:Components/Algorithm/Include/arm_math.h ****   q15_t * pSrc,
2895:Components/Algorithm/Include/arm_math.h ****   q15_t offset,
2896:Components/Algorithm/Include/arm_math.h ****   q15_t * pDst,
2897:Components/Algorithm/Include/arm_math.h ****   uint32_t blockSize);
2898:Components/Algorithm/Include/arm_math.h **** 
2899:Components/Algorithm/Include/arm_math.h ****   /**
2900:Components/Algorithm/Include/arm_math.h ****    * @brief  Adds a constant offset to a Q31 vector.
ARM GAS  C:\Users\86152\AppData\Local\Temp\ccWGVtEI.s 			page 136


2901:Components/Algorithm/Include/arm_math.h ****    * @param[in]  *pSrc points to the input vector
2902:Components/Algorithm/Include/arm_math.h ****    * @param[in]  offset is the offset to be added
2903:Components/Algorithm/Include/arm_math.h ****    * @param[out]  *pDst points to the output vector
2904:Components/Algorithm/Include/arm_math.h ****    * @param[in]  blockSize number of samples in the vector
2905:Components/Algorithm/Include/arm_math.h ****    * @return none.
2906:Components/Algorithm/Include/arm_math.h ****    */
2907:Components/Algorithm/Include/arm_math.h **** 
2908:Components/Algorithm/Include/arm_math.h ****   void arm_offset_q31(
2909:Components/Algorithm/Include/arm_math.h ****   q31_t * pSrc,
2910:Components/Algorithm/Include/arm_math.h ****   q31_t offset,
2911:Components/Algorithm/Include/arm_math.h ****   q31_t * pDst,
2912:Components/Algorithm/Include/arm_math.h ****   uint32_t blockSize);
2913:Components/Algorithm/Include/arm_math.h **** 
2914:Components/Algorithm/Include/arm_math.h ****   /**
2915:Components/Algorithm/Include/arm_math.h ****    * @brief  Negates the elements of a floating-point vector.
2916:Components/Algorithm/Include/arm_math.h ****    * @param[in]  *pSrc points to the input vector
2917:Components/Algorithm/Include/arm_math.h ****    * @param[out]  *pDst points to the output vector
2918:Components/Algorithm/Include/arm_math.h ****    * @param[in]  blockSize number of samples in the vector
2919:Components/Algorithm/Include/arm_math.h ****    * @return none.
2920:Components/Algorithm/Include/arm_math.h ****    */
2921:Components/Algorithm/Include/arm_math.h **** 
2922:Components/Algorithm/Include/arm_math.h ****   void arm_negate_f32(
2923:Components/Algorithm/Include/arm_math.h ****   float32_t * pSrc,
2924:Components/Algorithm/Include/arm_math.h ****   float32_t * pDst,
2925:Components/Algorithm/Include/arm_math.h ****   uint32_t blockSize);
2926:Components/Algorithm/Include/arm_math.h **** 
2927:Components/Algorithm/Include/arm_math.h ****   /**
2928:Components/Algorithm/Include/arm_math.h ****    * @brief  Negates the elements of a Q7 vector.
2929:Components/Algorithm/Include/arm_math.h ****    * @param[in]  *pSrc points to the input vector
2930:Components/Algorithm/Include/arm_math.h ****    * @param[out]  *pDst points to the output vector
2931:Components/Algorithm/Include/arm_math.h ****    * @param[in]  blockSize number of samples in the vector
2932:Components/Algorithm/Include/arm_math.h ****    * @return none.
2933:Components/Algorithm/Include/arm_math.h ****    */
2934:Components/Algorithm/Include/arm_math.h **** 
2935:Components/Algorithm/Include/arm_math.h ****   void arm_negate_q7(
2936:Components/Algorithm/Include/arm_math.h ****   q7_t * pSrc,
2937:Components/Algorithm/Include/arm_math.h ****   q7_t * pDst,
2938:Components/Algorithm/Include/arm_math.h ****   uint32_t blockSize);
2939:Components/Algorithm/Include/arm_math.h **** 
2940:Components/Algorithm/Include/arm_math.h ****   /**
2941:Components/Algorithm/Include/arm_math.h ****    * @brief  Negates the elements of a Q15 vector.
2942:Components/Algorithm/Include/arm_math.h ****    * @param[in]  *pSrc points to the input vector
2943:Components/Algorithm/Include/arm_math.h ****    * @param[out]  *pDst points to the output vector
2944:Components/Algorithm/Include/arm_math.h ****    * @param[in]  blockSize number of samples in the vector
2945:Components/Algorithm/Include/arm_math.h ****    * @return none.
2946:Components/Algorithm/Include/arm_math.h ****    */
2947:Components/Algorithm/Include/arm_math.h **** 
2948:Components/Algorithm/Include/arm_math.h ****   void arm_negate_q15(
2949:Components/Algorithm/Include/arm_math.h ****   q15_t * pSrc,
2950:Components/Algorithm/Include/arm_math.h ****   q15_t * pDst,
2951:Components/Algorithm/Include/arm_math.h ****   uint32_t blockSize);
2952:Components/Algorithm/Include/arm_math.h **** 
2953:Components/Algorithm/Include/arm_math.h ****   /**
2954:Components/Algorithm/Include/arm_math.h ****    * @brief  Negates the elements of a Q31 vector.
2955:Components/Algorithm/Include/arm_math.h ****    * @param[in]  *pSrc points to the input vector
2956:Components/Algorithm/Include/arm_math.h ****    * @param[out]  *pDst points to the output vector
2957:Components/Algorithm/Include/arm_math.h ****    * @param[in]  blockSize number of samples in the vector
ARM GAS  C:\Users\86152\AppData\Local\Temp\ccWGVtEI.s 			page 137


2958:Components/Algorithm/Include/arm_math.h ****    * @return none.
2959:Components/Algorithm/Include/arm_math.h ****    */
2960:Components/Algorithm/Include/arm_math.h **** 
2961:Components/Algorithm/Include/arm_math.h ****   void arm_negate_q31(
2962:Components/Algorithm/Include/arm_math.h ****   q31_t * pSrc,
2963:Components/Algorithm/Include/arm_math.h ****   q31_t * pDst,
2964:Components/Algorithm/Include/arm_math.h ****   uint32_t blockSize);
2965:Components/Algorithm/Include/arm_math.h ****   /**
2966:Components/Algorithm/Include/arm_math.h ****    * @brief  Copies the elements of a floating-point vector.
2967:Components/Algorithm/Include/arm_math.h ****    * @param[in]  *pSrc input pointer
2968:Components/Algorithm/Include/arm_math.h ****    * @param[out]  *pDst output pointer
2969:Components/Algorithm/Include/arm_math.h ****    * @param[in]  blockSize number of samples to process
2970:Components/Algorithm/Include/arm_math.h ****    * @return none.
2971:Components/Algorithm/Include/arm_math.h ****    */
2972:Components/Algorithm/Include/arm_math.h ****   void arm_copy_f32(
2973:Components/Algorithm/Include/arm_math.h ****   float32_t * pSrc,
2974:Components/Algorithm/Include/arm_math.h ****   float32_t * pDst,
2975:Components/Algorithm/Include/arm_math.h ****   uint32_t blockSize);
2976:Components/Algorithm/Include/arm_math.h **** 
2977:Components/Algorithm/Include/arm_math.h ****   /**
2978:Components/Algorithm/Include/arm_math.h ****    * @brief  Copies the elements of a Q7 vector.
2979:Components/Algorithm/Include/arm_math.h ****    * @param[in]  *pSrc input pointer
2980:Components/Algorithm/Include/arm_math.h ****    * @param[out]  *pDst output pointer
2981:Components/Algorithm/Include/arm_math.h ****    * @param[in]  blockSize number of samples to process
2982:Components/Algorithm/Include/arm_math.h ****    * @return none.
2983:Components/Algorithm/Include/arm_math.h ****    */
2984:Components/Algorithm/Include/arm_math.h ****   void arm_copy_q7(
2985:Components/Algorithm/Include/arm_math.h ****   q7_t * pSrc,
2986:Components/Algorithm/Include/arm_math.h ****   q7_t * pDst,
2987:Components/Algorithm/Include/arm_math.h ****   uint32_t blockSize);
2988:Components/Algorithm/Include/arm_math.h **** 
2989:Components/Algorithm/Include/arm_math.h ****   /**
2990:Components/Algorithm/Include/arm_math.h ****    * @brief  Copies the elements of a Q15 vector.
2991:Components/Algorithm/Include/arm_math.h ****    * @param[in]  *pSrc input pointer
2992:Components/Algorithm/Include/arm_math.h ****    * @param[out]  *pDst output pointer
2993:Components/Algorithm/Include/arm_math.h ****    * @param[in]  blockSize number of samples to process
2994:Components/Algorithm/Include/arm_math.h ****    * @return none.
2995:Components/Algorithm/Include/arm_math.h ****    */
2996:Components/Algorithm/Include/arm_math.h ****   void arm_copy_q15(
2997:Components/Algorithm/Include/arm_math.h ****   q15_t * pSrc,
2998:Components/Algorithm/Include/arm_math.h ****   q15_t * pDst,
2999:Components/Algorithm/Include/arm_math.h ****   uint32_t blockSize);
3000:Components/Algorithm/Include/arm_math.h **** 
3001:Components/Algorithm/Include/arm_math.h ****   /**
3002:Components/Algorithm/Include/arm_math.h ****    * @brief  Copies the elements of a Q31 vector.
3003:Components/Algorithm/Include/arm_math.h ****    * @param[in]  *pSrc input pointer
3004:Components/Algorithm/Include/arm_math.h ****    * @param[out]  *pDst output pointer
3005:Components/Algorithm/Include/arm_math.h ****    * @param[in]  blockSize number of samples to process
3006:Components/Algorithm/Include/arm_math.h ****    * @return none.
3007:Components/Algorithm/Include/arm_math.h ****    */
3008:Components/Algorithm/Include/arm_math.h ****   void arm_copy_q31(
3009:Components/Algorithm/Include/arm_math.h ****   q31_t * pSrc,
3010:Components/Algorithm/Include/arm_math.h ****   q31_t * pDst,
3011:Components/Algorithm/Include/arm_math.h ****   uint32_t blockSize);
3012:Components/Algorithm/Include/arm_math.h ****   /**
3013:Components/Algorithm/Include/arm_math.h ****    * @brief  Fills a constant value into a floating-point vector.
3014:Components/Algorithm/Include/arm_math.h ****    * @param[in]  value input value to be filled
ARM GAS  C:\Users\86152\AppData\Local\Temp\ccWGVtEI.s 			page 138


3015:Components/Algorithm/Include/arm_math.h ****    * @param[out]  *pDst output pointer
3016:Components/Algorithm/Include/arm_math.h ****    * @param[in]  blockSize number of samples to process
3017:Components/Algorithm/Include/arm_math.h ****    * @return none.
3018:Components/Algorithm/Include/arm_math.h ****    */
3019:Components/Algorithm/Include/arm_math.h ****   void arm_fill_f32(
3020:Components/Algorithm/Include/arm_math.h ****   float32_t value,
3021:Components/Algorithm/Include/arm_math.h ****   float32_t * pDst,
3022:Components/Algorithm/Include/arm_math.h ****   uint32_t blockSize);
3023:Components/Algorithm/Include/arm_math.h **** 
3024:Components/Algorithm/Include/arm_math.h ****   /**
3025:Components/Algorithm/Include/arm_math.h ****    * @brief  Fills a constant value into a Q7 vector.
3026:Components/Algorithm/Include/arm_math.h ****    * @param[in]  value input value to be filled
3027:Components/Algorithm/Include/arm_math.h ****    * @param[out]  *pDst output pointer
3028:Components/Algorithm/Include/arm_math.h ****    * @param[in]  blockSize number of samples to process
3029:Components/Algorithm/Include/arm_math.h ****    * @return none.
3030:Components/Algorithm/Include/arm_math.h ****    */
3031:Components/Algorithm/Include/arm_math.h ****   void arm_fill_q7(
3032:Components/Algorithm/Include/arm_math.h ****   q7_t value,
3033:Components/Algorithm/Include/arm_math.h ****   q7_t * pDst,
3034:Components/Algorithm/Include/arm_math.h ****   uint32_t blockSize);
3035:Components/Algorithm/Include/arm_math.h **** 
3036:Components/Algorithm/Include/arm_math.h ****   /**
3037:Components/Algorithm/Include/arm_math.h ****    * @brief  Fills a constant value into a Q15 vector.
3038:Components/Algorithm/Include/arm_math.h ****    * @param[in]  value input value to be filled
3039:Components/Algorithm/Include/arm_math.h ****    * @param[out]  *pDst output pointer
3040:Components/Algorithm/Include/arm_math.h ****    * @param[in]  blockSize number of samples to process
3041:Components/Algorithm/Include/arm_math.h ****    * @return none.
3042:Components/Algorithm/Include/arm_math.h ****    */
3043:Components/Algorithm/Include/arm_math.h ****   void arm_fill_q15(
3044:Components/Algorithm/Include/arm_math.h ****   q15_t value,
3045:Components/Algorithm/Include/arm_math.h ****   q15_t * pDst,
3046:Components/Algorithm/Include/arm_math.h ****   uint32_t blockSize);
3047:Components/Algorithm/Include/arm_math.h **** 
3048:Components/Algorithm/Include/arm_math.h ****   /**
3049:Components/Algorithm/Include/arm_math.h ****    * @brief  Fills a constant value into a Q31 vector.
3050:Components/Algorithm/Include/arm_math.h ****    * @param[in]  value input value to be filled
3051:Components/Algorithm/Include/arm_math.h ****    * @param[out]  *pDst output pointer
3052:Components/Algorithm/Include/arm_math.h ****    * @param[in]  blockSize number of samples to process
3053:Components/Algorithm/Include/arm_math.h ****    * @return none.
3054:Components/Algorithm/Include/arm_math.h ****    */
3055:Components/Algorithm/Include/arm_math.h ****   void arm_fill_q31(
3056:Components/Algorithm/Include/arm_math.h ****   q31_t value,
3057:Components/Algorithm/Include/arm_math.h ****   q31_t * pDst,
3058:Components/Algorithm/Include/arm_math.h ****   uint32_t blockSize);
3059:Components/Algorithm/Include/arm_math.h **** 
3060:Components/Algorithm/Include/arm_math.h **** /**
3061:Components/Algorithm/Include/arm_math.h ****  * @brief Convolution of floating-point sequences.
3062:Components/Algorithm/Include/arm_math.h ****  * @param[in] *pSrcA points to the first input sequence.
3063:Components/Algorithm/Include/arm_math.h ****  * @param[in] srcALen length of the first input sequence.
3064:Components/Algorithm/Include/arm_math.h ****  * @param[in] *pSrcB points to the second input sequence.
3065:Components/Algorithm/Include/arm_math.h ****  * @param[in] srcBLen length of the second input sequence.
3066:Components/Algorithm/Include/arm_math.h ****  * @param[out] *pDst points to the location where the output result is written.  Length srcALen+src
3067:Components/Algorithm/Include/arm_math.h ****  * @return none.
3068:Components/Algorithm/Include/arm_math.h ****  */
3069:Components/Algorithm/Include/arm_math.h **** 
3070:Components/Algorithm/Include/arm_math.h ****   void arm_conv_f32(
3071:Components/Algorithm/Include/arm_math.h ****   float32_t * pSrcA,
ARM GAS  C:\Users\86152\AppData\Local\Temp\ccWGVtEI.s 			page 139


3072:Components/Algorithm/Include/arm_math.h ****   uint32_t srcALen,
3073:Components/Algorithm/Include/arm_math.h ****   float32_t * pSrcB,
3074:Components/Algorithm/Include/arm_math.h ****   uint32_t srcBLen,
3075:Components/Algorithm/Include/arm_math.h ****   float32_t * pDst);
3076:Components/Algorithm/Include/arm_math.h **** 
3077:Components/Algorithm/Include/arm_math.h **** 
3078:Components/Algorithm/Include/arm_math.h ****   /**
3079:Components/Algorithm/Include/arm_math.h ****    * @brief Convolution of Q15 sequences.
3080:Components/Algorithm/Include/arm_math.h ****    * @param[in] *pSrcA points to the first input sequence.
3081:Components/Algorithm/Include/arm_math.h ****    * @param[in] srcALen length of the first input sequence.
3082:Components/Algorithm/Include/arm_math.h ****    * @param[in] *pSrcB points to the second input sequence.
3083:Components/Algorithm/Include/arm_math.h ****    * @param[in] srcBLen length of the second input sequence.
3084:Components/Algorithm/Include/arm_math.h ****    * @param[out] *pDst points to the block of output data  Length srcALen+srcBLen-1.
3085:Components/Algorithm/Include/arm_math.h ****    * @param[in]  *pScratch1 points to scratch buffer of size max(srcALen, srcBLen) + 2*min(srcALen,
3086:Components/Algorithm/Include/arm_math.h ****    * @param[in]  *pScratch2 points to scratch buffer of size min(srcALen, srcBLen).
3087:Components/Algorithm/Include/arm_math.h ****    * @return none.
3088:Components/Algorithm/Include/arm_math.h ****    */
3089:Components/Algorithm/Include/arm_math.h **** 
3090:Components/Algorithm/Include/arm_math.h **** 
3091:Components/Algorithm/Include/arm_math.h ****   void arm_conv_opt_q15(
3092:Components/Algorithm/Include/arm_math.h ****   q15_t * pSrcA,
3093:Components/Algorithm/Include/arm_math.h ****   uint32_t srcALen,
3094:Components/Algorithm/Include/arm_math.h ****   q15_t * pSrcB,
3095:Components/Algorithm/Include/arm_math.h ****   uint32_t srcBLen,
3096:Components/Algorithm/Include/arm_math.h ****   q15_t * pDst,
3097:Components/Algorithm/Include/arm_math.h ****   q15_t * pScratch1,
3098:Components/Algorithm/Include/arm_math.h ****   q15_t * pScratch2);
3099:Components/Algorithm/Include/arm_math.h **** 
3100:Components/Algorithm/Include/arm_math.h **** 
3101:Components/Algorithm/Include/arm_math.h **** /**
3102:Components/Algorithm/Include/arm_math.h ****  * @brief Convolution of Q15 sequences.
3103:Components/Algorithm/Include/arm_math.h ****  * @param[in] *pSrcA points to the first input sequence.
3104:Components/Algorithm/Include/arm_math.h ****  * @param[in] srcALen length of the first input sequence.
3105:Components/Algorithm/Include/arm_math.h ****  * @param[in] *pSrcB points to the second input sequence.
3106:Components/Algorithm/Include/arm_math.h ****  * @param[in] srcBLen length of the second input sequence.
3107:Components/Algorithm/Include/arm_math.h ****  * @param[out] *pDst points to the location where the output result is written.  Length srcALen+src
3108:Components/Algorithm/Include/arm_math.h ****  * @return none.
3109:Components/Algorithm/Include/arm_math.h ****  */
3110:Components/Algorithm/Include/arm_math.h **** 
3111:Components/Algorithm/Include/arm_math.h ****   void arm_conv_q15(
3112:Components/Algorithm/Include/arm_math.h ****   q15_t * pSrcA,
3113:Components/Algorithm/Include/arm_math.h ****   uint32_t srcALen,
3114:Components/Algorithm/Include/arm_math.h ****   q15_t * pSrcB,
3115:Components/Algorithm/Include/arm_math.h ****   uint32_t srcBLen,
3116:Components/Algorithm/Include/arm_math.h ****   q15_t * pDst);
3117:Components/Algorithm/Include/arm_math.h **** 
3118:Components/Algorithm/Include/arm_math.h ****   /**
3119:Components/Algorithm/Include/arm_math.h ****    * @brief Convolution of Q15 sequences (fast version) for Cortex-M3 and Cortex-M4
3120:Components/Algorithm/Include/arm_math.h ****    * @param[in] *pSrcA points to the first input sequence.
3121:Components/Algorithm/Include/arm_math.h ****    * @param[in] srcALen length of the first input sequence.
3122:Components/Algorithm/Include/arm_math.h ****    * @param[in] *pSrcB points to the second input sequence.
3123:Components/Algorithm/Include/arm_math.h ****    * @param[in] srcBLen length of the second input sequence.
3124:Components/Algorithm/Include/arm_math.h ****    * @param[out] *pDst points to the block of output data  Length srcALen+srcBLen-1.
3125:Components/Algorithm/Include/arm_math.h ****    * @return none.
3126:Components/Algorithm/Include/arm_math.h ****    */
3127:Components/Algorithm/Include/arm_math.h **** 
3128:Components/Algorithm/Include/arm_math.h ****   void arm_conv_fast_q15(
ARM GAS  C:\Users\86152\AppData\Local\Temp\ccWGVtEI.s 			page 140


3129:Components/Algorithm/Include/arm_math.h **** 			  q15_t * pSrcA,
3130:Components/Algorithm/Include/arm_math.h **** 			 uint32_t srcALen,
3131:Components/Algorithm/Include/arm_math.h **** 			  q15_t * pSrcB,
3132:Components/Algorithm/Include/arm_math.h **** 			 uint32_t srcBLen,
3133:Components/Algorithm/Include/arm_math.h **** 			 q15_t * pDst);
3134:Components/Algorithm/Include/arm_math.h **** 
3135:Components/Algorithm/Include/arm_math.h ****   /**
3136:Components/Algorithm/Include/arm_math.h ****    * @brief Convolution of Q15 sequences (fast version) for Cortex-M3 and Cortex-M4
3137:Components/Algorithm/Include/arm_math.h ****    * @param[in] *pSrcA points to the first input sequence.
3138:Components/Algorithm/Include/arm_math.h ****    * @param[in] srcALen length of the first input sequence.
3139:Components/Algorithm/Include/arm_math.h ****    * @param[in] *pSrcB points to the second input sequence.
3140:Components/Algorithm/Include/arm_math.h ****    * @param[in] srcBLen length of the second input sequence.
3141:Components/Algorithm/Include/arm_math.h ****    * @param[out] *pDst points to the block of output data  Length srcALen+srcBLen-1.
3142:Components/Algorithm/Include/arm_math.h ****    * @param[in]  *pScratch1 points to scratch buffer of size max(srcALen, srcBLen) + 2*min(srcALen,
3143:Components/Algorithm/Include/arm_math.h ****    * @param[in]  *pScratch2 points to scratch buffer of size min(srcALen, srcBLen).
3144:Components/Algorithm/Include/arm_math.h ****    * @return none.
3145:Components/Algorithm/Include/arm_math.h ****    */
3146:Components/Algorithm/Include/arm_math.h **** 
3147:Components/Algorithm/Include/arm_math.h ****   void arm_conv_fast_opt_q15(
3148:Components/Algorithm/Include/arm_math.h ****   q15_t * pSrcA,
3149:Components/Algorithm/Include/arm_math.h ****   uint32_t srcALen,
3150:Components/Algorithm/Include/arm_math.h ****   q15_t * pSrcB,
3151:Components/Algorithm/Include/arm_math.h ****   uint32_t srcBLen,
3152:Components/Algorithm/Include/arm_math.h ****   q15_t * pDst,
3153:Components/Algorithm/Include/arm_math.h ****   q15_t * pScratch1,
3154:Components/Algorithm/Include/arm_math.h ****   q15_t * pScratch2);
3155:Components/Algorithm/Include/arm_math.h **** 
3156:Components/Algorithm/Include/arm_math.h **** 
3157:Components/Algorithm/Include/arm_math.h **** 
3158:Components/Algorithm/Include/arm_math.h ****   /**
3159:Components/Algorithm/Include/arm_math.h ****    * @brief Convolution of Q31 sequences.
3160:Components/Algorithm/Include/arm_math.h ****    * @param[in] *pSrcA points to the first input sequence.
3161:Components/Algorithm/Include/arm_math.h ****    * @param[in] srcALen length of the first input sequence.
3162:Components/Algorithm/Include/arm_math.h ****    * @param[in] *pSrcB points to the second input sequence.
3163:Components/Algorithm/Include/arm_math.h ****    * @param[in] srcBLen length of the second input sequence.
3164:Components/Algorithm/Include/arm_math.h ****    * @param[out] *pDst points to the block of output data  Length srcALen+srcBLen-1.
3165:Components/Algorithm/Include/arm_math.h ****    * @return none.
3166:Components/Algorithm/Include/arm_math.h ****    */
3167:Components/Algorithm/Include/arm_math.h **** 
3168:Components/Algorithm/Include/arm_math.h ****   void arm_conv_q31(
3169:Components/Algorithm/Include/arm_math.h ****   q31_t * pSrcA,
3170:Components/Algorithm/Include/arm_math.h ****   uint32_t srcALen,
3171:Components/Algorithm/Include/arm_math.h ****   q31_t * pSrcB,
3172:Components/Algorithm/Include/arm_math.h ****   uint32_t srcBLen,
3173:Components/Algorithm/Include/arm_math.h ****   q31_t * pDst);
3174:Components/Algorithm/Include/arm_math.h **** 
3175:Components/Algorithm/Include/arm_math.h ****   /**
3176:Components/Algorithm/Include/arm_math.h ****    * @brief Convolution of Q31 sequences (fast version) for Cortex-M3 and Cortex-M4
3177:Components/Algorithm/Include/arm_math.h ****    * @param[in] *pSrcA points to the first input sequence.
3178:Components/Algorithm/Include/arm_math.h ****    * @param[in] srcALen length of the first input sequence.
3179:Components/Algorithm/Include/arm_math.h ****    * @param[in] *pSrcB points to the second input sequence.
3180:Components/Algorithm/Include/arm_math.h ****    * @param[in] srcBLen length of the second input sequence.
3181:Components/Algorithm/Include/arm_math.h ****    * @param[out] *pDst points to the block of output data  Length srcALen+srcBLen-1.
3182:Components/Algorithm/Include/arm_math.h ****    * @return none.
3183:Components/Algorithm/Include/arm_math.h ****    */
3184:Components/Algorithm/Include/arm_math.h **** 
3185:Components/Algorithm/Include/arm_math.h ****   void arm_conv_fast_q31(
ARM GAS  C:\Users\86152\AppData\Local\Temp\ccWGVtEI.s 			page 141


3186:Components/Algorithm/Include/arm_math.h ****   q31_t * pSrcA,
3187:Components/Algorithm/Include/arm_math.h ****   uint32_t srcALen,
3188:Components/Algorithm/Include/arm_math.h ****   q31_t * pSrcB,
3189:Components/Algorithm/Include/arm_math.h ****   uint32_t srcBLen,
3190:Components/Algorithm/Include/arm_math.h ****   q31_t * pDst);
3191:Components/Algorithm/Include/arm_math.h **** 
3192:Components/Algorithm/Include/arm_math.h **** 
3193:Components/Algorithm/Include/arm_math.h ****     /**
3194:Components/Algorithm/Include/arm_math.h ****    * @brief Convolution of Q7 sequences.
3195:Components/Algorithm/Include/arm_math.h ****    * @param[in] *pSrcA points to the first input sequence.
3196:Components/Algorithm/Include/arm_math.h ****    * @param[in] srcALen length of the first input sequence.
3197:Components/Algorithm/Include/arm_math.h ****    * @param[in] *pSrcB points to the second input sequence.
3198:Components/Algorithm/Include/arm_math.h ****    * @param[in] srcBLen length of the second input sequence.
3199:Components/Algorithm/Include/arm_math.h ****    * @param[out] *pDst points to the block of output data  Length srcALen+srcBLen-1.
3200:Components/Algorithm/Include/arm_math.h ****    * @param[in]  *pScratch1 points to scratch buffer(of type q15_t) of size max(srcALen, srcBLen) +
3201:Components/Algorithm/Include/arm_math.h ****    * @param[in]  *pScratch2 points to scratch buffer (of type q15_t) of size min(srcALen, srcBLen).
3202:Components/Algorithm/Include/arm_math.h ****    * @return none.
3203:Components/Algorithm/Include/arm_math.h ****    */
3204:Components/Algorithm/Include/arm_math.h **** 
3205:Components/Algorithm/Include/arm_math.h ****   void arm_conv_opt_q7(
3206:Components/Algorithm/Include/arm_math.h ****   q7_t * pSrcA,
3207:Components/Algorithm/Include/arm_math.h ****   uint32_t srcALen,
3208:Components/Algorithm/Include/arm_math.h ****   q7_t * pSrcB,
3209:Components/Algorithm/Include/arm_math.h ****   uint32_t srcBLen,
3210:Components/Algorithm/Include/arm_math.h ****   q7_t * pDst,
3211:Components/Algorithm/Include/arm_math.h ****   q15_t * pScratch1,
3212:Components/Algorithm/Include/arm_math.h ****   q15_t * pScratch2);
3213:Components/Algorithm/Include/arm_math.h **** 
3214:Components/Algorithm/Include/arm_math.h **** 
3215:Components/Algorithm/Include/arm_math.h **** 
3216:Components/Algorithm/Include/arm_math.h ****   /**
3217:Components/Algorithm/Include/arm_math.h ****    * @brief Convolution of Q7 sequences.
3218:Components/Algorithm/Include/arm_math.h ****    * @param[in] *pSrcA points to the first input sequence.
3219:Components/Algorithm/Include/arm_math.h ****    * @param[in] srcALen length of the first input sequence.
3220:Components/Algorithm/Include/arm_math.h ****    * @param[in] *pSrcB points to the second input sequence.
3221:Components/Algorithm/Include/arm_math.h ****    * @param[in] srcBLen length of the second input sequence.
3222:Components/Algorithm/Include/arm_math.h ****    * @param[out] *pDst points to the block of output data  Length srcALen+srcBLen-1.
3223:Components/Algorithm/Include/arm_math.h ****    * @return none.
3224:Components/Algorithm/Include/arm_math.h ****    */
3225:Components/Algorithm/Include/arm_math.h **** 
3226:Components/Algorithm/Include/arm_math.h ****   void arm_conv_q7(
3227:Components/Algorithm/Include/arm_math.h ****   q7_t * pSrcA,
3228:Components/Algorithm/Include/arm_math.h ****   uint32_t srcALen,
3229:Components/Algorithm/Include/arm_math.h ****   q7_t * pSrcB,
3230:Components/Algorithm/Include/arm_math.h ****   uint32_t srcBLen,
3231:Components/Algorithm/Include/arm_math.h ****   q7_t * pDst);
3232:Components/Algorithm/Include/arm_math.h **** 
3233:Components/Algorithm/Include/arm_math.h **** 
3234:Components/Algorithm/Include/arm_math.h ****   /**
3235:Components/Algorithm/Include/arm_math.h ****    * @brief Partial convolution of floating-point sequences.
3236:Components/Algorithm/Include/arm_math.h ****    * @param[in]       *pSrcA points to the first input sequence.
3237:Components/Algorithm/Include/arm_math.h ****    * @param[in]       srcALen length of the first input sequence.
3238:Components/Algorithm/Include/arm_math.h ****    * @param[in]       *pSrcB points to the second input sequence.
3239:Components/Algorithm/Include/arm_math.h ****    * @param[in]       srcBLen length of the second input sequence.
3240:Components/Algorithm/Include/arm_math.h ****    * @param[out]      *pDst points to the block of output data
3241:Components/Algorithm/Include/arm_math.h ****    * @param[in]       firstIndex is the first output sample to start with.
3242:Components/Algorithm/Include/arm_math.h ****    * @param[in]       numPoints is the number of output points to be computed.
ARM GAS  C:\Users\86152\AppData\Local\Temp\ccWGVtEI.s 			page 142


3243:Components/Algorithm/Include/arm_math.h ****    * @return  Returns either ARM_MATH_SUCCESS if the function completed correctly or ARM_MATH_ARGUM
3244:Components/Algorithm/Include/arm_math.h ****    */
3245:Components/Algorithm/Include/arm_math.h **** 
3246:Components/Algorithm/Include/arm_math.h ****   arm_status arm_conv_partial_f32(
3247:Components/Algorithm/Include/arm_math.h ****   float32_t * pSrcA,
3248:Components/Algorithm/Include/arm_math.h ****   uint32_t srcALen,
3249:Components/Algorithm/Include/arm_math.h ****   float32_t * pSrcB,
3250:Components/Algorithm/Include/arm_math.h ****   uint32_t srcBLen,
3251:Components/Algorithm/Include/arm_math.h ****   float32_t * pDst,
3252:Components/Algorithm/Include/arm_math.h ****   uint32_t firstIndex,
3253:Components/Algorithm/Include/arm_math.h ****   uint32_t numPoints);
3254:Components/Algorithm/Include/arm_math.h **** 
3255:Components/Algorithm/Include/arm_math.h ****     /**
3256:Components/Algorithm/Include/arm_math.h ****    * @brief Partial convolution of Q15 sequences.
3257:Components/Algorithm/Include/arm_math.h ****    * @param[in]       *pSrcA points to the first input sequence.
3258:Components/Algorithm/Include/arm_math.h ****    * @param[in]       srcALen length of the first input sequence.
3259:Components/Algorithm/Include/arm_math.h ****    * @param[in]       *pSrcB points to the second input sequence.
3260:Components/Algorithm/Include/arm_math.h ****    * @param[in]       srcBLen length of the second input sequence.
3261:Components/Algorithm/Include/arm_math.h ****    * @param[out]      *pDst points to the block of output data
3262:Components/Algorithm/Include/arm_math.h ****    * @param[in]       firstIndex is the first output sample to start with.
3263:Components/Algorithm/Include/arm_math.h ****    * @param[in]       numPoints is the number of output points to be computed.
3264:Components/Algorithm/Include/arm_math.h ****    * @param[in]       * pScratch1 points to scratch buffer of size max(srcALen, srcBLen) + 2*min(sr
3265:Components/Algorithm/Include/arm_math.h ****    * @param[in]       * pScratch2 points to scratch buffer of size min(srcALen, srcBLen).
3266:Components/Algorithm/Include/arm_math.h ****    * @return  Returns either ARM_MATH_SUCCESS if the function completed correctly or ARM_MATH_ARGUM
3267:Components/Algorithm/Include/arm_math.h ****    */
3268:Components/Algorithm/Include/arm_math.h **** 
3269:Components/Algorithm/Include/arm_math.h ****   arm_status arm_conv_partial_opt_q15(
3270:Components/Algorithm/Include/arm_math.h ****   q15_t * pSrcA,
3271:Components/Algorithm/Include/arm_math.h ****   uint32_t srcALen,
3272:Components/Algorithm/Include/arm_math.h ****   q15_t * pSrcB,
3273:Components/Algorithm/Include/arm_math.h ****   uint32_t srcBLen,
3274:Components/Algorithm/Include/arm_math.h ****   q15_t * pDst,
3275:Components/Algorithm/Include/arm_math.h ****   uint32_t firstIndex,
3276:Components/Algorithm/Include/arm_math.h ****   uint32_t numPoints,
3277:Components/Algorithm/Include/arm_math.h ****   q15_t * pScratch1,
3278:Components/Algorithm/Include/arm_math.h ****   q15_t * pScratch2);
3279:Components/Algorithm/Include/arm_math.h **** 
3280:Components/Algorithm/Include/arm_math.h **** 
3281:Components/Algorithm/Include/arm_math.h **** /**
3282:Components/Algorithm/Include/arm_math.h ****    * @brief Partial convolution of Q15 sequences.
3283:Components/Algorithm/Include/arm_math.h ****    * @param[in]       *pSrcA points to the first input sequence.
3284:Components/Algorithm/Include/arm_math.h ****    * @param[in]       srcALen length of the first input sequence.
3285:Components/Algorithm/Include/arm_math.h ****    * @param[in]       *pSrcB points to the second input sequence.
3286:Components/Algorithm/Include/arm_math.h ****    * @param[in]       srcBLen length of the second input sequence.
3287:Components/Algorithm/Include/arm_math.h ****    * @param[out]      *pDst points to the block of output data
3288:Components/Algorithm/Include/arm_math.h ****    * @param[in]       firstIndex is the first output sample to start with.
3289:Components/Algorithm/Include/arm_math.h ****    * @param[in]       numPoints is the number of output points to be computed.
3290:Components/Algorithm/Include/arm_math.h ****    * @return  Returns either ARM_MATH_SUCCESS if the function completed correctly or ARM_MATH_ARGUM
3291:Components/Algorithm/Include/arm_math.h ****    */
3292:Components/Algorithm/Include/arm_math.h **** 
3293:Components/Algorithm/Include/arm_math.h ****   arm_status arm_conv_partial_q15(
3294:Components/Algorithm/Include/arm_math.h ****   q15_t * pSrcA,
3295:Components/Algorithm/Include/arm_math.h ****   uint32_t srcALen,
3296:Components/Algorithm/Include/arm_math.h ****   q15_t * pSrcB,
3297:Components/Algorithm/Include/arm_math.h ****   uint32_t srcBLen,
3298:Components/Algorithm/Include/arm_math.h ****   q15_t * pDst,
3299:Components/Algorithm/Include/arm_math.h ****   uint32_t firstIndex,
ARM GAS  C:\Users\86152\AppData\Local\Temp\ccWGVtEI.s 			page 143


3300:Components/Algorithm/Include/arm_math.h ****   uint32_t numPoints);
3301:Components/Algorithm/Include/arm_math.h **** 
3302:Components/Algorithm/Include/arm_math.h ****   /**
3303:Components/Algorithm/Include/arm_math.h ****    * @brief Partial convolution of Q15 sequences (fast version) for Cortex-M3 and Cortex-M4
3304:Components/Algorithm/Include/arm_math.h ****    * @param[in]       *pSrcA points to the first input sequence.
3305:Components/Algorithm/Include/arm_math.h ****    * @param[in]       srcALen length of the first input sequence.
3306:Components/Algorithm/Include/arm_math.h ****    * @param[in]       *pSrcB points to the second input sequence.
3307:Components/Algorithm/Include/arm_math.h ****    * @param[in]       srcBLen length of the second input sequence.
3308:Components/Algorithm/Include/arm_math.h ****    * @param[out]      *pDst points to the block of output data
3309:Components/Algorithm/Include/arm_math.h ****    * @param[in]       firstIndex is the first output sample to start with.
3310:Components/Algorithm/Include/arm_math.h ****    * @param[in]       numPoints is the number of output points to be computed.
3311:Components/Algorithm/Include/arm_math.h ****    * @return  Returns either ARM_MATH_SUCCESS if the function completed correctly or ARM_MATH_ARGUM
3312:Components/Algorithm/Include/arm_math.h ****    */
3313:Components/Algorithm/Include/arm_math.h **** 
3314:Components/Algorithm/Include/arm_math.h ****   arm_status arm_conv_partial_fast_q15(
3315:Components/Algorithm/Include/arm_math.h **** 				        q15_t * pSrcA,
3316:Components/Algorithm/Include/arm_math.h **** 				       uint32_t srcALen,
3317:Components/Algorithm/Include/arm_math.h **** 				        q15_t * pSrcB,
3318:Components/Algorithm/Include/arm_math.h **** 				       uint32_t srcBLen,
3319:Components/Algorithm/Include/arm_math.h **** 				       q15_t * pDst,
3320:Components/Algorithm/Include/arm_math.h **** 				       uint32_t firstIndex,
3321:Components/Algorithm/Include/arm_math.h **** 				       uint32_t numPoints);
3322:Components/Algorithm/Include/arm_math.h **** 
3323:Components/Algorithm/Include/arm_math.h **** 
3324:Components/Algorithm/Include/arm_math.h ****   /**
3325:Components/Algorithm/Include/arm_math.h ****    * @brief Partial convolution of Q15 sequences (fast version) for Cortex-M3 and Cortex-M4
3326:Components/Algorithm/Include/arm_math.h ****    * @param[in]       *pSrcA points to the first input sequence.
3327:Components/Algorithm/Include/arm_math.h ****    * @param[in]       srcALen length of the first input sequence.
3328:Components/Algorithm/Include/arm_math.h ****    * @param[in]       *pSrcB points to the second input sequence.
3329:Components/Algorithm/Include/arm_math.h ****    * @param[in]       srcBLen length of the second input sequence.
3330:Components/Algorithm/Include/arm_math.h ****    * @param[out]      *pDst points to the block of output data
3331:Components/Algorithm/Include/arm_math.h ****    * @param[in]       firstIndex is the first output sample to start with.
3332:Components/Algorithm/Include/arm_math.h ****    * @param[in]       numPoints is the number of output points to be computed.
3333:Components/Algorithm/Include/arm_math.h ****    * @param[in]       * pScratch1 points to scratch buffer of size max(srcALen, srcBLen) + 2*min(sr
3334:Components/Algorithm/Include/arm_math.h ****    * @param[in]       * pScratch2 points to scratch buffer of size min(srcALen, srcBLen).
3335:Components/Algorithm/Include/arm_math.h ****    * @return  Returns either ARM_MATH_SUCCESS if the function completed correctly or ARM_MATH_ARGUM
3336:Components/Algorithm/Include/arm_math.h ****    */
3337:Components/Algorithm/Include/arm_math.h **** 
3338:Components/Algorithm/Include/arm_math.h ****   arm_status arm_conv_partial_fast_opt_q15(
3339:Components/Algorithm/Include/arm_math.h ****   q15_t * pSrcA,
3340:Components/Algorithm/Include/arm_math.h ****   uint32_t srcALen,
3341:Components/Algorithm/Include/arm_math.h ****   q15_t * pSrcB,
3342:Components/Algorithm/Include/arm_math.h ****   uint32_t srcBLen,
3343:Components/Algorithm/Include/arm_math.h ****   q15_t * pDst,
3344:Components/Algorithm/Include/arm_math.h ****   uint32_t firstIndex,
3345:Components/Algorithm/Include/arm_math.h ****   uint32_t numPoints,
3346:Components/Algorithm/Include/arm_math.h ****   q15_t * pScratch1,
3347:Components/Algorithm/Include/arm_math.h ****   q15_t * pScratch2);
3348:Components/Algorithm/Include/arm_math.h **** 
3349:Components/Algorithm/Include/arm_math.h **** 
3350:Components/Algorithm/Include/arm_math.h ****   /**
3351:Components/Algorithm/Include/arm_math.h ****    * @brief Partial convolution of Q31 sequences.
3352:Components/Algorithm/Include/arm_math.h ****    * @param[in]       *pSrcA points to the first input sequence.
3353:Components/Algorithm/Include/arm_math.h ****    * @param[in]       srcALen length of the first input sequence.
3354:Components/Algorithm/Include/arm_math.h ****    * @param[in]       *pSrcB points to the second input sequence.
3355:Components/Algorithm/Include/arm_math.h ****    * @param[in]       srcBLen length of the second input sequence.
3356:Components/Algorithm/Include/arm_math.h ****    * @param[out]      *pDst points to the block of output data
ARM GAS  C:\Users\86152\AppData\Local\Temp\ccWGVtEI.s 			page 144


3357:Components/Algorithm/Include/arm_math.h ****    * @param[in]       firstIndex is the first output sample to start with.
3358:Components/Algorithm/Include/arm_math.h ****    * @param[in]       numPoints is the number of output points to be computed.
3359:Components/Algorithm/Include/arm_math.h ****    * @return  Returns either ARM_MATH_SUCCESS if the function completed correctly or ARM_MATH_ARGUM
3360:Components/Algorithm/Include/arm_math.h ****    */
3361:Components/Algorithm/Include/arm_math.h **** 
3362:Components/Algorithm/Include/arm_math.h ****   arm_status arm_conv_partial_q31(
3363:Components/Algorithm/Include/arm_math.h ****   q31_t * pSrcA,
3364:Components/Algorithm/Include/arm_math.h ****   uint32_t srcALen,
3365:Components/Algorithm/Include/arm_math.h ****   q31_t * pSrcB,
3366:Components/Algorithm/Include/arm_math.h ****   uint32_t srcBLen,
3367:Components/Algorithm/Include/arm_math.h ****   q31_t * pDst,
3368:Components/Algorithm/Include/arm_math.h ****   uint32_t firstIndex,
3369:Components/Algorithm/Include/arm_math.h ****   uint32_t numPoints);
3370:Components/Algorithm/Include/arm_math.h **** 
3371:Components/Algorithm/Include/arm_math.h **** 
3372:Components/Algorithm/Include/arm_math.h ****   /**
3373:Components/Algorithm/Include/arm_math.h ****    * @brief Partial convolution of Q31 sequences (fast version) for Cortex-M3 and Cortex-M4
3374:Components/Algorithm/Include/arm_math.h ****    * @param[in]       *pSrcA points to the first input sequence.
3375:Components/Algorithm/Include/arm_math.h ****    * @param[in]       srcALen length of the first input sequence.
3376:Components/Algorithm/Include/arm_math.h ****    * @param[in]       *pSrcB points to the second input sequence.
3377:Components/Algorithm/Include/arm_math.h ****    * @param[in]       srcBLen length of the second input sequence.
3378:Components/Algorithm/Include/arm_math.h ****    * @param[out]      *pDst points to the block of output data
3379:Components/Algorithm/Include/arm_math.h ****    * @param[in]       firstIndex is the first output sample to start with.
3380:Components/Algorithm/Include/arm_math.h ****    * @param[in]       numPoints is the number of output points to be computed.
3381:Components/Algorithm/Include/arm_math.h ****    * @return  Returns either ARM_MATH_SUCCESS if the function completed correctly or ARM_MATH_ARGUM
3382:Components/Algorithm/Include/arm_math.h ****    */
3383:Components/Algorithm/Include/arm_math.h **** 
3384:Components/Algorithm/Include/arm_math.h ****   arm_status arm_conv_partial_fast_q31(
3385:Components/Algorithm/Include/arm_math.h ****   q31_t * pSrcA,
3386:Components/Algorithm/Include/arm_math.h ****   uint32_t srcALen,
3387:Components/Algorithm/Include/arm_math.h ****   q31_t * pSrcB,
3388:Components/Algorithm/Include/arm_math.h ****   uint32_t srcBLen,
3389:Components/Algorithm/Include/arm_math.h ****   q31_t * pDst,
3390:Components/Algorithm/Include/arm_math.h ****   uint32_t firstIndex,
3391:Components/Algorithm/Include/arm_math.h ****   uint32_t numPoints);
3392:Components/Algorithm/Include/arm_math.h **** 
3393:Components/Algorithm/Include/arm_math.h **** 
3394:Components/Algorithm/Include/arm_math.h ****   /**
3395:Components/Algorithm/Include/arm_math.h ****    * @brief Partial convolution of Q7 sequences
3396:Components/Algorithm/Include/arm_math.h ****    * @param[in]       *pSrcA points to the first input sequence.
3397:Components/Algorithm/Include/arm_math.h ****    * @param[in]       srcALen length of the first input sequence.
3398:Components/Algorithm/Include/arm_math.h ****    * @param[in]       *pSrcB points to the second input sequence.
3399:Components/Algorithm/Include/arm_math.h ****    * @param[in]       srcBLen length of the second input sequence.
3400:Components/Algorithm/Include/arm_math.h ****    * @param[out]      *pDst points to the block of output data
3401:Components/Algorithm/Include/arm_math.h ****    * @param[in]       firstIndex is the first output sample to start with.
3402:Components/Algorithm/Include/arm_math.h ****    * @param[in]       numPoints is the number of output points to be computed.
3403:Components/Algorithm/Include/arm_math.h ****    * @param[in]  *pScratch1 points to scratch buffer(of type q15_t) of size max(srcALen, srcBLen) +
3404:Components/Algorithm/Include/arm_math.h ****    * @param[in]  *pScratch2 points to scratch buffer (of type q15_t) of size min(srcALen, srcBLen).
3405:Components/Algorithm/Include/arm_math.h ****    * @return  Returns either ARM_MATH_SUCCESS if the function completed correctly or ARM_MATH_ARGUM
3406:Components/Algorithm/Include/arm_math.h ****    */
3407:Components/Algorithm/Include/arm_math.h **** 
3408:Components/Algorithm/Include/arm_math.h ****   arm_status arm_conv_partial_opt_q7(
3409:Components/Algorithm/Include/arm_math.h ****   q7_t * pSrcA,
3410:Components/Algorithm/Include/arm_math.h ****   uint32_t srcALen,
3411:Components/Algorithm/Include/arm_math.h ****   q7_t * pSrcB,
3412:Components/Algorithm/Include/arm_math.h ****   uint32_t srcBLen,
3413:Components/Algorithm/Include/arm_math.h ****   q7_t * pDst,
ARM GAS  C:\Users\86152\AppData\Local\Temp\ccWGVtEI.s 			page 145


3414:Components/Algorithm/Include/arm_math.h ****   uint32_t firstIndex,
3415:Components/Algorithm/Include/arm_math.h ****   uint32_t numPoints,
3416:Components/Algorithm/Include/arm_math.h ****   q15_t * pScratch1,
3417:Components/Algorithm/Include/arm_math.h ****   q15_t * pScratch2);
3418:Components/Algorithm/Include/arm_math.h **** 
3419:Components/Algorithm/Include/arm_math.h **** 
3420:Components/Algorithm/Include/arm_math.h **** /**
3421:Components/Algorithm/Include/arm_math.h ****    * @brief Partial convolution of Q7 sequences.
3422:Components/Algorithm/Include/arm_math.h ****    * @param[in]       *pSrcA points to the first input sequence.
3423:Components/Algorithm/Include/arm_math.h ****    * @param[in]       srcALen length of the first input sequence.
3424:Components/Algorithm/Include/arm_math.h ****    * @param[in]       *pSrcB points to the second input sequence.
3425:Components/Algorithm/Include/arm_math.h ****    * @param[in]       srcBLen length of the second input sequence.
3426:Components/Algorithm/Include/arm_math.h ****    * @param[out]      *pDst points to the block of output data
3427:Components/Algorithm/Include/arm_math.h ****    * @param[in]       firstIndex is the first output sample to start with.
3428:Components/Algorithm/Include/arm_math.h ****    * @param[in]       numPoints is the number of output points to be computed.
3429:Components/Algorithm/Include/arm_math.h ****    * @return  Returns either ARM_MATH_SUCCESS if the function completed correctly or ARM_MATH_ARGUM
3430:Components/Algorithm/Include/arm_math.h ****    */
3431:Components/Algorithm/Include/arm_math.h **** 
3432:Components/Algorithm/Include/arm_math.h ****   arm_status arm_conv_partial_q7(
3433:Components/Algorithm/Include/arm_math.h ****   q7_t * pSrcA,
3434:Components/Algorithm/Include/arm_math.h ****   uint32_t srcALen,
3435:Components/Algorithm/Include/arm_math.h ****   q7_t * pSrcB,
3436:Components/Algorithm/Include/arm_math.h ****   uint32_t srcBLen,
3437:Components/Algorithm/Include/arm_math.h ****   q7_t * pDst,
3438:Components/Algorithm/Include/arm_math.h ****   uint32_t firstIndex,
3439:Components/Algorithm/Include/arm_math.h ****   uint32_t numPoints);
3440:Components/Algorithm/Include/arm_math.h **** 
3441:Components/Algorithm/Include/arm_math.h **** 
3442:Components/Algorithm/Include/arm_math.h **** 
3443:Components/Algorithm/Include/arm_math.h ****   /**
3444:Components/Algorithm/Include/arm_math.h ****    * @brief Instance structure for the Q15 FIR decimator.
3445:Components/Algorithm/Include/arm_math.h ****    */
3446:Components/Algorithm/Include/arm_math.h **** 
3447:Components/Algorithm/Include/arm_math.h ****   typedef struct
3448:Components/Algorithm/Include/arm_math.h ****   {
3449:Components/Algorithm/Include/arm_math.h ****     uint8_t M;                      /**< decimation factor. */
3450:Components/Algorithm/Include/arm_math.h ****     uint16_t numTaps;               /**< number of coefficients in the filter. */
3451:Components/Algorithm/Include/arm_math.h ****     q15_t *pCoeffs;                  /**< points to the coefficient array. The array is of length n
3452:Components/Algorithm/Include/arm_math.h ****     q15_t *pState;                   /**< points to the state variable array. The array is of lengt
3453:Components/Algorithm/Include/arm_math.h ****   } arm_fir_decimate_instance_q15;
3454:Components/Algorithm/Include/arm_math.h **** 
3455:Components/Algorithm/Include/arm_math.h ****   /**
3456:Components/Algorithm/Include/arm_math.h ****    * @brief Instance structure for the Q31 FIR decimator.
3457:Components/Algorithm/Include/arm_math.h ****    */
3458:Components/Algorithm/Include/arm_math.h **** 
3459:Components/Algorithm/Include/arm_math.h ****   typedef struct
3460:Components/Algorithm/Include/arm_math.h ****   {
3461:Components/Algorithm/Include/arm_math.h ****     uint8_t M;                  /**< decimation factor. */
3462:Components/Algorithm/Include/arm_math.h ****     uint16_t numTaps;           /**< number of coefficients in the filter. */
3463:Components/Algorithm/Include/arm_math.h ****     q31_t *pCoeffs;              /**< points to the coefficient array. The array is of length numTa
3464:Components/Algorithm/Include/arm_math.h ****     q31_t *pState;               /**< points to the state variable array. The array is of length nu
3465:Components/Algorithm/Include/arm_math.h **** 
3466:Components/Algorithm/Include/arm_math.h ****   } arm_fir_decimate_instance_q31;
3467:Components/Algorithm/Include/arm_math.h **** 
3468:Components/Algorithm/Include/arm_math.h ****   /**
3469:Components/Algorithm/Include/arm_math.h ****    * @brief Instance structure for the floating-point FIR decimator.
3470:Components/Algorithm/Include/arm_math.h ****    */
ARM GAS  C:\Users\86152\AppData\Local\Temp\ccWGVtEI.s 			page 146


3471:Components/Algorithm/Include/arm_math.h **** 
3472:Components/Algorithm/Include/arm_math.h ****   typedef struct
3473:Components/Algorithm/Include/arm_math.h ****   {
3474:Components/Algorithm/Include/arm_math.h ****     uint8_t M;                          /**< decimation factor. */
3475:Components/Algorithm/Include/arm_math.h ****     uint16_t numTaps;                   /**< number of coefficients in the filter. */
3476:Components/Algorithm/Include/arm_math.h ****     float32_t *pCoeffs;                  /**< points to the coefficient array. The array is of leng
3477:Components/Algorithm/Include/arm_math.h ****     float32_t *pState;                   /**< points to the state variable array. The array is of l
3478:Components/Algorithm/Include/arm_math.h **** 
3479:Components/Algorithm/Include/arm_math.h ****   } arm_fir_decimate_instance_f32;
3480:Components/Algorithm/Include/arm_math.h **** 
3481:Components/Algorithm/Include/arm_math.h **** 
3482:Components/Algorithm/Include/arm_math.h **** 
3483:Components/Algorithm/Include/arm_math.h ****   /**
3484:Components/Algorithm/Include/arm_math.h ****    * @brief Processing function for the floating-point FIR decimator.
3485:Components/Algorithm/Include/arm_math.h ****    * @param[in] *S points to an instance of the floating-point FIR decimator structure.
3486:Components/Algorithm/Include/arm_math.h ****    * @param[in] *pSrc points to the block of input data.
3487:Components/Algorithm/Include/arm_math.h ****    * @param[out] *pDst points to the block of output data
3488:Components/Algorithm/Include/arm_math.h ****    * @param[in] blockSize number of input samples to process per call.
3489:Components/Algorithm/Include/arm_math.h ****    * @return none
3490:Components/Algorithm/Include/arm_math.h ****    */
3491:Components/Algorithm/Include/arm_math.h **** 
3492:Components/Algorithm/Include/arm_math.h ****   void arm_fir_decimate_f32(
3493:Components/Algorithm/Include/arm_math.h ****   const arm_fir_decimate_instance_f32 * S,
3494:Components/Algorithm/Include/arm_math.h ****   float32_t * pSrc,
3495:Components/Algorithm/Include/arm_math.h ****   float32_t * pDst,
3496:Components/Algorithm/Include/arm_math.h ****   uint32_t blockSize);
3497:Components/Algorithm/Include/arm_math.h **** 
3498:Components/Algorithm/Include/arm_math.h **** 
3499:Components/Algorithm/Include/arm_math.h ****   /**
3500:Components/Algorithm/Include/arm_math.h ****    * @brief  Initialization function for the floating-point FIR decimator.
3501:Components/Algorithm/Include/arm_math.h ****    * @param[in,out] *S points to an instance of the floating-point FIR decimator structure.
3502:Components/Algorithm/Include/arm_math.h ****    * @param[in] numTaps  number of coefficients in the filter.
3503:Components/Algorithm/Include/arm_math.h ****    * @param[in] M  decimation factor.
3504:Components/Algorithm/Include/arm_math.h ****    * @param[in] *pCoeffs points to the filter coefficients.
3505:Components/Algorithm/Include/arm_math.h ****    * @param[in] *pState points to the state buffer.
3506:Components/Algorithm/Include/arm_math.h ****    * @param[in] blockSize number of input samples to process per call.
3507:Components/Algorithm/Include/arm_math.h ****    * @return    The function returns ARM_MATH_SUCCESS if initialization is successful or ARM_MATH_L
3508:Components/Algorithm/Include/arm_math.h ****    * <code>blockSize</code> is not a multiple of <code>M</code>.
3509:Components/Algorithm/Include/arm_math.h ****    */
3510:Components/Algorithm/Include/arm_math.h **** 
3511:Components/Algorithm/Include/arm_math.h ****   arm_status arm_fir_decimate_init_f32(
3512:Components/Algorithm/Include/arm_math.h ****   arm_fir_decimate_instance_f32 * S,
3513:Components/Algorithm/Include/arm_math.h ****   uint16_t numTaps,
3514:Components/Algorithm/Include/arm_math.h ****   uint8_t M,
3515:Components/Algorithm/Include/arm_math.h ****   float32_t * pCoeffs,
3516:Components/Algorithm/Include/arm_math.h ****   float32_t * pState,
3517:Components/Algorithm/Include/arm_math.h ****   uint32_t blockSize);
3518:Components/Algorithm/Include/arm_math.h **** 
3519:Components/Algorithm/Include/arm_math.h ****   /**
3520:Components/Algorithm/Include/arm_math.h ****    * @brief Processing function for the Q15 FIR decimator.
3521:Components/Algorithm/Include/arm_math.h ****    * @param[in] *S points to an instance of the Q15 FIR decimator structure.
3522:Components/Algorithm/Include/arm_math.h ****    * @param[in] *pSrc points to the block of input data.
3523:Components/Algorithm/Include/arm_math.h ****    * @param[out] *pDst points to the block of output data
3524:Components/Algorithm/Include/arm_math.h ****    * @param[in] blockSize number of input samples to process per call.
3525:Components/Algorithm/Include/arm_math.h ****    * @return none
3526:Components/Algorithm/Include/arm_math.h ****    */
3527:Components/Algorithm/Include/arm_math.h **** 
ARM GAS  C:\Users\86152\AppData\Local\Temp\ccWGVtEI.s 			page 147


3528:Components/Algorithm/Include/arm_math.h ****   void arm_fir_decimate_q15(
3529:Components/Algorithm/Include/arm_math.h ****   const arm_fir_decimate_instance_q15 * S,
3530:Components/Algorithm/Include/arm_math.h ****   q15_t * pSrc,
3531:Components/Algorithm/Include/arm_math.h ****   q15_t * pDst,
3532:Components/Algorithm/Include/arm_math.h ****   uint32_t blockSize);
3533:Components/Algorithm/Include/arm_math.h **** 
3534:Components/Algorithm/Include/arm_math.h ****   /**
3535:Components/Algorithm/Include/arm_math.h ****    * @brief Processing function for the Q15 FIR decimator (fast variant) for Cortex-M3 and Cortex-M
3536:Components/Algorithm/Include/arm_math.h ****    * @param[in] *S points to an instance of the Q15 FIR decimator structure.
3537:Components/Algorithm/Include/arm_math.h ****    * @param[in] *pSrc points to the block of input data.
3538:Components/Algorithm/Include/arm_math.h ****    * @param[out] *pDst points to the block of output data
3539:Components/Algorithm/Include/arm_math.h ****    * @param[in] blockSize number of input samples to process per call.
3540:Components/Algorithm/Include/arm_math.h ****    * @return none
3541:Components/Algorithm/Include/arm_math.h ****    */
3542:Components/Algorithm/Include/arm_math.h **** 
3543:Components/Algorithm/Include/arm_math.h ****   void arm_fir_decimate_fast_q15(
3544:Components/Algorithm/Include/arm_math.h ****   const arm_fir_decimate_instance_q15 * S,
3545:Components/Algorithm/Include/arm_math.h ****   q15_t * pSrc,
3546:Components/Algorithm/Include/arm_math.h ****   q15_t * pDst,
3547:Components/Algorithm/Include/arm_math.h ****   uint32_t blockSize);
3548:Components/Algorithm/Include/arm_math.h **** 
3549:Components/Algorithm/Include/arm_math.h **** 
3550:Components/Algorithm/Include/arm_math.h **** 
3551:Components/Algorithm/Include/arm_math.h ****   /**
3552:Components/Algorithm/Include/arm_math.h ****    * @brief  Initialization function for the Q15 FIR decimator.
3553:Components/Algorithm/Include/arm_math.h ****    * @param[in,out] *S points to an instance of the Q15 FIR decimator structure.
3554:Components/Algorithm/Include/arm_math.h ****    * @param[in] numTaps  number of coefficients in the filter.
3555:Components/Algorithm/Include/arm_math.h ****    * @param[in] M  decimation factor.
3556:Components/Algorithm/Include/arm_math.h ****    * @param[in] *pCoeffs points to the filter coefficients.
3557:Components/Algorithm/Include/arm_math.h ****    * @param[in] *pState points to the state buffer.
3558:Components/Algorithm/Include/arm_math.h ****    * @param[in] blockSize number of input samples to process per call.
3559:Components/Algorithm/Include/arm_math.h ****    * @return    The function returns ARM_MATH_SUCCESS if initialization is successful or ARM_MATH_L
3560:Components/Algorithm/Include/arm_math.h ****    * <code>blockSize</code> is not a multiple of <code>M</code>.
3561:Components/Algorithm/Include/arm_math.h ****    */
3562:Components/Algorithm/Include/arm_math.h **** 
3563:Components/Algorithm/Include/arm_math.h ****   arm_status arm_fir_decimate_init_q15(
3564:Components/Algorithm/Include/arm_math.h ****   arm_fir_decimate_instance_q15 * S,
3565:Components/Algorithm/Include/arm_math.h ****   uint16_t numTaps,
3566:Components/Algorithm/Include/arm_math.h ****   uint8_t M,
3567:Components/Algorithm/Include/arm_math.h ****   q15_t * pCoeffs,
3568:Components/Algorithm/Include/arm_math.h ****   q15_t * pState,
3569:Components/Algorithm/Include/arm_math.h ****   uint32_t blockSize);
3570:Components/Algorithm/Include/arm_math.h **** 
3571:Components/Algorithm/Include/arm_math.h ****   /**
3572:Components/Algorithm/Include/arm_math.h ****    * @brief Processing function for the Q31 FIR decimator.
3573:Components/Algorithm/Include/arm_math.h ****    * @param[in] *S points to an instance of the Q31 FIR decimator structure.
3574:Components/Algorithm/Include/arm_math.h ****    * @param[in] *pSrc points to the block of input data.
3575:Components/Algorithm/Include/arm_math.h ****    * @param[out] *pDst points to the block of output data
3576:Components/Algorithm/Include/arm_math.h ****    * @param[in] blockSize number of input samples to process per call.
3577:Components/Algorithm/Include/arm_math.h ****    * @return none
3578:Components/Algorithm/Include/arm_math.h ****    */
3579:Components/Algorithm/Include/arm_math.h **** 
3580:Components/Algorithm/Include/arm_math.h ****   void arm_fir_decimate_q31(
3581:Components/Algorithm/Include/arm_math.h ****   const arm_fir_decimate_instance_q31 * S,
3582:Components/Algorithm/Include/arm_math.h ****   q31_t * pSrc,
3583:Components/Algorithm/Include/arm_math.h ****   q31_t * pDst,
3584:Components/Algorithm/Include/arm_math.h ****   uint32_t blockSize);
ARM GAS  C:\Users\86152\AppData\Local\Temp\ccWGVtEI.s 			page 148


3585:Components/Algorithm/Include/arm_math.h **** 
3586:Components/Algorithm/Include/arm_math.h ****   /**
3587:Components/Algorithm/Include/arm_math.h ****    * @brief Processing function for the Q31 FIR decimator (fast variant) for Cortex-M3 and Cortex-M
3588:Components/Algorithm/Include/arm_math.h ****    * @param[in] *S points to an instance of the Q31 FIR decimator structure.
3589:Components/Algorithm/Include/arm_math.h ****    * @param[in] *pSrc points to the block of input data.
3590:Components/Algorithm/Include/arm_math.h ****    * @param[out] *pDst points to the block of output data
3591:Components/Algorithm/Include/arm_math.h ****    * @param[in] blockSize number of input samples to process per call.
3592:Components/Algorithm/Include/arm_math.h ****    * @return none
3593:Components/Algorithm/Include/arm_math.h ****    */
3594:Components/Algorithm/Include/arm_math.h **** 
3595:Components/Algorithm/Include/arm_math.h ****   void arm_fir_decimate_fast_q31(
3596:Components/Algorithm/Include/arm_math.h ****   arm_fir_decimate_instance_q31 * S,
3597:Components/Algorithm/Include/arm_math.h ****   q31_t * pSrc,
3598:Components/Algorithm/Include/arm_math.h ****   q31_t * pDst,
3599:Components/Algorithm/Include/arm_math.h ****   uint32_t blockSize);
3600:Components/Algorithm/Include/arm_math.h **** 
3601:Components/Algorithm/Include/arm_math.h **** 
3602:Components/Algorithm/Include/arm_math.h ****   /**
3603:Components/Algorithm/Include/arm_math.h ****    * @brief  Initialization function for the Q31 FIR decimator.
3604:Components/Algorithm/Include/arm_math.h ****    * @param[in,out] *S points to an instance of the Q31 FIR decimator structure.
3605:Components/Algorithm/Include/arm_math.h ****    * @param[in] numTaps  number of coefficients in the filter.
3606:Components/Algorithm/Include/arm_math.h ****    * @param[in] M  decimation factor.
3607:Components/Algorithm/Include/arm_math.h ****    * @param[in] *pCoeffs points to the filter coefficients.
3608:Components/Algorithm/Include/arm_math.h ****    * @param[in] *pState points to the state buffer.
3609:Components/Algorithm/Include/arm_math.h ****    * @param[in] blockSize number of input samples to process per call.
3610:Components/Algorithm/Include/arm_math.h ****    * @return    The function returns ARM_MATH_SUCCESS if initialization is successful or ARM_MATH_L
3611:Components/Algorithm/Include/arm_math.h ****    * <code>blockSize</code> is not a multiple of <code>M</code>.
3612:Components/Algorithm/Include/arm_math.h ****    */
3613:Components/Algorithm/Include/arm_math.h **** 
3614:Components/Algorithm/Include/arm_math.h ****   arm_status arm_fir_decimate_init_q31(
3615:Components/Algorithm/Include/arm_math.h ****   arm_fir_decimate_instance_q31 * S,
3616:Components/Algorithm/Include/arm_math.h ****   uint16_t numTaps,
3617:Components/Algorithm/Include/arm_math.h ****   uint8_t M,
3618:Components/Algorithm/Include/arm_math.h ****   q31_t * pCoeffs,
3619:Components/Algorithm/Include/arm_math.h ****   q31_t * pState,
3620:Components/Algorithm/Include/arm_math.h ****   uint32_t blockSize);
3621:Components/Algorithm/Include/arm_math.h **** 
3622:Components/Algorithm/Include/arm_math.h **** 
3623:Components/Algorithm/Include/arm_math.h **** 
3624:Components/Algorithm/Include/arm_math.h ****   /**
3625:Components/Algorithm/Include/arm_math.h ****    * @brief Instance structure for the Q15 FIR interpolator.
3626:Components/Algorithm/Include/arm_math.h ****    */
3627:Components/Algorithm/Include/arm_math.h **** 
3628:Components/Algorithm/Include/arm_math.h ****   typedef struct
3629:Components/Algorithm/Include/arm_math.h ****   {
3630:Components/Algorithm/Include/arm_math.h ****     uint8_t L;                      /**< upsample factor. */
3631:Components/Algorithm/Include/arm_math.h ****     uint16_t phaseLength;           /**< length of each polyphase filter component. */
3632:Components/Algorithm/Include/arm_math.h ****     q15_t *pCoeffs;                 /**< points to the coefficient array. The array is of length L*
3633:Components/Algorithm/Include/arm_math.h ****     q15_t *pState;                  /**< points to the state variable array. The array is of length
3634:Components/Algorithm/Include/arm_math.h ****   } arm_fir_interpolate_instance_q15;
3635:Components/Algorithm/Include/arm_math.h **** 
3636:Components/Algorithm/Include/arm_math.h ****   /**
3637:Components/Algorithm/Include/arm_math.h ****    * @brief Instance structure for the Q31 FIR interpolator.
3638:Components/Algorithm/Include/arm_math.h ****    */
3639:Components/Algorithm/Include/arm_math.h **** 
3640:Components/Algorithm/Include/arm_math.h ****   typedef struct
3641:Components/Algorithm/Include/arm_math.h ****   {
ARM GAS  C:\Users\86152\AppData\Local\Temp\ccWGVtEI.s 			page 149


3642:Components/Algorithm/Include/arm_math.h ****     uint8_t L;                      /**< upsample factor. */
3643:Components/Algorithm/Include/arm_math.h ****     uint16_t phaseLength;           /**< length of each polyphase filter component. */
3644:Components/Algorithm/Include/arm_math.h ****     q31_t *pCoeffs;                  /**< points to the coefficient array. The array is of length L
3645:Components/Algorithm/Include/arm_math.h ****     q31_t *pState;                   /**< points to the state variable array. The array is of lengt
3646:Components/Algorithm/Include/arm_math.h ****   } arm_fir_interpolate_instance_q31;
3647:Components/Algorithm/Include/arm_math.h **** 
3648:Components/Algorithm/Include/arm_math.h ****   /**
3649:Components/Algorithm/Include/arm_math.h ****    * @brief Instance structure for the floating-point FIR interpolator.
3650:Components/Algorithm/Include/arm_math.h ****    */
3651:Components/Algorithm/Include/arm_math.h **** 
3652:Components/Algorithm/Include/arm_math.h ****   typedef struct
3653:Components/Algorithm/Include/arm_math.h ****   {
3654:Components/Algorithm/Include/arm_math.h ****     uint8_t L;                     /**< upsample factor. */
3655:Components/Algorithm/Include/arm_math.h ****     uint16_t phaseLength;          /**< length of each polyphase filter component. */
3656:Components/Algorithm/Include/arm_math.h ****     float32_t *pCoeffs;             /**< points to the coefficient array. The array is of length L*
3657:Components/Algorithm/Include/arm_math.h ****     float32_t *pState;              /**< points to the state variable array. The array is of length
3658:Components/Algorithm/Include/arm_math.h ****   } arm_fir_interpolate_instance_f32;
3659:Components/Algorithm/Include/arm_math.h **** 
3660:Components/Algorithm/Include/arm_math.h **** 
3661:Components/Algorithm/Include/arm_math.h ****   /**
3662:Components/Algorithm/Include/arm_math.h ****    * @brief Processing function for the Q15 FIR interpolator.
3663:Components/Algorithm/Include/arm_math.h ****    * @param[in] *S        points to an instance of the Q15 FIR interpolator structure.
3664:Components/Algorithm/Include/arm_math.h ****    * @param[in] *pSrc     points to the block of input data.
3665:Components/Algorithm/Include/arm_math.h ****    * @param[out] *pDst    points to the block of output data.
3666:Components/Algorithm/Include/arm_math.h ****    * @param[in] blockSize number of input samples to process per call.
3667:Components/Algorithm/Include/arm_math.h ****    * @return none.
3668:Components/Algorithm/Include/arm_math.h ****    */
3669:Components/Algorithm/Include/arm_math.h **** 
3670:Components/Algorithm/Include/arm_math.h ****   void arm_fir_interpolate_q15(
3671:Components/Algorithm/Include/arm_math.h ****   const arm_fir_interpolate_instance_q15 * S,
3672:Components/Algorithm/Include/arm_math.h ****   q15_t * pSrc,
3673:Components/Algorithm/Include/arm_math.h ****   q15_t * pDst,
3674:Components/Algorithm/Include/arm_math.h ****   uint32_t blockSize);
3675:Components/Algorithm/Include/arm_math.h **** 
3676:Components/Algorithm/Include/arm_math.h **** 
3677:Components/Algorithm/Include/arm_math.h ****   /**
3678:Components/Algorithm/Include/arm_math.h ****    * @brief  Initialization function for the Q15 FIR interpolator.
3679:Components/Algorithm/Include/arm_math.h ****    * @param[in,out] *S        points to an instance of the Q15 FIR interpolator structure.
3680:Components/Algorithm/Include/arm_math.h ****    * @param[in]     L         upsample factor.
3681:Components/Algorithm/Include/arm_math.h ****    * @param[in]     numTaps   number of filter coefficients in the filter.
3682:Components/Algorithm/Include/arm_math.h ****    * @param[in]     *pCoeffs  points to the filter coefficient buffer.
3683:Components/Algorithm/Include/arm_math.h ****    * @param[in]     *pState   points to the state buffer.
3684:Components/Algorithm/Include/arm_math.h ****    * @param[in]     blockSize number of input samples to process per call.
3685:Components/Algorithm/Include/arm_math.h ****    * @return        The function returns ARM_MATH_SUCCESS if initialization is successful or ARM_MA
3686:Components/Algorithm/Include/arm_math.h ****    * the filter length <code>numTaps</code> is not a multiple of the interpolation factor <code>L</
3687:Components/Algorithm/Include/arm_math.h ****    */
3688:Components/Algorithm/Include/arm_math.h **** 
3689:Components/Algorithm/Include/arm_math.h ****   arm_status arm_fir_interpolate_init_q15(
3690:Components/Algorithm/Include/arm_math.h ****   arm_fir_interpolate_instance_q15 * S,
3691:Components/Algorithm/Include/arm_math.h ****   uint8_t L,
3692:Components/Algorithm/Include/arm_math.h ****   uint16_t numTaps,
3693:Components/Algorithm/Include/arm_math.h ****   q15_t * pCoeffs,
3694:Components/Algorithm/Include/arm_math.h ****   q15_t * pState,
3695:Components/Algorithm/Include/arm_math.h ****   uint32_t blockSize);
3696:Components/Algorithm/Include/arm_math.h **** 
3697:Components/Algorithm/Include/arm_math.h ****   /**
3698:Components/Algorithm/Include/arm_math.h ****    * @brief Processing function for the Q31 FIR interpolator.
ARM GAS  C:\Users\86152\AppData\Local\Temp\ccWGVtEI.s 			page 150


3699:Components/Algorithm/Include/arm_math.h ****    * @param[in] *S        points to an instance of the Q15 FIR interpolator structure.
3700:Components/Algorithm/Include/arm_math.h ****    * @param[in] *pSrc     points to the block of input data.
3701:Components/Algorithm/Include/arm_math.h ****    * @param[out] *pDst    points to the block of output data.
3702:Components/Algorithm/Include/arm_math.h ****    * @param[in] blockSize number of input samples to process per call.
3703:Components/Algorithm/Include/arm_math.h ****    * @return none.
3704:Components/Algorithm/Include/arm_math.h ****    */
3705:Components/Algorithm/Include/arm_math.h **** 
3706:Components/Algorithm/Include/arm_math.h ****   void arm_fir_interpolate_q31(
3707:Components/Algorithm/Include/arm_math.h ****   const arm_fir_interpolate_instance_q31 * S,
3708:Components/Algorithm/Include/arm_math.h ****   q31_t * pSrc,
3709:Components/Algorithm/Include/arm_math.h ****   q31_t * pDst,
3710:Components/Algorithm/Include/arm_math.h ****   uint32_t blockSize);
3711:Components/Algorithm/Include/arm_math.h **** 
3712:Components/Algorithm/Include/arm_math.h ****   /**
3713:Components/Algorithm/Include/arm_math.h ****    * @brief  Initialization function for the Q31 FIR interpolator.
3714:Components/Algorithm/Include/arm_math.h ****    * @param[in,out] *S        points to an instance of the Q31 FIR interpolator structure.
3715:Components/Algorithm/Include/arm_math.h ****    * @param[in]     L         upsample factor.
3716:Components/Algorithm/Include/arm_math.h ****    * @param[in]     numTaps   number of filter coefficients in the filter.
3717:Components/Algorithm/Include/arm_math.h ****    * @param[in]     *pCoeffs  points to the filter coefficient buffer.
3718:Components/Algorithm/Include/arm_math.h ****    * @param[in]     *pState   points to the state buffer.
3719:Components/Algorithm/Include/arm_math.h ****    * @param[in]     blockSize number of input samples to process per call.
3720:Components/Algorithm/Include/arm_math.h ****    * @return        The function returns ARM_MATH_SUCCESS if initialization is successful or ARM_MA
3721:Components/Algorithm/Include/arm_math.h ****    * the filter length <code>numTaps</code> is not a multiple of the interpolation factor <code>L</
3722:Components/Algorithm/Include/arm_math.h ****    */
3723:Components/Algorithm/Include/arm_math.h **** 
3724:Components/Algorithm/Include/arm_math.h ****   arm_status arm_fir_interpolate_init_q31(
3725:Components/Algorithm/Include/arm_math.h ****   arm_fir_interpolate_instance_q31 * S,
3726:Components/Algorithm/Include/arm_math.h ****   uint8_t L,
3727:Components/Algorithm/Include/arm_math.h ****   uint16_t numTaps,
3728:Components/Algorithm/Include/arm_math.h ****   q31_t * pCoeffs,
3729:Components/Algorithm/Include/arm_math.h ****   q31_t * pState,
3730:Components/Algorithm/Include/arm_math.h ****   uint32_t blockSize);
3731:Components/Algorithm/Include/arm_math.h **** 
3732:Components/Algorithm/Include/arm_math.h **** 
3733:Components/Algorithm/Include/arm_math.h ****   /**
3734:Components/Algorithm/Include/arm_math.h ****    * @brief Processing function for the floating-point FIR interpolator.
3735:Components/Algorithm/Include/arm_math.h ****    * @param[in] *S        points to an instance of the floating-point FIR interpolator structure.
3736:Components/Algorithm/Include/arm_math.h ****    * @param[in] *pSrc     points to the block of input data.
3737:Components/Algorithm/Include/arm_math.h ****    * @param[out] *pDst    points to the block of output data.
3738:Components/Algorithm/Include/arm_math.h ****    * @param[in] blockSize number of input samples to process per call.
3739:Components/Algorithm/Include/arm_math.h ****    * @return none.
3740:Components/Algorithm/Include/arm_math.h ****    */
3741:Components/Algorithm/Include/arm_math.h **** 
3742:Components/Algorithm/Include/arm_math.h ****   void arm_fir_interpolate_f32(
3743:Components/Algorithm/Include/arm_math.h ****   const arm_fir_interpolate_instance_f32 * S,
3744:Components/Algorithm/Include/arm_math.h ****   float32_t * pSrc,
3745:Components/Algorithm/Include/arm_math.h ****   float32_t * pDst,
3746:Components/Algorithm/Include/arm_math.h ****   uint32_t blockSize);
3747:Components/Algorithm/Include/arm_math.h **** 
3748:Components/Algorithm/Include/arm_math.h ****   /**
3749:Components/Algorithm/Include/arm_math.h ****    * @brief  Initialization function for the floating-point FIR interpolator.
3750:Components/Algorithm/Include/arm_math.h ****    * @param[in,out] *S        points to an instance of the floating-point FIR interpolator structur
3751:Components/Algorithm/Include/arm_math.h ****    * @param[in]     L         upsample factor.
3752:Components/Algorithm/Include/arm_math.h ****    * @param[in]     numTaps   number of filter coefficients in the filter.
3753:Components/Algorithm/Include/arm_math.h ****    * @param[in]     *pCoeffs  points to the filter coefficient buffer.
3754:Components/Algorithm/Include/arm_math.h ****    * @param[in]     *pState   points to the state buffer.
3755:Components/Algorithm/Include/arm_math.h ****    * @param[in]     blockSize number of input samples to process per call.
ARM GAS  C:\Users\86152\AppData\Local\Temp\ccWGVtEI.s 			page 151


3756:Components/Algorithm/Include/arm_math.h ****    * @return        The function returns ARM_MATH_SUCCESS if initialization is successful or ARM_MA
3757:Components/Algorithm/Include/arm_math.h ****    * the filter length <code>numTaps</code> is not a multiple of the interpolation factor <code>L</
3758:Components/Algorithm/Include/arm_math.h ****    */
3759:Components/Algorithm/Include/arm_math.h **** 
3760:Components/Algorithm/Include/arm_math.h ****   arm_status arm_fir_interpolate_init_f32(
3761:Components/Algorithm/Include/arm_math.h ****   arm_fir_interpolate_instance_f32 * S,
3762:Components/Algorithm/Include/arm_math.h ****   uint8_t L,
3763:Components/Algorithm/Include/arm_math.h ****   uint16_t numTaps,
3764:Components/Algorithm/Include/arm_math.h ****   float32_t * pCoeffs,
3765:Components/Algorithm/Include/arm_math.h ****   float32_t * pState,
3766:Components/Algorithm/Include/arm_math.h ****   uint32_t blockSize);
3767:Components/Algorithm/Include/arm_math.h **** 
3768:Components/Algorithm/Include/arm_math.h ****   /**
3769:Components/Algorithm/Include/arm_math.h ****    * @brief Instance structure for the high precision Q31 Biquad cascade filter.
3770:Components/Algorithm/Include/arm_math.h ****    */
3771:Components/Algorithm/Include/arm_math.h **** 
3772:Components/Algorithm/Include/arm_math.h ****   typedef struct
3773:Components/Algorithm/Include/arm_math.h ****   {
3774:Components/Algorithm/Include/arm_math.h ****     uint8_t numStages;       /**< number of 2nd order stages in the filter.  Overall order is 2*num
3775:Components/Algorithm/Include/arm_math.h ****     q63_t *pState;           /**< points to the array of state coefficients.  The array is of lengt
3776:Components/Algorithm/Include/arm_math.h ****     q31_t *pCoeffs;          /**< points to the array of coefficients.  The array is of length 5*nu
3777:Components/Algorithm/Include/arm_math.h ****     uint8_t postShift;       /**< additional shift, in bits, applied to each output sample. */
3778:Components/Algorithm/Include/arm_math.h **** 
3779:Components/Algorithm/Include/arm_math.h ****   } arm_biquad_cas_df1_32x64_ins_q31;
3780:Components/Algorithm/Include/arm_math.h **** 
3781:Components/Algorithm/Include/arm_math.h **** 
3782:Components/Algorithm/Include/arm_math.h ****   /**
3783:Components/Algorithm/Include/arm_math.h ****    * @param[in]  *S        points to an instance of the high precision Q31 Biquad cascade filter st
3784:Components/Algorithm/Include/arm_math.h ****    * @param[in]  *pSrc     points to the block of input data.
3785:Components/Algorithm/Include/arm_math.h ****    * @param[out] *pDst     points to the block of output data
3786:Components/Algorithm/Include/arm_math.h ****    * @param[in]  blockSize number of samples to process.
3787:Components/Algorithm/Include/arm_math.h ****    * @return none.
3788:Components/Algorithm/Include/arm_math.h ****    */
3789:Components/Algorithm/Include/arm_math.h **** 
3790:Components/Algorithm/Include/arm_math.h ****   void arm_biquad_cas_df1_32x64_q31(
3791:Components/Algorithm/Include/arm_math.h ****   const arm_biquad_cas_df1_32x64_ins_q31 * S,
3792:Components/Algorithm/Include/arm_math.h ****   q31_t * pSrc,
3793:Components/Algorithm/Include/arm_math.h ****   q31_t * pDst,
3794:Components/Algorithm/Include/arm_math.h ****   uint32_t blockSize);
3795:Components/Algorithm/Include/arm_math.h **** 
3796:Components/Algorithm/Include/arm_math.h **** 
3797:Components/Algorithm/Include/arm_math.h ****   /**
3798:Components/Algorithm/Include/arm_math.h ****    * @param[in,out] *S           points to an instance of the high precision Q31 Biquad cascade fil
3799:Components/Algorithm/Include/arm_math.h ****    * @param[in]     numStages    number of 2nd order stages in the filter.
3800:Components/Algorithm/Include/arm_math.h ****    * @param[in]     *pCoeffs     points to the filter coefficients.
3801:Components/Algorithm/Include/arm_math.h ****    * @param[in]     *pState      points to the state buffer.
3802:Components/Algorithm/Include/arm_math.h ****    * @param[in]     postShift    shift to be applied to the output. Varies according to the coeffic
3803:Components/Algorithm/Include/arm_math.h ****    * @return        none
3804:Components/Algorithm/Include/arm_math.h ****    */
3805:Components/Algorithm/Include/arm_math.h **** 
3806:Components/Algorithm/Include/arm_math.h ****   void arm_biquad_cas_df1_32x64_init_q31(
3807:Components/Algorithm/Include/arm_math.h ****   arm_biquad_cas_df1_32x64_ins_q31 * S,
3808:Components/Algorithm/Include/arm_math.h ****   uint8_t numStages,
3809:Components/Algorithm/Include/arm_math.h ****   q31_t * pCoeffs,
3810:Components/Algorithm/Include/arm_math.h ****   q63_t * pState,
3811:Components/Algorithm/Include/arm_math.h ****   uint8_t postShift);
3812:Components/Algorithm/Include/arm_math.h **** 
ARM GAS  C:\Users\86152\AppData\Local\Temp\ccWGVtEI.s 			page 152


3813:Components/Algorithm/Include/arm_math.h **** 
3814:Components/Algorithm/Include/arm_math.h **** 
3815:Components/Algorithm/Include/arm_math.h ****   /**
3816:Components/Algorithm/Include/arm_math.h ****    * @brief Instance structure for the floating-point transposed direct form II Biquad cascade filt
3817:Components/Algorithm/Include/arm_math.h ****    */
3818:Components/Algorithm/Include/arm_math.h **** 
3819:Components/Algorithm/Include/arm_math.h ****   typedef struct
3820:Components/Algorithm/Include/arm_math.h ****   {
3821:Components/Algorithm/Include/arm_math.h ****     uint8_t numStages;         /**< number of 2nd order stages in the filter.  Overall order is 2*n
3822:Components/Algorithm/Include/arm_math.h ****     float32_t *pState;         /**< points to the array of state coefficients.  The array is of len
3823:Components/Algorithm/Include/arm_math.h ****     float32_t *pCoeffs;        /**< points to the array of coefficients.  The array is of length 5*
3824:Components/Algorithm/Include/arm_math.h ****   } arm_biquad_cascade_df2T_instance_f32;
3825:Components/Algorithm/Include/arm_math.h **** 
3826:Components/Algorithm/Include/arm_math.h **** 
3827:Components/Algorithm/Include/arm_math.h **** 
3828:Components/Algorithm/Include/arm_math.h ****   /**
3829:Components/Algorithm/Include/arm_math.h ****    * @brief Instance structure for the floating-point transposed direct form II Biquad cascade filt
3830:Components/Algorithm/Include/arm_math.h ****    */
3831:Components/Algorithm/Include/arm_math.h **** 
3832:Components/Algorithm/Include/arm_math.h ****   typedef struct
3833:Components/Algorithm/Include/arm_math.h ****   {
3834:Components/Algorithm/Include/arm_math.h ****     uint8_t numStages;         /**< number of 2nd order stages in the filter.  Overall order is 2*n
3835:Components/Algorithm/Include/arm_math.h ****     float32_t *pState;         /**< points to the array of state coefficients.  The array is of len
3836:Components/Algorithm/Include/arm_math.h ****     float32_t *pCoeffs;        /**< points to the array of coefficients.  The array is of length 5*
3837:Components/Algorithm/Include/arm_math.h ****   } arm_biquad_cascade_stereo_df2T_instance_f32;
3838:Components/Algorithm/Include/arm_math.h **** 
3839:Components/Algorithm/Include/arm_math.h **** 
3840:Components/Algorithm/Include/arm_math.h **** 
3841:Components/Algorithm/Include/arm_math.h ****   /**
3842:Components/Algorithm/Include/arm_math.h ****    * @brief Instance structure for the floating-point transposed direct form II Biquad cascade filt
3843:Components/Algorithm/Include/arm_math.h ****    */
3844:Components/Algorithm/Include/arm_math.h **** 
3845:Components/Algorithm/Include/arm_math.h ****   typedef struct
3846:Components/Algorithm/Include/arm_math.h ****   {
3847:Components/Algorithm/Include/arm_math.h ****     uint8_t numStages;         /**< number of 2nd order stages in the filter.  Overall order is 2*n
3848:Components/Algorithm/Include/arm_math.h ****     float64_t *pState;         /**< points to the array of state coefficients.  The array is of len
3849:Components/Algorithm/Include/arm_math.h ****     float64_t *pCoeffs;        /**< points to the array of coefficients.  The array is of length 5*
3850:Components/Algorithm/Include/arm_math.h ****   } arm_biquad_cascade_df2T_instance_f64;
3851:Components/Algorithm/Include/arm_math.h **** 
3852:Components/Algorithm/Include/arm_math.h **** 
3853:Components/Algorithm/Include/arm_math.h ****   /**
3854:Components/Algorithm/Include/arm_math.h ****    * @brief Processing function for the floating-point transposed direct form II Biquad cascade fil
3855:Components/Algorithm/Include/arm_math.h ****    * @param[in]  *S        points to an instance of the filter data structure.
3856:Components/Algorithm/Include/arm_math.h ****    * @param[in]  *pSrc     points to the block of input data.
3857:Components/Algorithm/Include/arm_math.h ****    * @param[out] *pDst     points to the block of output data
3858:Components/Algorithm/Include/arm_math.h ****    * @param[in]  blockSize number of samples to process.
3859:Components/Algorithm/Include/arm_math.h ****    * @return none.
3860:Components/Algorithm/Include/arm_math.h ****    */
3861:Components/Algorithm/Include/arm_math.h **** 
3862:Components/Algorithm/Include/arm_math.h ****   void arm_biquad_cascade_df2T_f32(
3863:Components/Algorithm/Include/arm_math.h ****   const arm_biquad_cascade_df2T_instance_f32 * S,
3864:Components/Algorithm/Include/arm_math.h ****   float32_t * pSrc,
3865:Components/Algorithm/Include/arm_math.h ****   float32_t * pDst,
3866:Components/Algorithm/Include/arm_math.h ****   uint32_t blockSize);
3867:Components/Algorithm/Include/arm_math.h **** 
3868:Components/Algorithm/Include/arm_math.h **** 
3869:Components/Algorithm/Include/arm_math.h ****   /**
ARM GAS  C:\Users\86152\AppData\Local\Temp\ccWGVtEI.s 			page 153


3870:Components/Algorithm/Include/arm_math.h ****    * @brief Processing function for the floating-point transposed direct form II Biquad cascade fil
3871:Components/Algorithm/Include/arm_math.h ****    * @param[in]  *S        points to an instance of the filter data structure.
3872:Components/Algorithm/Include/arm_math.h ****    * @param[in]  *pSrc     points to the block of input data.
3873:Components/Algorithm/Include/arm_math.h ****    * @param[out] *pDst     points to the block of output data
3874:Components/Algorithm/Include/arm_math.h ****    * @param[in]  blockSize number of samples to process.
3875:Components/Algorithm/Include/arm_math.h ****    * @return none.
3876:Components/Algorithm/Include/arm_math.h ****    */
3877:Components/Algorithm/Include/arm_math.h **** 
3878:Components/Algorithm/Include/arm_math.h ****   void arm_biquad_cascade_stereo_df2T_f32(
3879:Components/Algorithm/Include/arm_math.h ****   const arm_biquad_cascade_stereo_df2T_instance_f32 * S,
3880:Components/Algorithm/Include/arm_math.h ****   float32_t * pSrc,
3881:Components/Algorithm/Include/arm_math.h ****   float32_t * pDst,
3882:Components/Algorithm/Include/arm_math.h ****   uint32_t blockSize);
3883:Components/Algorithm/Include/arm_math.h **** 
3884:Components/Algorithm/Include/arm_math.h ****   /**
3885:Components/Algorithm/Include/arm_math.h ****    * @brief Processing function for the floating-point transposed direct form II Biquad cascade fil
3886:Components/Algorithm/Include/arm_math.h ****    * @param[in]  *S        points to an instance of the filter data structure.
3887:Components/Algorithm/Include/arm_math.h ****    * @param[in]  *pSrc     points to the block of input data.
3888:Components/Algorithm/Include/arm_math.h ****    * @param[out] *pDst     points to the block of output data
3889:Components/Algorithm/Include/arm_math.h ****    * @param[in]  blockSize number of samples to process.
3890:Components/Algorithm/Include/arm_math.h ****    * @return none.
3891:Components/Algorithm/Include/arm_math.h ****    */
3892:Components/Algorithm/Include/arm_math.h **** 
3893:Components/Algorithm/Include/arm_math.h ****   void arm_biquad_cascade_df2T_f64(
3894:Components/Algorithm/Include/arm_math.h ****   const arm_biquad_cascade_df2T_instance_f64 * S,
3895:Components/Algorithm/Include/arm_math.h ****   float64_t * pSrc,
3896:Components/Algorithm/Include/arm_math.h ****   float64_t * pDst,
3897:Components/Algorithm/Include/arm_math.h ****   uint32_t blockSize);
3898:Components/Algorithm/Include/arm_math.h **** 
3899:Components/Algorithm/Include/arm_math.h **** 
3900:Components/Algorithm/Include/arm_math.h ****   /**
3901:Components/Algorithm/Include/arm_math.h ****    * @brief  Initialization function for the floating-point transposed direct form II Biquad cascad
3902:Components/Algorithm/Include/arm_math.h ****    * @param[in,out] *S           points to an instance of the filter data structure.
3903:Components/Algorithm/Include/arm_math.h ****    * @param[in]     numStages    number of 2nd order stages in the filter.
3904:Components/Algorithm/Include/arm_math.h ****    * @param[in]     *pCoeffs     points to the filter coefficients.
3905:Components/Algorithm/Include/arm_math.h ****    * @param[in]     *pState      points to the state buffer.
3906:Components/Algorithm/Include/arm_math.h ****    * @return        none
3907:Components/Algorithm/Include/arm_math.h ****    */
3908:Components/Algorithm/Include/arm_math.h **** 
3909:Components/Algorithm/Include/arm_math.h ****   void arm_biquad_cascade_df2T_init_f32(
3910:Components/Algorithm/Include/arm_math.h ****   arm_biquad_cascade_df2T_instance_f32 * S,
3911:Components/Algorithm/Include/arm_math.h ****   uint8_t numStages,
3912:Components/Algorithm/Include/arm_math.h ****   float32_t * pCoeffs,
3913:Components/Algorithm/Include/arm_math.h ****   float32_t * pState);
3914:Components/Algorithm/Include/arm_math.h **** 
3915:Components/Algorithm/Include/arm_math.h **** 
3916:Components/Algorithm/Include/arm_math.h ****   /**
3917:Components/Algorithm/Include/arm_math.h ****    * @brief  Initialization function for the floating-point transposed direct form II Biquad cascad
3918:Components/Algorithm/Include/arm_math.h ****    * @param[in,out] *S           points to an instance of the filter data structure.
3919:Components/Algorithm/Include/arm_math.h ****    * @param[in]     numStages    number of 2nd order stages in the filter.
3920:Components/Algorithm/Include/arm_math.h ****    * @param[in]     *pCoeffs     points to the filter coefficients.
3921:Components/Algorithm/Include/arm_math.h ****    * @param[in]     *pState      points to the state buffer.
3922:Components/Algorithm/Include/arm_math.h ****    * @return        none
3923:Components/Algorithm/Include/arm_math.h ****    */
3924:Components/Algorithm/Include/arm_math.h **** 
3925:Components/Algorithm/Include/arm_math.h ****   void arm_biquad_cascade_stereo_df2T_init_f32(
3926:Components/Algorithm/Include/arm_math.h ****   arm_biquad_cascade_stereo_df2T_instance_f32 * S,
ARM GAS  C:\Users\86152\AppData\Local\Temp\ccWGVtEI.s 			page 154


3927:Components/Algorithm/Include/arm_math.h ****   uint8_t numStages,
3928:Components/Algorithm/Include/arm_math.h ****   float32_t * pCoeffs,
3929:Components/Algorithm/Include/arm_math.h ****   float32_t * pState);
3930:Components/Algorithm/Include/arm_math.h **** 
3931:Components/Algorithm/Include/arm_math.h **** 
3932:Components/Algorithm/Include/arm_math.h ****   /**
3933:Components/Algorithm/Include/arm_math.h ****    * @brief  Initialization function for the floating-point transposed direct form II Biquad cascad
3934:Components/Algorithm/Include/arm_math.h ****    * @param[in,out] *S           points to an instance of the filter data structure.
3935:Components/Algorithm/Include/arm_math.h ****    * @param[in]     numStages    number of 2nd order stages in the filter.
3936:Components/Algorithm/Include/arm_math.h ****    * @param[in]     *pCoeffs     points to the filter coefficients.
3937:Components/Algorithm/Include/arm_math.h ****    * @param[in]     *pState      points to the state buffer.
3938:Components/Algorithm/Include/arm_math.h ****    * @return        none
3939:Components/Algorithm/Include/arm_math.h ****    */
3940:Components/Algorithm/Include/arm_math.h **** 
3941:Components/Algorithm/Include/arm_math.h ****   void arm_biquad_cascade_df2T_init_f64(
3942:Components/Algorithm/Include/arm_math.h ****   arm_biquad_cascade_df2T_instance_f64 * S,
3943:Components/Algorithm/Include/arm_math.h ****   uint8_t numStages,
3944:Components/Algorithm/Include/arm_math.h ****   float64_t * pCoeffs,
3945:Components/Algorithm/Include/arm_math.h ****   float64_t * pState);
3946:Components/Algorithm/Include/arm_math.h **** 
3947:Components/Algorithm/Include/arm_math.h **** 
3948:Components/Algorithm/Include/arm_math.h **** 
3949:Components/Algorithm/Include/arm_math.h ****   /**
3950:Components/Algorithm/Include/arm_math.h ****    * @brief Instance structure for the Q15 FIR lattice filter.
3951:Components/Algorithm/Include/arm_math.h ****    */
3952:Components/Algorithm/Include/arm_math.h **** 
3953:Components/Algorithm/Include/arm_math.h ****   typedef struct
3954:Components/Algorithm/Include/arm_math.h ****   {
3955:Components/Algorithm/Include/arm_math.h ****     uint16_t numStages;                          /**< number of filter stages. */
3956:Components/Algorithm/Include/arm_math.h ****     q15_t *pState;                               /**< points to the state variable array. The array
3957:Components/Algorithm/Include/arm_math.h ****     q15_t *pCoeffs;                              /**< points to the coefficient array. The array is
3958:Components/Algorithm/Include/arm_math.h ****   } arm_fir_lattice_instance_q15;
3959:Components/Algorithm/Include/arm_math.h **** 
3960:Components/Algorithm/Include/arm_math.h ****   /**
3961:Components/Algorithm/Include/arm_math.h ****    * @brief Instance structure for the Q31 FIR lattice filter.
3962:Components/Algorithm/Include/arm_math.h ****    */
3963:Components/Algorithm/Include/arm_math.h **** 
3964:Components/Algorithm/Include/arm_math.h ****   typedef struct
3965:Components/Algorithm/Include/arm_math.h ****   {
3966:Components/Algorithm/Include/arm_math.h ****     uint16_t numStages;                          /**< number of filter stages. */
3967:Components/Algorithm/Include/arm_math.h ****     q31_t *pState;                               /**< points to the state variable array. The array
3968:Components/Algorithm/Include/arm_math.h ****     q31_t *pCoeffs;                              /**< points to the coefficient array. The array is
3969:Components/Algorithm/Include/arm_math.h ****   } arm_fir_lattice_instance_q31;
3970:Components/Algorithm/Include/arm_math.h **** 
3971:Components/Algorithm/Include/arm_math.h ****   /**
3972:Components/Algorithm/Include/arm_math.h ****    * @brief Instance structure for the floating-point FIR lattice filter.
3973:Components/Algorithm/Include/arm_math.h ****    */
3974:Components/Algorithm/Include/arm_math.h **** 
3975:Components/Algorithm/Include/arm_math.h ****   typedef struct
3976:Components/Algorithm/Include/arm_math.h ****   {
3977:Components/Algorithm/Include/arm_math.h ****     uint16_t numStages;                  /**< number of filter stages. */
3978:Components/Algorithm/Include/arm_math.h ****     float32_t *pState;                   /**< points to the state variable array. The array is of l
3979:Components/Algorithm/Include/arm_math.h ****     float32_t *pCoeffs;                  /**< points to the coefficient array. The array is of leng
3980:Components/Algorithm/Include/arm_math.h ****   } arm_fir_lattice_instance_f32;
3981:Components/Algorithm/Include/arm_math.h **** 
3982:Components/Algorithm/Include/arm_math.h ****   /**
3983:Components/Algorithm/Include/arm_math.h ****    * @brief Initialization function for the Q15 FIR lattice filter.
ARM GAS  C:\Users\86152\AppData\Local\Temp\ccWGVtEI.s 			page 155


3984:Components/Algorithm/Include/arm_math.h ****    * @param[in] *S points to an instance of the Q15 FIR lattice structure.
3985:Components/Algorithm/Include/arm_math.h ****    * @param[in] numStages  number of filter stages.
3986:Components/Algorithm/Include/arm_math.h ****    * @param[in] *pCoeffs points to the coefficient buffer.  The array is of length numStages.
3987:Components/Algorithm/Include/arm_math.h ****    * @param[in] *pState points to the state buffer.  The array is of length numStages.
3988:Components/Algorithm/Include/arm_math.h ****    * @return none.
3989:Components/Algorithm/Include/arm_math.h ****    */
3990:Components/Algorithm/Include/arm_math.h **** 
3991:Components/Algorithm/Include/arm_math.h ****   void arm_fir_lattice_init_q15(
3992:Components/Algorithm/Include/arm_math.h ****   arm_fir_lattice_instance_q15 * S,
3993:Components/Algorithm/Include/arm_math.h ****   uint16_t numStages,
3994:Components/Algorithm/Include/arm_math.h ****   q15_t * pCoeffs,
3995:Components/Algorithm/Include/arm_math.h ****   q15_t * pState);
3996:Components/Algorithm/Include/arm_math.h **** 
3997:Components/Algorithm/Include/arm_math.h **** 
3998:Components/Algorithm/Include/arm_math.h ****   /**
3999:Components/Algorithm/Include/arm_math.h ****    * @brief Processing function for the Q15 FIR lattice filter.
4000:Components/Algorithm/Include/arm_math.h ****    * @param[in] *S points to an instance of the Q15 FIR lattice structure.
4001:Components/Algorithm/Include/arm_math.h ****    * @param[in] *pSrc points to the block of input data.
4002:Components/Algorithm/Include/arm_math.h ****    * @param[out] *pDst points to the block of output data.
4003:Components/Algorithm/Include/arm_math.h ****    * @param[in] blockSize number of samples to process.
4004:Components/Algorithm/Include/arm_math.h ****    * @return none.
4005:Components/Algorithm/Include/arm_math.h ****    */
4006:Components/Algorithm/Include/arm_math.h ****   void arm_fir_lattice_q15(
4007:Components/Algorithm/Include/arm_math.h ****   const arm_fir_lattice_instance_q15 * S,
4008:Components/Algorithm/Include/arm_math.h ****   q15_t * pSrc,
4009:Components/Algorithm/Include/arm_math.h ****   q15_t * pDst,
4010:Components/Algorithm/Include/arm_math.h ****   uint32_t blockSize);
4011:Components/Algorithm/Include/arm_math.h **** 
4012:Components/Algorithm/Include/arm_math.h ****   /**
4013:Components/Algorithm/Include/arm_math.h ****    * @brief Initialization function for the Q31 FIR lattice filter.
4014:Components/Algorithm/Include/arm_math.h ****    * @param[in] *S points to an instance of the Q31 FIR lattice structure.
4015:Components/Algorithm/Include/arm_math.h ****    * @param[in] numStages  number of filter stages.
4016:Components/Algorithm/Include/arm_math.h ****    * @param[in] *pCoeffs points to the coefficient buffer.  The array is of length numStages.
4017:Components/Algorithm/Include/arm_math.h ****    * @param[in] *pState points to the state buffer.   The array is of length numStages.
4018:Components/Algorithm/Include/arm_math.h ****    * @return none.
4019:Components/Algorithm/Include/arm_math.h ****    */
4020:Components/Algorithm/Include/arm_math.h **** 
4021:Components/Algorithm/Include/arm_math.h ****   void arm_fir_lattice_init_q31(
4022:Components/Algorithm/Include/arm_math.h ****   arm_fir_lattice_instance_q31 * S,
4023:Components/Algorithm/Include/arm_math.h ****   uint16_t numStages,
4024:Components/Algorithm/Include/arm_math.h ****   q31_t * pCoeffs,
4025:Components/Algorithm/Include/arm_math.h ****   q31_t * pState);
4026:Components/Algorithm/Include/arm_math.h **** 
4027:Components/Algorithm/Include/arm_math.h **** 
4028:Components/Algorithm/Include/arm_math.h ****   /**
4029:Components/Algorithm/Include/arm_math.h ****    * @brief Processing function for the Q31 FIR lattice filter.
4030:Components/Algorithm/Include/arm_math.h ****    * @param[in]  *S        points to an instance of the Q31 FIR lattice structure.
4031:Components/Algorithm/Include/arm_math.h ****    * @param[in]  *pSrc     points to the block of input data.
4032:Components/Algorithm/Include/arm_math.h ****    * @param[out] *pDst     points to the block of output data
4033:Components/Algorithm/Include/arm_math.h ****    * @param[in]  blockSize number of samples to process.
4034:Components/Algorithm/Include/arm_math.h ****    * @return none.
4035:Components/Algorithm/Include/arm_math.h ****    */
4036:Components/Algorithm/Include/arm_math.h **** 
4037:Components/Algorithm/Include/arm_math.h ****   void arm_fir_lattice_q31(
4038:Components/Algorithm/Include/arm_math.h ****   const arm_fir_lattice_instance_q31 * S,
4039:Components/Algorithm/Include/arm_math.h ****   q31_t * pSrc,
4040:Components/Algorithm/Include/arm_math.h ****   q31_t * pDst,
ARM GAS  C:\Users\86152\AppData\Local\Temp\ccWGVtEI.s 			page 156


4041:Components/Algorithm/Include/arm_math.h ****   uint32_t blockSize);
4042:Components/Algorithm/Include/arm_math.h **** 
4043:Components/Algorithm/Include/arm_math.h **** /**
4044:Components/Algorithm/Include/arm_math.h ****  * @brief Initialization function for the floating-point FIR lattice filter.
4045:Components/Algorithm/Include/arm_math.h ****  * @param[in] *S points to an instance of the floating-point FIR lattice structure.
4046:Components/Algorithm/Include/arm_math.h ****  * @param[in] numStages  number of filter stages.
4047:Components/Algorithm/Include/arm_math.h ****  * @param[in] *pCoeffs points to the coefficient buffer.  The array is of length numStages.
4048:Components/Algorithm/Include/arm_math.h ****  * @param[in] *pState points to the state buffer.  The array is of length numStages.
4049:Components/Algorithm/Include/arm_math.h ****  * @return none.
4050:Components/Algorithm/Include/arm_math.h ****  */
4051:Components/Algorithm/Include/arm_math.h **** 
4052:Components/Algorithm/Include/arm_math.h ****   void arm_fir_lattice_init_f32(
4053:Components/Algorithm/Include/arm_math.h ****   arm_fir_lattice_instance_f32 * S,
4054:Components/Algorithm/Include/arm_math.h ****   uint16_t numStages,
4055:Components/Algorithm/Include/arm_math.h ****   float32_t * pCoeffs,
4056:Components/Algorithm/Include/arm_math.h ****   float32_t * pState);
4057:Components/Algorithm/Include/arm_math.h **** 
4058:Components/Algorithm/Include/arm_math.h ****   /**
4059:Components/Algorithm/Include/arm_math.h ****    * @brief Processing function for the floating-point FIR lattice filter.
4060:Components/Algorithm/Include/arm_math.h ****    * @param[in]  *S        points to an instance of the floating-point FIR lattice structure.
4061:Components/Algorithm/Include/arm_math.h ****    * @param[in]  *pSrc     points to the block of input data.
4062:Components/Algorithm/Include/arm_math.h ****    * @param[out] *pDst     points to the block of output data
4063:Components/Algorithm/Include/arm_math.h ****    * @param[in]  blockSize number of samples to process.
4064:Components/Algorithm/Include/arm_math.h ****    * @return none.
4065:Components/Algorithm/Include/arm_math.h ****    */
4066:Components/Algorithm/Include/arm_math.h **** 
4067:Components/Algorithm/Include/arm_math.h ****   void arm_fir_lattice_f32(
4068:Components/Algorithm/Include/arm_math.h ****   const arm_fir_lattice_instance_f32 * S,
4069:Components/Algorithm/Include/arm_math.h ****   float32_t * pSrc,
4070:Components/Algorithm/Include/arm_math.h ****   float32_t * pDst,
4071:Components/Algorithm/Include/arm_math.h ****   uint32_t blockSize);
4072:Components/Algorithm/Include/arm_math.h **** 
4073:Components/Algorithm/Include/arm_math.h ****   /**
4074:Components/Algorithm/Include/arm_math.h ****    * @brief Instance structure for the Q15 IIR lattice filter.
4075:Components/Algorithm/Include/arm_math.h ****    */
4076:Components/Algorithm/Include/arm_math.h ****   typedef struct
4077:Components/Algorithm/Include/arm_math.h ****   {
4078:Components/Algorithm/Include/arm_math.h ****     uint16_t numStages;                         /**< number of stages in the filter. */
4079:Components/Algorithm/Include/arm_math.h ****     q15_t *pState;                              /**< points to the state variable array. The array 
4080:Components/Algorithm/Include/arm_math.h ****     q15_t *pkCoeffs;                            /**< points to the reflection coefficient array. Th
4081:Components/Algorithm/Include/arm_math.h ****     q15_t *pvCoeffs;                            /**< points to the ladder coefficient array. The ar
4082:Components/Algorithm/Include/arm_math.h ****   } arm_iir_lattice_instance_q15;
4083:Components/Algorithm/Include/arm_math.h **** 
4084:Components/Algorithm/Include/arm_math.h ****   /**
4085:Components/Algorithm/Include/arm_math.h ****    * @brief Instance structure for the Q31 IIR lattice filter.
4086:Components/Algorithm/Include/arm_math.h ****    */
4087:Components/Algorithm/Include/arm_math.h ****   typedef struct
4088:Components/Algorithm/Include/arm_math.h ****   {
4089:Components/Algorithm/Include/arm_math.h ****     uint16_t numStages;                         /**< number of stages in the filter. */
4090:Components/Algorithm/Include/arm_math.h ****     q31_t *pState;                              /**< points to the state variable array. The array 
4091:Components/Algorithm/Include/arm_math.h ****     q31_t *pkCoeffs;                            /**< points to the reflection coefficient array. Th
4092:Components/Algorithm/Include/arm_math.h ****     q31_t *pvCoeffs;                            /**< points to the ladder coefficient array. The ar
4093:Components/Algorithm/Include/arm_math.h ****   } arm_iir_lattice_instance_q31;
4094:Components/Algorithm/Include/arm_math.h **** 
4095:Components/Algorithm/Include/arm_math.h ****   /**
4096:Components/Algorithm/Include/arm_math.h ****    * @brief Instance structure for the floating-point IIR lattice filter.
4097:Components/Algorithm/Include/arm_math.h ****    */
ARM GAS  C:\Users\86152\AppData\Local\Temp\ccWGVtEI.s 			page 157


4098:Components/Algorithm/Include/arm_math.h ****   typedef struct
4099:Components/Algorithm/Include/arm_math.h ****   {
4100:Components/Algorithm/Include/arm_math.h ****     uint16_t numStages;                         /**< number of stages in the filter. */
4101:Components/Algorithm/Include/arm_math.h ****     float32_t *pState;                          /**< points to the state variable array. The array 
4102:Components/Algorithm/Include/arm_math.h ****     float32_t *pkCoeffs;                        /**< points to the reflection coefficient array. Th
4103:Components/Algorithm/Include/arm_math.h ****     float32_t *pvCoeffs;                        /**< points to the ladder coefficient array. The ar
4104:Components/Algorithm/Include/arm_math.h ****   } arm_iir_lattice_instance_f32;
4105:Components/Algorithm/Include/arm_math.h **** 
4106:Components/Algorithm/Include/arm_math.h ****   /**
4107:Components/Algorithm/Include/arm_math.h ****    * @brief Processing function for the floating-point IIR lattice filter.
4108:Components/Algorithm/Include/arm_math.h ****    * @param[in] *S points to an instance of the floating-point IIR lattice structure.
4109:Components/Algorithm/Include/arm_math.h ****    * @param[in] *pSrc points to the block of input data.
4110:Components/Algorithm/Include/arm_math.h ****    * @param[out] *pDst points to the block of output data.
4111:Components/Algorithm/Include/arm_math.h ****    * @param[in] blockSize number of samples to process.
4112:Components/Algorithm/Include/arm_math.h ****    * @return none.
4113:Components/Algorithm/Include/arm_math.h ****    */
4114:Components/Algorithm/Include/arm_math.h **** 
4115:Components/Algorithm/Include/arm_math.h ****   void arm_iir_lattice_f32(
4116:Components/Algorithm/Include/arm_math.h ****   const arm_iir_lattice_instance_f32 * S,
4117:Components/Algorithm/Include/arm_math.h ****   float32_t * pSrc,
4118:Components/Algorithm/Include/arm_math.h ****   float32_t * pDst,
4119:Components/Algorithm/Include/arm_math.h ****   uint32_t blockSize);
4120:Components/Algorithm/Include/arm_math.h **** 
4121:Components/Algorithm/Include/arm_math.h ****   /**
4122:Components/Algorithm/Include/arm_math.h ****    * @brief Initialization function for the floating-point IIR lattice filter.
4123:Components/Algorithm/Include/arm_math.h ****    * @param[in] *S points to an instance of the floating-point IIR lattice structure.
4124:Components/Algorithm/Include/arm_math.h ****    * @param[in] numStages number of stages in the filter.
4125:Components/Algorithm/Include/arm_math.h ****    * @param[in] *pkCoeffs points to the reflection coefficient buffer.  The array is of length numS
4126:Components/Algorithm/Include/arm_math.h ****    * @param[in] *pvCoeffs points to the ladder coefficient buffer.  The array is of length numStage
4127:Components/Algorithm/Include/arm_math.h ****    * @param[in] *pState points to the state buffer.  The array is of length numStages+blockSize-1.
4128:Components/Algorithm/Include/arm_math.h ****    * @param[in] blockSize number of samples to process.
4129:Components/Algorithm/Include/arm_math.h ****    * @return none.
4130:Components/Algorithm/Include/arm_math.h ****    */
4131:Components/Algorithm/Include/arm_math.h **** 
4132:Components/Algorithm/Include/arm_math.h ****   void arm_iir_lattice_init_f32(
4133:Components/Algorithm/Include/arm_math.h ****   arm_iir_lattice_instance_f32 * S,
4134:Components/Algorithm/Include/arm_math.h ****   uint16_t numStages,
4135:Components/Algorithm/Include/arm_math.h ****   float32_t * pkCoeffs,
4136:Components/Algorithm/Include/arm_math.h ****   float32_t * pvCoeffs,
4137:Components/Algorithm/Include/arm_math.h ****   float32_t * pState,
4138:Components/Algorithm/Include/arm_math.h ****   uint32_t blockSize);
4139:Components/Algorithm/Include/arm_math.h **** 
4140:Components/Algorithm/Include/arm_math.h **** 
4141:Components/Algorithm/Include/arm_math.h ****   /**
4142:Components/Algorithm/Include/arm_math.h ****    * @brief Processing function for the Q31 IIR lattice filter.
4143:Components/Algorithm/Include/arm_math.h ****    * @param[in] *S points to an instance of the Q31 IIR lattice structure.
4144:Components/Algorithm/Include/arm_math.h ****    * @param[in] *pSrc points to the block of input data.
4145:Components/Algorithm/Include/arm_math.h ****    * @param[out] *pDst points to the block of output data.
4146:Components/Algorithm/Include/arm_math.h ****    * @param[in] blockSize number of samples to process.
4147:Components/Algorithm/Include/arm_math.h ****    * @return none.
4148:Components/Algorithm/Include/arm_math.h ****    */
4149:Components/Algorithm/Include/arm_math.h **** 
4150:Components/Algorithm/Include/arm_math.h ****   void arm_iir_lattice_q31(
4151:Components/Algorithm/Include/arm_math.h ****   const arm_iir_lattice_instance_q31 * S,
4152:Components/Algorithm/Include/arm_math.h ****   q31_t * pSrc,
4153:Components/Algorithm/Include/arm_math.h ****   q31_t * pDst,
4154:Components/Algorithm/Include/arm_math.h ****   uint32_t blockSize);
ARM GAS  C:\Users\86152\AppData\Local\Temp\ccWGVtEI.s 			page 158


4155:Components/Algorithm/Include/arm_math.h **** 
4156:Components/Algorithm/Include/arm_math.h **** 
4157:Components/Algorithm/Include/arm_math.h ****   /**
4158:Components/Algorithm/Include/arm_math.h ****    * @brief Initialization function for the Q31 IIR lattice filter.
4159:Components/Algorithm/Include/arm_math.h ****    * @param[in] *S points to an instance of the Q31 IIR lattice structure.
4160:Components/Algorithm/Include/arm_math.h ****    * @param[in] numStages number of stages in the filter.
4161:Components/Algorithm/Include/arm_math.h ****    * @param[in] *pkCoeffs points to the reflection coefficient buffer.  The array is of length numS
4162:Components/Algorithm/Include/arm_math.h ****    * @param[in] *pvCoeffs points to the ladder coefficient buffer.  The array is of length numStage
4163:Components/Algorithm/Include/arm_math.h ****    * @param[in] *pState points to the state buffer.  The array is of length numStages+blockSize.
4164:Components/Algorithm/Include/arm_math.h ****    * @param[in] blockSize number of samples to process.
4165:Components/Algorithm/Include/arm_math.h ****    * @return none.
4166:Components/Algorithm/Include/arm_math.h ****    */
4167:Components/Algorithm/Include/arm_math.h **** 
4168:Components/Algorithm/Include/arm_math.h ****   void arm_iir_lattice_init_q31(
4169:Components/Algorithm/Include/arm_math.h ****   arm_iir_lattice_instance_q31 * S,
4170:Components/Algorithm/Include/arm_math.h ****   uint16_t numStages,
4171:Components/Algorithm/Include/arm_math.h ****   q31_t * pkCoeffs,
4172:Components/Algorithm/Include/arm_math.h ****   q31_t * pvCoeffs,
4173:Components/Algorithm/Include/arm_math.h ****   q31_t * pState,
4174:Components/Algorithm/Include/arm_math.h ****   uint32_t blockSize);
4175:Components/Algorithm/Include/arm_math.h **** 
4176:Components/Algorithm/Include/arm_math.h **** 
4177:Components/Algorithm/Include/arm_math.h ****   /**
4178:Components/Algorithm/Include/arm_math.h ****    * @brief Processing function for the Q15 IIR lattice filter.
4179:Components/Algorithm/Include/arm_math.h ****    * @param[in] *S points to an instance of the Q15 IIR lattice structure.
4180:Components/Algorithm/Include/arm_math.h ****    * @param[in] *pSrc points to the block of input data.
4181:Components/Algorithm/Include/arm_math.h ****    * @param[out] *pDst points to the block of output data.
4182:Components/Algorithm/Include/arm_math.h ****    * @param[in] blockSize number of samples to process.
4183:Components/Algorithm/Include/arm_math.h ****    * @return none.
4184:Components/Algorithm/Include/arm_math.h ****    */
4185:Components/Algorithm/Include/arm_math.h **** 
4186:Components/Algorithm/Include/arm_math.h ****   void arm_iir_lattice_q15(
4187:Components/Algorithm/Include/arm_math.h ****   const arm_iir_lattice_instance_q15 * S,
4188:Components/Algorithm/Include/arm_math.h ****   q15_t * pSrc,
4189:Components/Algorithm/Include/arm_math.h ****   q15_t * pDst,
4190:Components/Algorithm/Include/arm_math.h ****   uint32_t blockSize);
4191:Components/Algorithm/Include/arm_math.h **** 
4192:Components/Algorithm/Include/arm_math.h **** 
4193:Components/Algorithm/Include/arm_math.h **** /**
4194:Components/Algorithm/Include/arm_math.h ****  * @brief Initialization function for the Q15 IIR lattice filter.
4195:Components/Algorithm/Include/arm_math.h ****  * @param[in] *S points to an instance of the fixed-point Q15 IIR lattice structure.
4196:Components/Algorithm/Include/arm_math.h ****  * @param[in] numStages  number of stages in the filter.
4197:Components/Algorithm/Include/arm_math.h ****  * @param[in] *pkCoeffs points to reflection coefficient buffer.  The array is of length numStages.
4198:Components/Algorithm/Include/arm_math.h ****  * @param[in] *pvCoeffs points to ladder coefficient buffer.  The array is of length numStages+1.
4199:Components/Algorithm/Include/arm_math.h ****  * @param[in] *pState points to state buffer.  The array is of length numStages+blockSize.
4200:Components/Algorithm/Include/arm_math.h ****  * @param[in] blockSize number of samples to process per call.
4201:Components/Algorithm/Include/arm_math.h ****  * @return none.
4202:Components/Algorithm/Include/arm_math.h ****  */
4203:Components/Algorithm/Include/arm_math.h **** 
4204:Components/Algorithm/Include/arm_math.h ****   void arm_iir_lattice_init_q15(
4205:Components/Algorithm/Include/arm_math.h ****   arm_iir_lattice_instance_q15 * S,
4206:Components/Algorithm/Include/arm_math.h ****   uint16_t numStages,
4207:Components/Algorithm/Include/arm_math.h ****   q15_t * pkCoeffs,
4208:Components/Algorithm/Include/arm_math.h ****   q15_t * pvCoeffs,
4209:Components/Algorithm/Include/arm_math.h ****   q15_t * pState,
4210:Components/Algorithm/Include/arm_math.h ****   uint32_t blockSize);
4211:Components/Algorithm/Include/arm_math.h **** 
ARM GAS  C:\Users\86152\AppData\Local\Temp\ccWGVtEI.s 			page 159


4212:Components/Algorithm/Include/arm_math.h ****   /**
4213:Components/Algorithm/Include/arm_math.h ****    * @brief Instance structure for the floating-point LMS filter.
4214:Components/Algorithm/Include/arm_math.h ****    */
4215:Components/Algorithm/Include/arm_math.h **** 
4216:Components/Algorithm/Include/arm_math.h ****   typedef struct
4217:Components/Algorithm/Include/arm_math.h ****   {
4218:Components/Algorithm/Include/arm_math.h ****     uint16_t numTaps;    /**< number of coefficients in the filter. */
4219:Components/Algorithm/Include/arm_math.h ****     float32_t *pState;   /**< points to the state variable array. The array is of length numTaps+bl
4220:Components/Algorithm/Include/arm_math.h ****     float32_t *pCoeffs;  /**< points to the coefficient array. The array is of length numTaps. */
4221:Components/Algorithm/Include/arm_math.h ****     float32_t mu;        /**< step size that controls filter coefficient updates. */
4222:Components/Algorithm/Include/arm_math.h ****   } arm_lms_instance_f32;
4223:Components/Algorithm/Include/arm_math.h **** 
4224:Components/Algorithm/Include/arm_math.h ****   /**
4225:Components/Algorithm/Include/arm_math.h ****    * @brief Processing function for floating-point LMS filter.
4226:Components/Algorithm/Include/arm_math.h ****    * @param[in]  *S points to an instance of the floating-point LMS filter structure.
4227:Components/Algorithm/Include/arm_math.h ****    * @param[in]  *pSrc points to the block of input data.
4228:Components/Algorithm/Include/arm_math.h ****    * @param[in]  *pRef points to the block of reference data.
4229:Components/Algorithm/Include/arm_math.h ****    * @param[out] *pOut points to the block of output data.
4230:Components/Algorithm/Include/arm_math.h ****    * @param[out] *pErr points to the block of error data.
4231:Components/Algorithm/Include/arm_math.h ****    * @param[in]  blockSize number of samples to process.
4232:Components/Algorithm/Include/arm_math.h ****    * @return     none.
4233:Components/Algorithm/Include/arm_math.h ****    */
4234:Components/Algorithm/Include/arm_math.h **** 
4235:Components/Algorithm/Include/arm_math.h ****   void arm_lms_f32(
4236:Components/Algorithm/Include/arm_math.h ****   const arm_lms_instance_f32 * S,
4237:Components/Algorithm/Include/arm_math.h ****   float32_t * pSrc,
4238:Components/Algorithm/Include/arm_math.h ****   float32_t * pRef,
4239:Components/Algorithm/Include/arm_math.h ****   float32_t * pOut,
4240:Components/Algorithm/Include/arm_math.h ****   float32_t * pErr,
4241:Components/Algorithm/Include/arm_math.h ****   uint32_t blockSize);
4242:Components/Algorithm/Include/arm_math.h **** 
4243:Components/Algorithm/Include/arm_math.h ****   /**
4244:Components/Algorithm/Include/arm_math.h ****    * @brief Initialization function for floating-point LMS filter.
4245:Components/Algorithm/Include/arm_math.h ****    * @param[in] *S points to an instance of the floating-point LMS filter structure.
4246:Components/Algorithm/Include/arm_math.h ****    * @param[in] numTaps  number of filter coefficients.
4247:Components/Algorithm/Include/arm_math.h ****    * @param[in] *pCoeffs points to the coefficient buffer.
4248:Components/Algorithm/Include/arm_math.h ****    * @param[in] *pState points to state buffer.
4249:Components/Algorithm/Include/arm_math.h ****    * @param[in] mu step size that controls filter coefficient updates.
4250:Components/Algorithm/Include/arm_math.h ****    * @param[in] blockSize number of samples to process.
4251:Components/Algorithm/Include/arm_math.h ****    * @return none.
4252:Components/Algorithm/Include/arm_math.h ****    */
4253:Components/Algorithm/Include/arm_math.h **** 
4254:Components/Algorithm/Include/arm_math.h ****   void arm_lms_init_f32(
4255:Components/Algorithm/Include/arm_math.h ****   arm_lms_instance_f32 * S,
4256:Components/Algorithm/Include/arm_math.h ****   uint16_t numTaps,
4257:Components/Algorithm/Include/arm_math.h ****   float32_t * pCoeffs,
4258:Components/Algorithm/Include/arm_math.h ****   float32_t * pState,
4259:Components/Algorithm/Include/arm_math.h ****   float32_t mu,
4260:Components/Algorithm/Include/arm_math.h ****   uint32_t blockSize);
4261:Components/Algorithm/Include/arm_math.h **** 
4262:Components/Algorithm/Include/arm_math.h ****   /**
4263:Components/Algorithm/Include/arm_math.h ****    * @brief Instance structure for the Q15 LMS filter.
4264:Components/Algorithm/Include/arm_math.h ****    */
4265:Components/Algorithm/Include/arm_math.h **** 
4266:Components/Algorithm/Include/arm_math.h ****   typedef struct
4267:Components/Algorithm/Include/arm_math.h ****   {
4268:Components/Algorithm/Include/arm_math.h ****     uint16_t numTaps;    /**< number of coefficients in the filter. */
ARM GAS  C:\Users\86152\AppData\Local\Temp\ccWGVtEI.s 			page 160


4269:Components/Algorithm/Include/arm_math.h ****     q15_t *pState;       /**< points to the state variable array. The array is of length numTaps+bl
4270:Components/Algorithm/Include/arm_math.h ****     q15_t *pCoeffs;      /**< points to the coefficient array. The array is of length numTaps. */
4271:Components/Algorithm/Include/arm_math.h ****     q15_t mu;            /**< step size that controls filter coefficient updates. */
4272:Components/Algorithm/Include/arm_math.h ****     uint32_t postShift;  /**< bit shift applied to coefficients. */
4273:Components/Algorithm/Include/arm_math.h ****   } arm_lms_instance_q15;
4274:Components/Algorithm/Include/arm_math.h **** 
4275:Components/Algorithm/Include/arm_math.h **** 
4276:Components/Algorithm/Include/arm_math.h ****   /**
4277:Components/Algorithm/Include/arm_math.h ****    * @brief Initialization function for the Q15 LMS filter.
4278:Components/Algorithm/Include/arm_math.h ****    * @param[in] *S points to an instance of the Q15 LMS filter structure.
4279:Components/Algorithm/Include/arm_math.h ****    * @param[in] numTaps  number of filter coefficients.
4280:Components/Algorithm/Include/arm_math.h ****    * @param[in] *pCoeffs points to the coefficient buffer.
4281:Components/Algorithm/Include/arm_math.h ****    * @param[in] *pState points to the state buffer.
4282:Components/Algorithm/Include/arm_math.h ****    * @param[in] mu step size that controls filter coefficient updates.
4283:Components/Algorithm/Include/arm_math.h ****    * @param[in] blockSize number of samples to process.
4284:Components/Algorithm/Include/arm_math.h ****    * @param[in] postShift bit shift applied to coefficients.
4285:Components/Algorithm/Include/arm_math.h ****    * @return    none.
4286:Components/Algorithm/Include/arm_math.h ****    */
4287:Components/Algorithm/Include/arm_math.h **** 
4288:Components/Algorithm/Include/arm_math.h ****   void arm_lms_init_q15(
4289:Components/Algorithm/Include/arm_math.h ****   arm_lms_instance_q15 * S,
4290:Components/Algorithm/Include/arm_math.h ****   uint16_t numTaps,
4291:Components/Algorithm/Include/arm_math.h ****   q15_t * pCoeffs,
4292:Components/Algorithm/Include/arm_math.h ****   q15_t * pState,
4293:Components/Algorithm/Include/arm_math.h ****   q15_t mu,
4294:Components/Algorithm/Include/arm_math.h ****   uint32_t blockSize,
4295:Components/Algorithm/Include/arm_math.h ****   uint32_t postShift);
4296:Components/Algorithm/Include/arm_math.h **** 
4297:Components/Algorithm/Include/arm_math.h ****   /**
4298:Components/Algorithm/Include/arm_math.h ****    * @brief Processing function for Q15 LMS filter.
4299:Components/Algorithm/Include/arm_math.h ****    * @param[in] *S points to an instance of the Q15 LMS filter structure.
4300:Components/Algorithm/Include/arm_math.h ****    * @param[in] *pSrc points to the block of input data.
4301:Components/Algorithm/Include/arm_math.h ****    * @param[in] *pRef points to the block of reference data.
4302:Components/Algorithm/Include/arm_math.h ****    * @param[out] *pOut points to the block of output data.
4303:Components/Algorithm/Include/arm_math.h ****    * @param[out] *pErr points to the block of error data.
4304:Components/Algorithm/Include/arm_math.h ****    * @param[in] blockSize number of samples to process.
4305:Components/Algorithm/Include/arm_math.h ****    * @return none.
4306:Components/Algorithm/Include/arm_math.h ****    */
4307:Components/Algorithm/Include/arm_math.h **** 
4308:Components/Algorithm/Include/arm_math.h ****   void arm_lms_q15(
4309:Components/Algorithm/Include/arm_math.h ****   const arm_lms_instance_q15 * S,
4310:Components/Algorithm/Include/arm_math.h ****   q15_t * pSrc,
4311:Components/Algorithm/Include/arm_math.h ****   q15_t * pRef,
4312:Components/Algorithm/Include/arm_math.h ****   q15_t * pOut,
4313:Components/Algorithm/Include/arm_math.h ****   q15_t * pErr,
4314:Components/Algorithm/Include/arm_math.h ****   uint32_t blockSize);
4315:Components/Algorithm/Include/arm_math.h **** 
4316:Components/Algorithm/Include/arm_math.h **** 
4317:Components/Algorithm/Include/arm_math.h ****   /**
4318:Components/Algorithm/Include/arm_math.h ****    * @brief Instance structure for the Q31 LMS filter.
4319:Components/Algorithm/Include/arm_math.h ****    */
4320:Components/Algorithm/Include/arm_math.h **** 
4321:Components/Algorithm/Include/arm_math.h ****   typedef struct
4322:Components/Algorithm/Include/arm_math.h ****   {
4323:Components/Algorithm/Include/arm_math.h ****     uint16_t numTaps;    /**< number of coefficients in the filter. */
4324:Components/Algorithm/Include/arm_math.h ****     q31_t *pState;       /**< points to the state variable array. The array is of length numTaps+bl
4325:Components/Algorithm/Include/arm_math.h ****     q31_t *pCoeffs;      /**< points to the coefficient array. The array is of length numTaps. */
ARM GAS  C:\Users\86152\AppData\Local\Temp\ccWGVtEI.s 			page 161


4326:Components/Algorithm/Include/arm_math.h ****     q31_t mu;            /**< step size that controls filter coefficient updates. */
4327:Components/Algorithm/Include/arm_math.h ****     uint32_t postShift;  /**< bit shift applied to coefficients. */
4328:Components/Algorithm/Include/arm_math.h **** 
4329:Components/Algorithm/Include/arm_math.h ****   } arm_lms_instance_q31;
4330:Components/Algorithm/Include/arm_math.h **** 
4331:Components/Algorithm/Include/arm_math.h ****   /**
4332:Components/Algorithm/Include/arm_math.h ****    * @brief Processing function for Q31 LMS filter.
4333:Components/Algorithm/Include/arm_math.h ****    * @param[in]  *S points to an instance of the Q15 LMS filter structure.
4334:Components/Algorithm/Include/arm_math.h ****    * @param[in]  *pSrc points to the block of input data.
4335:Components/Algorithm/Include/arm_math.h ****    * @param[in]  *pRef points to the block of reference data.
4336:Components/Algorithm/Include/arm_math.h ****    * @param[out] *pOut points to the block of output data.
4337:Components/Algorithm/Include/arm_math.h ****    * @param[out] *pErr points to the block of error data.
4338:Components/Algorithm/Include/arm_math.h ****    * @param[in]  blockSize number of samples to process.
4339:Components/Algorithm/Include/arm_math.h ****    * @return     none.
4340:Components/Algorithm/Include/arm_math.h ****    */
4341:Components/Algorithm/Include/arm_math.h **** 
4342:Components/Algorithm/Include/arm_math.h ****   void arm_lms_q31(
4343:Components/Algorithm/Include/arm_math.h ****   const arm_lms_instance_q31 * S,
4344:Components/Algorithm/Include/arm_math.h ****   q31_t * pSrc,
4345:Components/Algorithm/Include/arm_math.h ****   q31_t * pRef,
4346:Components/Algorithm/Include/arm_math.h ****   q31_t * pOut,
4347:Components/Algorithm/Include/arm_math.h ****   q31_t * pErr,
4348:Components/Algorithm/Include/arm_math.h ****   uint32_t blockSize);
4349:Components/Algorithm/Include/arm_math.h **** 
4350:Components/Algorithm/Include/arm_math.h ****   /**
4351:Components/Algorithm/Include/arm_math.h ****    * @brief Initialization function for Q31 LMS filter.
4352:Components/Algorithm/Include/arm_math.h ****    * @param[in] *S points to an instance of the Q31 LMS filter structure.
4353:Components/Algorithm/Include/arm_math.h ****    * @param[in] numTaps  number of filter coefficients.
4354:Components/Algorithm/Include/arm_math.h ****    * @param[in] *pCoeffs points to coefficient buffer.
4355:Components/Algorithm/Include/arm_math.h ****    * @param[in] *pState points to state buffer.
4356:Components/Algorithm/Include/arm_math.h ****    * @param[in] mu step size that controls filter coefficient updates.
4357:Components/Algorithm/Include/arm_math.h ****    * @param[in] blockSize number of samples to process.
4358:Components/Algorithm/Include/arm_math.h ****    * @param[in] postShift bit shift applied to coefficients.
4359:Components/Algorithm/Include/arm_math.h ****    * @return none.
4360:Components/Algorithm/Include/arm_math.h ****    */
4361:Components/Algorithm/Include/arm_math.h **** 
4362:Components/Algorithm/Include/arm_math.h ****   void arm_lms_init_q31(
4363:Components/Algorithm/Include/arm_math.h ****   arm_lms_instance_q31 * S,
4364:Components/Algorithm/Include/arm_math.h ****   uint16_t numTaps,
4365:Components/Algorithm/Include/arm_math.h ****   q31_t * pCoeffs,
4366:Components/Algorithm/Include/arm_math.h ****   q31_t * pState,
4367:Components/Algorithm/Include/arm_math.h ****   q31_t mu,
4368:Components/Algorithm/Include/arm_math.h ****   uint32_t blockSize,
4369:Components/Algorithm/Include/arm_math.h ****   uint32_t postShift);
4370:Components/Algorithm/Include/arm_math.h **** 
4371:Components/Algorithm/Include/arm_math.h ****   /**
4372:Components/Algorithm/Include/arm_math.h ****    * @brief Instance structure for the floating-point normalized LMS filter.
4373:Components/Algorithm/Include/arm_math.h ****    */
4374:Components/Algorithm/Include/arm_math.h **** 
4375:Components/Algorithm/Include/arm_math.h ****   typedef struct
4376:Components/Algorithm/Include/arm_math.h ****   {
4377:Components/Algorithm/Include/arm_math.h ****     uint16_t numTaps;     /**< number of coefficients in the filter. */
4378:Components/Algorithm/Include/arm_math.h ****     float32_t *pState;    /**< points to the state variable array. The array is of length numTaps+b
4379:Components/Algorithm/Include/arm_math.h ****     float32_t *pCoeffs;   /**< points to the coefficient array. The array is of length numTaps. */
4380:Components/Algorithm/Include/arm_math.h ****     float32_t mu;        /**< step size that control filter coefficient updates. */
4381:Components/Algorithm/Include/arm_math.h ****     float32_t energy;    /**< saves previous frame energy. */
4382:Components/Algorithm/Include/arm_math.h ****     float32_t x0;        /**< saves previous input sample. */
ARM GAS  C:\Users\86152\AppData\Local\Temp\ccWGVtEI.s 			page 162


4383:Components/Algorithm/Include/arm_math.h ****   } arm_lms_norm_instance_f32;
4384:Components/Algorithm/Include/arm_math.h **** 
4385:Components/Algorithm/Include/arm_math.h ****   /**
4386:Components/Algorithm/Include/arm_math.h ****    * @brief Processing function for floating-point normalized LMS filter.
4387:Components/Algorithm/Include/arm_math.h ****    * @param[in] *S points to an instance of the floating-point normalized LMS filter structure.
4388:Components/Algorithm/Include/arm_math.h ****    * @param[in] *pSrc points to the block of input data.
4389:Components/Algorithm/Include/arm_math.h ****    * @param[in] *pRef points to the block of reference data.
4390:Components/Algorithm/Include/arm_math.h ****    * @param[out] *pOut points to the block of output data.
4391:Components/Algorithm/Include/arm_math.h ****    * @param[out] *pErr points to the block of error data.
4392:Components/Algorithm/Include/arm_math.h ****    * @param[in] blockSize number of samples to process.
4393:Components/Algorithm/Include/arm_math.h ****    * @return none.
4394:Components/Algorithm/Include/arm_math.h ****    */
4395:Components/Algorithm/Include/arm_math.h **** 
4396:Components/Algorithm/Include/arm_math.h ****   void arm_lms_norm_f32(
4397:Components/Algorithm/Include/arm_math.h ****   arm_lms_norm_instance_f32 * S,
4398:Components/Algorithm/Include/arm_math.h ****   float32_t * pSrc,
4399:Components/Algorithm/Include/arm_math.h ****   float32_t * pRef,
4400:Components/Algorithm/Include/arm_math.h ****   float32_t * pOut,
4401:Components/Algorithm/Include/arm_math.h ****   float32_t * pErr,
4402:Components/Algorithm/Include/arm_math.h ****   uint32_t blockSize);
4403:Components/Algorithm/Include/arm_math.h **** 
4404:Components/Algorithm/Include/arm_math.h ****   /**
4405:Components/Algorithm/Include/arm_math.h ****    * @brief Initialization function for floating-point normalized LMS filter.
4406:Components/Algorithm/Include/arm_math.h ****    * @param[in] *S points to an instance of the floating-point LMS filter structure.
4407:Components/Algorithm/Include/arm_math.h ****    * @param[in] numTaps  number of filter coefficients.
4408:Components/Algorithm/Include/arm_math.h ****    * @param[in] *pCoeffs points to coefficient buffer.
4409:Components/Algorithm/Include/arm_math.h ****    * @param[in] *pState points to state buffer.
4410:Components/Algorithm/Include/arm_math.h ****    * @param[in] mu step size that controls filter coefficient updates.
4411:Components/Algorithm/Include/arm_math.h ****    * @param[in] blockSize number of samples to process.
4412:Components/Algorithm/Include/arm_math.h ****    * @return none.
4413:Components/Algorithm/Include/arm_math.h ****    */
4414:Components/Algorithm/Include/arm_math.h **** 
4415:Components/Algorithm/Include/arm_math.h ****   void arm_lms_norm_init_f32(
4416:Components/Algorithm/Include/arm_math.h ****   arm_lms_norm_instance_f32 * S,
4417:Components/Algorithm/Include/arm_math.h ****   uint16_t numTaps,
4418:Components/Algorithm/Include/arm_math.h ****   float32_t * pCoeffs,
4419:Components/Algorithm/Include/arm_math.h ****   float32_t * pState,
4420:Components/Algorithm/Include/arm_math.h ****   float32_t mu,
4421:Components/Algorithm/Include/arm_math.h ****   uint32_t blockSize);
4422:Components/Algorithm/Include/arm_math.h **** 
4423:Components/Algorithm/Include/arm_math.h **** 
4424:Components/Algorithm/Include/arm_math.h ****   /**
4425:Components/Algorithm/Include/arm_math.h ****    * @brief Instance structure for the Q31 normalized LMS filter.
4426:Components/Algorithm/Include/arm_math.h ****    */
4427:Components/Algorithm/Include/arm_math.h ****   typedef struct
4428:Components/Algorithm/Include/arm_math.h ****   {
4429:Components/Algorithm/Include/arm_math.h ****     uint16_t numTaps;     /**< number of coefficients in the filter. */
4430:Components/Algorithm/Include/arm_math.h ****     q31_t *pState;        /**< points to the state variable array. The array is of length numTaps+b
4431:Components/Algorithm/Include/arm_math.h ****     q31_t *pCoeffs;       /**< points to the coefficient array. The array is of length numTaps. */
4432:Components/Algorithm/Include/arm_math.h ****     q31_t mu;             /**< step size that controls filter coefficient updates. */
4433:Components/Algorithm/Include/arm_math.h ****     uint8_t postShift;    /**< bit shift applied to coefficients. */
4434:Components/Algorithm/Include/arm_math.h ****     q31_t *recipTable;    /**< points to the reciprocal initial value table. */
4435:Components/Algorithm/Include/arm_math.h ****     q31_t energy;         /**< saves previous frame energy. */
4436:Components/Algorithm/Include/arm_math.h ****     q31_t x0;             /**< saves previous input sample. */
4437:Components/Algorithm/Include/arm_math.h ****   } arm_lms_norm_instance_q31;
4438:Components/Algorithm/Include/arm_math.h **** 
4439:Components/Algorithm/Include/arm_math.h ****   /**
ARM GAS  C:\Users\86152\AppData\Local\Temp\ccWGVtEI.s 			page 163


4440:Components/Algorithm/Include/arm_math.h ****    * @brief Processing function for Q31 normalized LMS filter.
4441:Components/Algorithm/Include/arm_math.h ****    * @param[in] *S points to an instance of the Q31 normalized LMS filter structure.
4442:Components/Algorithm/Include/arm_math.h ****    * @param[in] *pSrc points to the block of input data.
4443:Components/Algorithm/Include/arm_math.h ****    * @param[in] *pRef points to the block of reference data.
4444:Components/Algorithm/Include/arm_math.h ****    * @param[out] *pOut points to the block of output data.
4445:Components/Algorithm/Include/arm_math.h ****    * @param[out] *pErr points to the block of error data.
4446:Components/Algorithm/Include/arm_math.h ****    * @param[in] blockSize number of samples to process.
4447:Components/Algorithm/Include/arm_math.h ****    * @return none.
4448:Components/Algorithm/Include/arm_math.h ****    */
4449:Components/Algorithm/Include/arm_math.h **** 
4450:Components/Algorithm/Include/arm_math.h ****   void arm_lms_norm_q31(
4451:Components/Algorithm/Include/arm_math.h ****   arm_lms_norm_instance_q31 * S,
4452:Components/Algorithm/Include/arm_math.h ****   q31_t * pSrc,
4453:Components/Algorithm/Include/arm_math.h ****   q31_t * pRef,
4454:Components/Algorithm/Include/arm_math.h ****   q31_t * pOut,
4455:Components/Algorithm/Include/arm_math.h ****   q31_t * pErr,
4456:Components/Algorithm/Include/arm_math.h ****   uint32_t blockSize);
4457:Components/Algorithm/Include/arm_math.h **** 
4458:Components/Algorithm/Include/arm_math.h ****   /**
4459:Components/Algorithm/Include/arm_math.h ****    * @brief Initialization function for Q31 normalized LMS filter.
4460:Components/Algorithm/Include/arm_math.h ****    * @param[in] *S points to an instance of the Q31 normalized LMS filter structure.
4461:Components/Algorithm/Include/arm_math.h ****    * @param[in] numTaps  number of filter coefficients.
4462:Components/Algorithm/Include/arm_math.h ****    * @param[in] *pCoeffs points to coefficient buffer.
4463:Components/Algorithm/Include/arm_math.h ****    * @param[in] *pState points to state buffer.
4464:Components/Algorithm/Include/arm_math.h ****    * @param[in] mu step size that controls filter coefficient updates.
4465:Components/Algorithm/Include/arm_math.h ****    * @param[in] blockSize number of samples to process.
4466:Components/Algorithm/Include/arm_math.h ****    * @param[in] postShift bit shift applied to coefficients.
4467:Components/Algorithm/Include/arm_math.h ****    * @return none.
4468:Components/Algorithm/Include/arm_math.h ****    */
4469:Components/Algorithm/Include/arm_math.h **** 
4470:Components/Algorithm/Include/arm_math.h ****   void arm_lms_norm_init_q31(
4471:Components/Algorithm/Include/arm_math.h ****   arm_lms_norm_instance_q31 * S,
4472:Components/Algorithm/Include/arm_math.h ****   uint16_t numTaps,
4473:Components/Algorithm/Include/arm_math.h ****   q31_t * pCoeffs,
4474:Components/Algorithm/Include/arm_math.h ****   q31_t * pState,
4475:Components/Algorithm/Include/arm_math.h ****   q31_t mu,
4476:Components/Algorithm/Include/arm_math.h ****   uint32_t blockSize,
4477:Components/Algorithm/Include/arm_math.h ****   uint8_t postShift);
4478:Components/Algorithm/Include/arm_math.h **** 
4479:Components/Algorithm/Include/arm_math.h ****   /**
4480:Components/Algorithm/Include/arm_math.h ****    * @brief Instance structure for the Q15 normalized LMS filter.
4481:Components/Algorithm/Include/arm_math.h ****    */
4482:Components/Algorithm/Include/arm_math.h **** 
4483:Components/Algorithm/Include/arm_math.h ****   typedef struct
4484:Components/Algorithm/Include/arm_math.h ****   {
4485:Components/Algorithm/Include/arm_math.h ****     uint16_t numTaps;    /**< Number of coefficients in the filter. */
4486:Components/Algorithm/Include/arm_math.h ****     q15_t *pState;        /**< points to the state variable array. The array is of length numTaps+b
4487:Components/Algorithm/Include/arm_math.h ****     q15_t *pCoeffs;       /**< points to the coefficient array. The array is of length numTaps. */
4488:Components/Algorithm/Include/arm_math.h ****     q15_t mu;            /**< step size that controls filter coefficient updates. */
4489:Components/Algorithm/Include/arm_math.h ****     uint8_t postShift;   /**< bit shift applied to coefficients. */
4490:Components/Algorithm/Include/arm_math.h ****     q15_t *recipTable;   /**< Points to the reciprocal initial value table. */
4491:Components/Algorithm/Include/arm_math.h ****     q15_t energy;        /**< saves previous frame energy. */
4492:Components/Algorithm/Include/arm_math.h ****     q15_t x0;            /**< saves previous input sample. */
4493:Components/Algorithm/Include/arm_math.h ****   } arm_lms_norm_instance_q15;
4494:Components/Algorithm/Include/arm_math.h **** 
4495:Components/Algorithm/Include/arm_math.h ****   /**
4496:Components/Algorithm/Include/arm_math.h ****    * @brief Processing function for Q15 normalized LMS filter.
ARM GAS  C:\Users\86152\AppData\Local\Temp\ccWGVtEI.s 			page 164


4497:Components/Algorithm/Include/arm_math.h ****    * @param[in] *S points to an instance of the Q15 normalized LMS filter structure.
4498:Components/Algorithm/Include/arm_math.h ****    * @param[in] *pSrc points to the block of input data.
4499:Components/Algorithm/Include/arm_math.h ****    * @param[in] *pRef points to the block of reference data.
4500:Components/Algorithm/Include/arm_math.h ****    * @param[out] *pOut points to the block of output data.
4501:Components/Algorithm/Include/arm_math.h ****    * @param[out] *pErr points to the block of error data.
4502:Components/Algorithm/Include/arm_math.h ****    * @param[in] blockSize number of samples to process.
4503:Components/Algorithm/Include/arm_math.h ****    * @return none.
4504:Components/Algorithm/Include/arm_math.h ****    */
4505:Components/Algorithm/Include/arm_math.h **** 
4506:Components/Algorithm/Include/arm_math.h ****   void arm_lms_norm_q15(
4507:Components/Algorithm/Include/arm_math.h ****   arm_lms_norm_instance_q15 * S,
4508:Components/Algorithm/Include/arm_math.h ****   q15_t * pSrc,
4509:Components/Algorithm/Include/arm_math.h ****   q15_t * pRef,
4510:Components/Algorithm/Include/arm_math.h ****   q15_t * pOut,
4511:Components/Algorithm/Include/arm_math.h ****   q15_t * pErr,
4512:Components/Algorithm/Include/arm_math.h ****   uint32_t blockSize);
4513:Components/Algorithm/Include/arm_math.h **** 
4514:Components/Algorithm/Include/arm_math.h **** 
4515:Components/Algorithm/Include/arm_math.h ****   /**
4516:Components/Algorithm/Include/arm_math.h ****    * @brief Initialization function for Q15 normalized LMS filter.
4517:Components/Algorithm/Include/arm_math.h ****    * @param[in] *S points to an instance of the Q15 normalized LMS filter structure.
4518:Components/Algorithm/Include/arm_math.h ****    * @param[in] numTaps  number of filter coefficients.
4519:Components/Algorithm/Include/arm_math.h ****    * @param[in] *pCoeffs points to coefficient buffer.
4520:Components/Algorithm/Include/arm_math.h ****    * @param[in] *pState points to state buffer.
4521:Components/Algorithm/Include/arm_math.h ****    * @param[in] mu step size that controls filter coefficient updates.
4522:Components/Algorithm/Include/arm_math.h ****    * @param[in] blockSize number of samples to process.
4523:Components/Algorithm/Include/arm_math.h ****    * @param[in] postShift bit shift applied to coefficients.
4524:Components/Algorithm/Include/arm_math.h ****    * @return none.
4525:Components/Algorithm/Include/arm_math.h ****    */
4526:Components/Algorithm/Include/arm_math.h **** 
4527:Components/Algorithm/Include/arm_math.h ****   void arm_lms_norm_init_q15(
4528:Components/Algorithm/Include/arm_math.h ****   arm_lms_norm_instance_q15 * S,
4529:Components/Algorithm/Include/arm_math.h ****   uint16_t numTaps,
4530:Components/Algorithm/Include/arm_math.h ****   q15_t * pCoeffs,
4531:Components/Algorithm/Include/arm_math.h ****   q15_t * pState,
4532:Components/Algorithm/Include/arm_math.h ****   q15_t mu,
4533:Components/Algorithm/Include/arm_math.h ****   uint32_t blockSize,
4534:Components/Algorithm/Include/arm_math.h ****   uint8_t postShift);
4535:Components/Algorithm/Include/arm_math.h **** 
4536:Components/Algorithm/Include/arm_math.h ****   /**
4537:Components/Algorithm/Include/arm_math.h ****    * @brief Correlation of floating-point sequences.
4538:Components/Algorithm/Include/arm_math.h ****    * @param[in] *pSrcA points to the first input sequence.
4539:Components/Algorithm/Include/arm_math.h ****    * @param[in] srcALen length of the first input sequence.
4540:Components/Algorithm/Include/arm_math.h ****    * @param[in] *pSrcB points to the second input sequence.
4541:Components/Algorithm/Include/arm_math.h ****    * @param[in] srcBLen length of the second input sequence.
4542:Components/Algorithm/Include/arm_math.h ****    * @param[out] *pDst points to the block of output data  Length 2 * max(srcALen, srcBLen) - 1.
4543:Components/Algorithm/Include/arm_math.h ****    * @return none.
4544:Components/Algorithm/Include/arm_math.h ****    */
4545:Components/Algorithm/Include/arm_math.h **** 
4546:Components/Algorithm/Include/arm_math.h ****   void arm_correlate_f32(
4547:Components/Algorithm/Include/arm_math.h ****   float32_t * pSrcA,
4548:Components/Algorithm/Include/arm_math.h ****   uint32_t srcALen,
4549:Components/Algorithm/Include/arm_math.h ****   float32_t * pSrcB,
4550:Components/Algorithm/Include/arm_math.h ****   uint32_t srcBLen,
4551:Components/Algorithm/Include/arm_math.h ****   float32_t * pDst);
4552:Components/Algorithm/Include/arm_math.h **** 
4553:Components/Algorithm/Include/arm_math.h **** 
ARM GAS  C:\Users\86152\AppData\Local\Temp\ccWGVtEI.s 			page 165


4554:Components/Algorithm/Include/arm_math.h ****    /**
4555:Components/Algorithm/Include/arm_math.h ****    * @brief Correlation of Q15 sequences
4556:Components/Algorithm/Include/arm_math.h ****    * @param[in] *pSrcA points to the first input sequence.
4557:Components/Algorithm/Include/arm_math.h ****    * @param[in] srcALen length of the first input sequence.
4558:Components/Algorithm/Include/arm_math.h ****    * @param[in] *pSrcB points to the second input sequence.
4559:Components/Algorithm/Include/arm_math.h ****    * @param[in] srcBLen length of the second input sequence.
4560:Components/Algorithm/Include/arm_math.h ****    * @param[out] *pDst points to the block of output data  Length 2 * max(srcALen, srcBLen) - 1.
4561:Components/Algorithm/Include/arm_math.h ****    * @param[in]  *pScratch points to scratch buffer of size max(srcALen, srcBLen) + 2*min(srcALen, 
4562:Components/Algorithm/Include/arm_math.h ****    * @return none.
4563:Components/Algorithm/Include/arm_math.h ****    */
4564:Components/Algorithm/Include/arm_math.h ****   void arm_correlate_opt_q15(
4565:Components/Algorithm/Include/arm_math.h ****   q15_t * pSrcA,
4566:Components/Algorithm/Include/arm_math.h ****   uint32_t srcALen,
4567:Components/Algorithm/Include/arm_math.h ****   q15_t * pSrcB,
4568:Components/Algorithm/Include/arm_math.h ****   uint32_t srcBLen,
4569:Components/Algorithm/Include/arm_math.h ****   q15_t * pDst,
4570:Components/Algorithm/Include/arm_math.h ****   q15_t * pScratch);
4571:Components/Algorithm/Include/arm_math.h **** 
4572:Components/Algorithm/Include/arm_math.h **** 
4573:Components/Algorithm/Include/arm_math.h ****   /**
4574:Components/Algorithm/Include/arm_math.h ****    * @brief Correlation of Q15 sequences.
4575:Components/Algorithm/Include/arm_math.h ****    * @param[in] *pSrcA points to the first input sequence.
4576:Components/Algorithm/Include/arm_math.h ****    * @param[in] srcALen length of the first input sequence.
4577:Components/Algorithm/Include/arm_math.h ****    * @param[in] *pSrcB points to the second input sequence.
4578:Components/Algorithm/Include/arm_math.h ****    * @param[in] srcBLen length of the second input sequence.
4579:Components/Algorithm/Include/arm_math.h ****    * @param[out] *pDst points to the block of output data  Length 2 * max(srcALen, srcBLen) - 1.
4580:Components/Algorithm/Include/arm_math.h ****    * @return none.
4581:Components/Algorithm/Include/arm_math.h ****    */
4582:Components/Algorithm/Include/arm_math.h **** 
4583:Components/Algorithm/Include/arm_math.h ****   void arm_correlate_q15(
4584:Components/Algorithm/Include/arm_math.h ****   q15_t * pSrcA,
4585:Components/Algorithm/Include/arm_math.h ****   uint32_t srcALen,
4586:Components/Algorithm/Include/arm_math.h ****   q15_t * pSrcB,
4587:Components/Algorithm/Include/arm_math.h ****   uint32_t srcBLen,
4588:Components/Algorithm/Include/arm_math.h ****   q15_t * pDst);
4589:Components/Algorithm/Include/arm_math.h **** 
4590:Components/Algorithm/Include/arm_math.h ****   /**
4591:Components/Algorithm/Include/arm_math.h ****    * @brief Correlation of Q15 sequences (fast version) for Cortex-M3 and Cortex-M4.
4592:Components/Algorithm/Include/arm_math.h ****    * @param[in] *pSrcA points to the first input sequence.
4593:Components/Algorithm/Include/arm_math.h ****    * @param[in] srcALen length of the first input sequence.
4594:Components/Algorithm/Include/arm_math.h ****    * @param[in] *pSrcB points to the second input sequence.
4595:Components/Algorithm/Include/arm_math.h ****    * @param[in] srcBLen length of the second input sequence.
4596:Components/Algorithm/Include/arm_math.h ****    * @param[out] *pDst points to the block of output data  Length 2 * max(srcALen, srcBLen) - 1.
4597:Components/Algorithm/Include/arm_math.h ****    * @return none.
4598:Components/Algorithm/Include/arm_math.h ****    */
4599:Components/Algorithm/Include/arm_math.h **** 
4600:Components/Algorithm/Include/arm_math.h ****   void arm_correlate_fast_q15(
4601:Components/Algorithm/Include/arm_math.h **** 			       q15_t * pSrcA,
4602:Components/Algorithm/Include/arm_math.h **** 			      uint32_t srcALen,
4603:Components/Algorithm/Include/arm_math.h **** 			       q15_t * pSrcB,
4604:Components/Algorithm/Include/arm_math.h **** 			      uint32_t srcBLen,
4605:Components/Algorithm/Include/arm_math.h **** 			      q15_t * pDst);
4606:Components/Algorithm/Include/arm_math.h **** 
4607:Components/Algorithm/Include/arm_math.h **** 
4608:Components/Algorithm/Include/arm_math.h **** 
4609:Components/Algorithm/Include/arm_math.h ****   /**
4610:Components/Algorithm/Include/arm_math.h ****    * @brief Correlation of Q15 sequences (fast version) for Cortex-M3 and Cortex-M4.
ARM GAS  C:\Users\86152\AppData\Local\Temp\ccWGVtEI.s 			page 166


4611:Components/Algorithm/Include/arm_math.h ****    * @param[in] *pSrcA points to the first input sequence.
4612:Components/Algorithm/Include/arm_math.h ****    * @param[in] srcALen length of the first input sequence.
4613:Components/Algorithm/Include/arm_math.h ****    * @param[in] *pSrcB points to the second input sequence.
4614:Components/Algorithm/Include/arm_math.h ****    * @param[in] srcBLen length of the second input sequence.
4615:Components/Algorithm/Include/arm_math.h ****    * @param[out] *pDst points to the block of output data  Length 2 * max(srcALen, srcBLen) - 1.
4616:Components/Algorithm/Include/arm_math.h ****    * @param[in]  *pScratch points to scratch buffer of size max(srcALen, srcBLen) + 2*min(srcALen, 
4617:Components/Algorithm/Include/arm_math.h ****    * @return none.
4618:Components/Algorithm/Include/arm_math.h ****    */
4619:Components/Algorithm/Include/arm_math.h **** 
4620:Components/Algorithm/Include/arm_math.h ****   void arm_correlate_fast_opt_q15(
4621:Components/Algorithm/Include/arm_math.h ****   q15_t * pSrcA,
4622:Components/Algorithm/Include/arm_math.h ****   uint32_t srcALen,
4623:Components/Algorithm/Include/arm_math.h ****   q15_t * pSrcB,
4624:Components/Algorithm/Include/arm_math.h ****   uint32_t srcBLen,
4625:Components/Algorithm/Include/arm_math.h ****   q15_t * pDst,
4626:Components/Algorithm/Include/arm_math.h ****   q15_t * pScratch);
4627:Components/Algorithm/Include/arm_math.h **** 
4628:Components/Algorithm/Include/arm_math.h ****   /**
4629:Components/Algorithm/Include/arm_math.h ****    * @brief Correlation of Q31 sequences.
4630:Components/Algorithm/Include/arm_math.h ****    * @param[in] *pSrcA points to the first input sequence.
4631:Components/Algorithm/Include/arm_math.h ****    * @param[in] srcALen length of the first input sequence.
4632:Components/Algorithm/Include/arm_math.h ****    * @param[in] *pSrcB points to the second input sequence.
4633:Components/Algorithm/Include/arm_math.h ****    * @param[in] srcBLen length of the second input sequence.
4634:Components/Algorithm/Include/arm_math.h ****    * @param[out] *pDst points to the block of output data  Length 2 * max(srcALen, srcBLen) - 1.
4635:Components/Algorithm/Include/arm_math.h ****    * @return none.
4636:Components/Algorithm/Include/arm_math.h ****    */
4637:Components/Algorithm/Include/arm_math.h **** 
4638:Components/Algorithm/Include/arm_math.h ****   void arm_correlate_q31(
4639:Components/Algorithm/Include/arm_math.h ****   q31_t * pSrcA,
4640:Components/Algorithm/Include/arm_math.h ****   uint32_t srcALen,
4641:Components/Algorithm/Include/arm_math.h ****   q31_t * pSrcB,
4642:Components/Algorithm/Include/arm_math.h ****   uint32_t srcBLen,
4643:Components/Algorithm/Include/arm_math.h ****   q31_t * pDst);
4644:Components/Algorithm/Include/arm_math.h **** 
4645:Components/Algorithm/Include/arm_math.h ****   /**
4646:Components/Algorithm/Include/arm_math.h ****    * @brief Correlation of Q31 sequences (fast version) for Cortex-M3 and Cortex-M4
4647:Components/Algorithm/Include/arm_math.h ****    * @param[in] *pSrcA points to the first input sequence.
4648:Components/Algorithm/Include/arm_math.h ****    * @param[in] srcALen length of the first input sequence.
4649:Components/Algorithm/Include/arm_math.h ****    * @param[in] *pSrcB points to the second input sequence.
4650:Components/Algorithm/Include/arm_math.h ****    * @param[in] srcBLen length of the second input sequence.
4651:Components/Algorithm/Include/arm_math.h ****    * @param[out] *pDst points to the block of output data  Length 2 * max(srcALen, srcBLen) - 1.
4652:Components/Algorithm/Include/arm_math.h ****    * @return none.
4653:Components/Algorithm/Include/arm_math.h ****    */
4654:Components/Algorithm/Include/arm_math.h **** 
4655:Components/Algorithm/Include/arm_math.h ****   void arm_correlate_fast_q31(
4656:Components/Algorithm/Include/arm_math.h ****   q31_t * pSrcA,
4657:Components/Algorithm/Include/arm_math.h ****   uint32_t srcALen,
4658:Components/Algorithm/Include/arm_math.h ****   q31_t * pSrcB,
4659:Components/Algorithm/Include/arm_math.h ****   uint32_t srcBLen,
4660:Components/Algorithm/Include/arm_math.h ****   q31_t * pDst);
4661:Components/Algorithm/Include/arm_math.h **** 
4662:Components/Algorithm/Include/arm_math.h **** 
4663:Components/Algorithm/Include/arm_math.h **** 
4664:Components/Algorithm/Include/arm_math.h ****  /**
4665:Components/Algorithm/Include/arm_math.h ****    * @brief Correlation of Q7 sequences.
4666:Components/Algorithm/Include/arm_math.h ****    * @param[in] *pSrcA points to the first input sequence.
4667:Components/Algorithm/Include/arm_math.h ****    * @param[in] srcALen length of the first input sequence.
ARM GAS  C:\Users\86152\AppData\Local\Temp\ccWGVtEI.s 			page 167


4668:Components/Algorithm/Include/arm_math.h ****    * @param[in] *pSrcB points to the second input sequence.
4669:Components/Algorithm/Include/arm_math.h ****    * @param[in] srcBLen length of the second input sequence.
4670:Components/Algorithm/Include/arm_math.h ****    * @param[out] *pDst points to the block of output data  Length 2 * max(srcALen, srcBLen) - 1.
4671:Components/Algorithm/Include/arm_math.h ****    * @param[in]  *pScratch1 points to scratch buffer(of type q15_t) of size max(srcALen, srcBLen) +
4672:Components/Algorithm/Include/arm_math.h ****    * @param[in]  *pScratch2 points to scratch buffer (of type q15_t) of size min(srcALen, srcBLen).
4673:Components/Algorithm/Include/arm_math.h ****    * @return none.
4674:Components/Algorithm/Include/arm_math.h ****    */
4675:Components/Algorithm/Include/arm_math.h **** 
4676:Components/Algorithm/Include/arm_math.h ****   void arm_correlate_opt_q7(
4677:Components/Algorithm/Include/arm_math.h ****   q7_t * pSrcA,
4678:Components/Algorithm/Include/arm_math.h ****   uint32_t srcALen,
4679:Components/Algorithm/Include/arm_math.h ****   q7_t * pSrcB,
4680:Components/Algorithm/Include/arm_math.h ****   uint32_t srcBLen,
4681:Components/Algorithm/Include/arm_math.h ****   q7_t * pDst,
4682:Components/Algorithm/Include/arm_math.h ****   q15_t * pScratch1,
4683:Components/Algorithm/Include/arm_math.h ****   q15_t * pScratch2);
4684:Components/Algorithm/Include/arm_math.h **** 
4685:Components/Algorithm/Include/arm_math.h **** 
4686:Components/Algorithm/Include/arm_math.h ****   /**
4687:Components/Algorithm/Include/arm_math.h ****    * @brief Correlation of Q7 sequences.
4688:Components/Algorithm/Include/arm_math.h ****    * @param[in] *pSrcA points to the first input sequence.
4689:Components/Algorithm/Include/arm_math.h ****    * @param[in] srcALen length of the first input sequence.
4690:Components/Algorithm/Include/arm_math.h ****    * @param[in] *pSrcB points to the second input sequence.
4691:Components/Algorithm/Include/arm_math.h ****    * @param[in] srcBLen length of the second input sequence.
4692:Components/Algorithm/Include/arm_math.h ****    * @param[out] *pDst points to the block of output data  Length 2 * max(srcALen, srcBLen) - 1.
4693:Components/Algorithm/Include/arm_math.h ****    * @return none.
4694:Components/Algorithm/Include/arm_math.h ****    */
4695:Components/Algorithm/Include/arm_math.h **** 
4696:Components/Algorithm/Include/arm_math.h ****   void arm_correlate_q7(
4697:Components/Algorithm/Include/arm_math.h ****   q7_t * pSrcA,
4698:Components/Algorithm/Include/arm_math.h ****   uint32_t srcALen,
4699:Components/Algorithm/Include/arm_math.h ****   q7_t * pSrcB,
4700:Components/Algorithm/Include/arm_math.h ****   uint32_t srcBLen,
4701:Components/Algorithm/Include/arm_math.h ****   q7_t * pDst);
4702:Components/Algorithm/Include/arm_math.h **** 
4703:Components/Algorithm/Include/arm_math.h **** 
4704:Components/Algorithm/Include/arm_math.h ****   /**
4705:Components/Algorithm/Include/arm_math.h ****    * @brief Instance structure for the floating-point sparse FIR filter.
4706:Components/Algorithm/Include/arm_math.h ****    */
4707:Components/Algorithm/Include/arm_math.h ****   typedef struct
4708:Components/Algorithm/Include/arm_math.h ****   {
4709:Components/Algorithm/Include/arm_math.h ****     uint16_t numTaps;             /**< number of coefficients in the filter. */
4710:Components/Algorithm/Include/arm_math.h ****     uint16_t stateIndex;          /**< state buffer index.  Points to the oldest sample in the stat
4711:Components/Algorithm/Include/arm_math.h ****     float32_t *pState;            /**< points to the state buffer array. The array is of length max
4712:Components/Algorithm/Include/arm_math.h ****     float32_t *pCoeffs;           /**< points to the coefficient array. The array is of length numT
4713:Components/Algorithm/Include/arm_math.h ****     uint16_t maxDelay;            /**< maximum offset specified by the pTapDelay array. */
4714:Components/Algorithm/Include/arm_math.h ****     int32_t *pTapDelay;           /**< points to the array of delay values.  The array is of length
4715:Components/Algorithm/Include/arm_math.h ****   } arm_fir_sparse_instance_f32;
4716:Components/Algorithm/Include/arm_math.h **** 
4717:Components/Algorithm/Include/arm_math.h ****   /**
4718:Components/Algorithm/Include/arm_math.h ****    * @brief Instance structure for the Q31 sparse FIR filter.
4719:Components/Algorithm/Include/arm_math.h ****    */
4720:Components/Algorithm/Include/arm_math.h **** 
4721:Components/Algorithm/Include/arm_math.h ****   typedef struct
4722:Components/Algorithm/Include/arm_math.h ****   {
4723:Components/Algorithm/Include/arm_math.h ****     uint16_t numTaps;             /**< number of coefficients in the filter. */
4724:Components/Algorithm/Include/arm_math.h ****     uint16_t stateIndex;          /**< state buffer index.  Points to the oldest sample in the stat
ARM GAS  C:\Users\86152\AppData\Local\Temp\ccWGVtEI.s 			page 168


4725:Components/Algorithm/Include/arm_math.h ****     q31_t *pState;                /**< points to the state buffer array. The array is of length max
4726:Components/Algorithm/Include/arm_math.h ****     q31_t *pCoeffs;               /**< points to the coefficient array. The array is of length numT
4727:Components/Algorithm/Include/arm_math.h ****     uint16_t maxDelay;            /**< maximum offset specified by the pTapDelay array. */
4728:Components/Algorithm/Include/arm_math.h ****     int32_t *pTapDelay;           /**< points to the array of delay values.  The array is of length
4729:Components/Algorithm/Include/arm_math.h ****   } arm_fir_sparse_instance_q31;
4730:Components/Algorithm/Include/arm_math.h **** 
4731:Components/Algorithm/Include/arm_math.h ****   /**
4732:Components/Algorithm/Include/arm_math.h ****    * @brief Instance structure for the Q15 sparse FIR filter.
4733:Components/Algorithm/Include/arm_math.h ****    */
4734:Components/Algorithm/Include/arm_math.h **** 
4735:Components/Algorithm/Include/arm_math.h ****   typedef struct
4736:Components/Algorithm/Include/arm_math.h ****   {
4737:Components/Algorithm/Include/arm_math.h ****     uint16_t numTaps;             /**< number of coefficients in the filter. */
4738:Components/Algorithm/Include/arm_math.h ****     uint16_t stateIndex;          /**< state buffer index.  Points to the oldest sample in the stat
4739:Components/Algorithm/Include/arm_math.h ****     q15_t *pState;                /**< points to the state buffer array. The array is of length max
4740:Components/Algorithm/Include/arm_math.h ****     q15_t *pCoeffs;               /**< points to the coefficient array. The array is of length numT
4741:Components/Algorithm/Include/arm_math.h ****     uint16_t maxDelay;            /**< maximum offset specified by the pTapDelay array. */
4742:Components/Algorithm/Include/arm_math.h ****     int32_t *pTapDelay;           /**< points to the array of delay values.  The array is of length
4743:Components/Algorithm/Include/arm_math.h ****   } arm_fir_sparse_instance_q15;
4744:Components/Algorithm/Include/arm_math.h **** 
4745:Components/Algorithm/Include/arm_math.h ****   /**
4746:Components/Algorithm/Include/arm_math.h ****    * @brief Instance structure for the Q7 sparse FIR filter.
4747:Components/Algorithm/Include/arm_math.h ****    */
4748:Components/Algorithm/Include/arm_math.h **** 
4749:Components/Algorithm/Include/arm_math.h ****   typedef struct
4750:Components/Algorithm/Include/arm_math.h ****   {
4751:Components/Algorithm/Include/arm_math.h ****     uint16_t numTaps;             /**< number of coefficients in the filter. */
4752:Components/Algorithm/Include/arm_math.h ****     uint16_t stateIndex;          /**< state buffer index.  Points to the oldest sample in the stat
4753:Components/Algorithm/Include/arm_math.h ****     q7_t *pState;                 /**< points to the state buffer array. The array is of length max
4754:Components/Algorithm/Include/arm_math.h ****     q7_t *pCoeffs;                /**< points to the coefficient array. The array is of length numT
4755:Components/Algorithm/Include/arm_math.h ****     uint16_t maxDelay;            /**< maximum offset specified by the pTapDelay array. */
4756:Components/Algorithm/Include/arm_math.h ****     int32_t *pTapDelay;           /**< points to the array of delay values.  The array is of length
4757:Components/Algorithm/Include/arm_math.h ****   } arm_fir_sparse_instance_q7;
4758:Components/Algorithm/Include/arm_math.h **** 
4759:Components/Algorithm/Include/arm_math.h ****   /**
4760:Components/Algorithm/Include/arm_math.h ****    * @brief Processing function for the floating-point sparse FIR filter.
4761:Components/Algorithm/Include/arm_math.h ****    * @param[in]  *S          points to an instance of the floating-point sparse FIR structure.
4762:Components/Algorithm/Include/arm_math.h ****    * @param[in]  *pSrc       points to the block of input data.
4763:Components/Algorithm/Include/arm_math.h ****    * @param[out] *pDst       points to the block of output data
4764:Components/Algorithm/Include/arm_math.h ****    * @param[in]  *pScratchIn points to a temporary buffer of size blockSize.
4765:Components/Algorithm/Include/arm_math.h ****    * @param[in]  blockSize   number of input samples to process per call.
4766:Components/Algorithm/Include/arm_math.h ****    * @return none.
4767:Components/Algorithm/Include/arm_math.h ****    */
4768:Components/Algorithm/Include/arm_math.h **** 
4769:Components/Algorithm/Include/arm_math.h ****   void arm_fir_sparse_f32(
4770:Components/Algorithm/Include/arm_math.h ****   arm_fir_sparse_instance_f32 * S,
4771:Components/Algorithm/Include/arm_math.h ****   float32_t * pSrc,
4772:Components/Algorithm/Include/arm_math.h ****   float32_t * pDst,
4773:Components/Algorithm/Include/arm_math.h ****   float32_t * pScratchIn,
4774:Components/Algorithm/Include/arm_math.h ****   uint32_t blockSize);
4775:Components/Algorithm/Include/arm_math.h **** 
4776:Components/Algorithm/Include/arm_math.h ****   /**
4777:Components/Algorithm/Include/arm_math.h ****    * @brief  Initialization function for the floating-point sparse FIR filter.
4778:Components/Algorithm/Include/arm_math.h ****    * @param[in,out] *S         points to an instance of the floating-point sparse FIR structure.
4779:Components/Algorithm/Include/arm_math.h ****    * @param[in]     numTaps    number of nonzero coefficients in the filter.
4780:Components/Algorithm/Include/arm_math.h ****    * @param[in]     *pCoeffs   points to the array of filter coefficients.
4781:Components/Algorithm/Include/arm_math.h ****    * @param[in]     *pState    points to the state buffer.
ARM GAS  C:\Users\86152\AppData\Local\Temp\ccWGVtEI.s 			page 169


4782:Components/Algorithm/Include/arm_math.h ****    * @param[in]     *pTapDelay points to the array of offset times.
4783:Components/Algorithm/Include/arm_math.h ****    * @param[in]     maxDelay   maximum offset time supported.
4784:Components/Algorithm/Include/arm_math.h ****    * @param[in]     blockSize  number of samples that will be processed per block.
4785:Components/Algorithm/Include/arm_math.h ****    * @return none
4786:Components/Algorithm/Include/arm_math.h ****    */
4787:Components/Algorithm/Include/arm_math.h **** 
4788:Components/Algorithm/Include/arm_math.h ****   void arm_fir_sparse_init_f32(
4789:Components/Algorithm/Include/arm_math.h ****   arm_fir_sparse_instance_f32 * S,
4790:Components/Algorithm/Include/arm_math.h ****   uint16_t numTaps,
4791:Components/Algorithm/Include/arm_math.h ****   float32_t * pCoeffs,
4792:Components/Algorithm/Include/arm_math.h ****   float32_t * pState,
4793:Components/Algorithm/Include/arm_math.h ****   int32_t * pTapDelay,
4794:Components/Algorithm/Include/arm_math.h ****   uint16_t maxDelay,
4795:Components/Algorithm/Include/arm_math.h ****   uint32_t blockSize);
4796:Components/Algorithm/Include/arm_math.h **** 
4797:Components/Algorithm/Include/arm_math.h ****   /**
4798:Components/Algorithm/Include/arm_math.h ****    * @brief Processing function for the Q31 sparse FIR filter.
4799:Components/Algorithm/Include/arm_math.h ****    * @param[in]  *S          points to an instance of the Q31 sparse FIR structure.
4800:Components/Algorithm/Include/arm_math.h ****    * @param[in]  *pSrc       points to the block of input data.
4801:Components/Algorithm/Include/arm_math.h ****    * @param[out] *pDst       points to the block of output data
4802:Components/Algorithm/Include/arm_math.h ****    * @param[in]  *pScratchIn points to a temporary buffer of size blockSize.
4803:Components/Algorithm/Include/arm_math.h ****    * @param[in]  blockSize   number of input samples to process per call.
4804:Components/Algorithm/Include/arm_math.h ****    * @return none.
4805:Components/Algorithm/Include/arm_math.h ****    */
4806:Components/Algorithm/Include/arm_math.h **** 
4807:Components/Algorithm/Include/arm_math.h ****   void arm_fir_sparse_q31(
4808:Components/Algorithm/Include/arm_math.h ****   arm_fir_sparse_instance_q31 * S,
4809:Components/Algorithm/Include/arm_math.h ****   q31_t * pSrc,
4810:Components/Algorithm/Include/arm_math.h ****   q31_t * pDst,
4811:Components/Algorithm/Include/arm_math.h ****   q31_t * pScratchIn,
4812:Components/Algorithm/Include/arm_math.h ****   uint32_t blockSize);
4813:Components/Algorithm/Include/arm_math.h **** 
4814:Components/Algorithm/Include/arm_math.h ****   /**
4815:Components/Algorithm/Include/arm_math.h ****    * @brief  Initialization function for the Q31 sparse FIR filter.
4816:Components/Algorithm/Include/arm_math.h ****    * @param[in,out] *S         points to an instance of the Q31 sparse FIR structure.
4817:Components/Algorithm/Include/arm_math.h ****    * @param[in]     numTaps    number of nonzero coefficients in the filter.
4818:Components/Algorithm/Include/arm_math.h ****    * @param[in]     *pCoeffs   points to the array of filter coefficients.
4819:Components/Algorithm/Include/arm_math.h ****    * @param[in]     *pState    points to the state buffer.
4820:Components/Algorithm/Include/arm_math.h ****    * @param[in]     *pTapDelay points to the array of offset times.
4821:Components/Algorithm/Include/arm_math.h ****    * @param[in]     maxDelay   maximum offset time supported.
4822:Components/Algorithm/Include/arm_math.h ****    * @param[in]     blockSize  number of samples that will be processed per block.
4823:Components/Algorithm/Include/arm_math.h ****    * @return none
4824:Components/Algorithm/Include/arm_math.h ****    */
4825:Components/Algorithm/Include/arm_math.h **** 
4826:Components/Algorithm/Include/arm_math.h ****   void arm_fir_sparse_init_q31(
4827:Components/Algorithm/Include/arm_math.h ****   arm_fir_sparse_instance_q31 * S,
4828:Components/Algorithm/Include/arm_math.h ****   uint16_t numTaps,
4829:Components/Algorithm/Include/arm_math.h ****   q31_t * pCoeffs,
4830:Components/Algorithm/Include/arm_math.h ****   q31_t * pState,
4831:Components/Algorithm/Include/arm_math.h ****   int32_t * pTapDelay,
4832:Components/Algorithm/Include/arm_math.h ****   uint16_t maxDelay,
4833:Components/Algorithm/Include/arm_math.h ****   uint32_t blockSize);
4834:Components/Algorithm/Include/arm_math.h **** 
4835:Components/Algorithm/Include/arm_math.h ****   /**
4836:Components/Algorithm/Include/arm_math.h ****    * @brief Processing function for the Q15 sparse FIR filter.
4837:Components/Algorithm/Include/arm_math.h ****    * @param[in]  *S           points to an instance of the Q15 sparse FIR structure.
4838:Components/Algorithm/Include/arm_math.h ****    * @param[in]  *pSrc        points to the block of input data.
ARM GAS  C:\Users\86152\AppData\Local\Temp\ccWGVtEI.s 			page 170


4839:Components/Algorithm/Include/arm_math.h ****    * @param[out] *pDst        points to the block of output data
4840:Components/Algorithm/Include/arm_math.h ****    * @param[in]  *pScratchIn  points to a temporary buffer of size blockSize.
4841:Components/Algorithm/Include/arm_math.h ****    * @param[in]  *pScratchOut points to a temporary buffer of size blockSize.
4842:Components/Algorithm/Include/arm_math.h ****    * @param[in]  blockSize    number of input samples to process per call.
4843:Components/Algorithm/Include/arm_math.h ****    * @return none.
4844:Components/Algorithm/Include/arm_math.h ****    */
4845:Components/Algorithm/Include/arm_math.h **** 
4846:Components/Algorithm/Include/arm_math.h ****   void arm_fir_sparse_q15(
4847:Components/Algorithm/Include/arm_math.h ****   arm_fir_sparse_instance_q15 * S,
4848:Components/Algorithm/Include/arm_math.h ****   q15_t * pSrc,
4849:Components/Algorithm/Include/arm_math.h ****   q15_t * pDst,
4850:Components/Algorithm/Include/arm_math.h ****   q15_t * pScratchIn,
4851:Components/Algorithm/Include/arm_math.h ****   q31_t * pScratchOut,
4852:Components/Algorithm/Include/arm_math.h ****   uint32_t blockSize);
4853:Components/Algorithm/Include/arm_math.h **** 
4854:Components/Algorithm/Include/arm_math.h **** 
4855:Components/Algorithm/Include/arm_math.h ****   /**
4856:Components/Algorithm/Include/arm_math.h ****    * @brief  Initialization function for the Q15 sparse FIR filter.
4857:Components/Algorithm/Include/arm_math.h ****    * @param[in,out] *S         points to an instance of the Q15 sparse FIR structure.
4858:Components/Algorithm/Include/arm_math.h ****    * @param[in]     numTaps    number of nonzero coefficients in the filter.
4859:Components/Algorithm/Include/arm_math.h ****    * @param[in]     *pCoeffs   points to the array of filter coefficients.
4860:Components/Algorithm/Include/arm_math.h ****    * @param[in]     *pState    points to the state buffer.
4861:Components/Algorithm/Include/arm_math.h ****    * @param[in]     *pTapDelay points to the array of offset times.
4862:Components/Algorithm/Include/arm_math.h ****    * @param[in]     maxDelay   maximum offset time supported.
4863:Components/Algorithm/Include/arm_math.h ****    * @param[in]     blockSize  number of samples that will be processed per block.
4864:Components/Algorithm/Include/arm_math.h ****    * @return none
4865:Components/Algorithm/Include/arm_math.h ****    */
4866:Components/Algorithm/Include/arm_math.h **** 
4867:Components/Algorithm/Include/arm_math.h ****   void arm_fir_sparse_init_q15(
4868:Components/Algorithm/Include/arm_math.h ****   arm_fir_sparse_instance_q15 * S,
4869:Components/Algorithm/Include/arm_math.h ****   uint16_t numTaps,
4870:Components/Algorithm/Include/arm_math.h ****   q15_t * pCoeffs,
4871:Components/Algorithm/Include/arm_math.h ****   q15_t * pState,
4872:Components/Algorithm/Include/arm_math.h ****   int32_t * pTapDelay,
4873:Components/Algorithm/Include/arm_math.h ****   uint16_t maxDelay,
4874:Components/Algorithm/Include/arm_math.h ****   uint32_t blockSize);
4875:Components/Algorithm/Include/arm_math.h **** 
4876:Components/Algorithm/Include/arm_math.h ****   /**
4877:Components/Algorithm/Include/arm_math.h ****    * @brief Processing function for the Q7 sparse FIR filter.
4878:Components/Algorithm/Include/arm_math.h ****    * @param[in]  *S           points to an instance of the Q7 sparse FIR structure.
4879:Components/Algorithm/Include/arm_math.h ****    * @param[in]  *pSrc        points to the block of input data.
4880:Components/Algorithm/Include/arm_math.h ****    * @param[out] *pDst        points to the block of output data
4881:Components/Algorithm/Include/arm_math.h ****    * @param[in]  *pScratchIn  points to a temporary buffer of size blockSize.
4882:Components/Algorithm/Include/arm_math.h ****    * @param[in]  *pScratchOut points to a temporary buffer of size blockSize.
4883:Components/Algorithm/Include/arm_math.h ****    * @param[in]  blockSize    number of input samples to process per call.
4884:Components/Algorithm/Include/arm_math.h ****    * @return none.
4885:Components/Algorithm/Include/arm_math.h ****    */
4886:Components/Algorithm/Include/arm_math.h **** 
4887:Components/Algorithm/Include/arm_math.h ****   void arm_fir_sparse_q7(
4888:Components/Algorithm/Include/arm_math.h ****   arm_fir_sparse_instance_q7 * S,
4889:Components/Algorithm/Include/arm_math.h ****   q7_t * pSrc,
4890:Components/Algorithm/Include/arm_math.h ****   q7_t * pDst,
4891:Components/Algorithm/Include/arm_math.h ****   q7_t * pScratchIn,
4892:Components/Algorithm/Include/arm_math.h ****   q31_t * pScratchOut,
4893:Components/Algorithm/Include/arm_math.h ****   uint32_t blockSize);
4894:Components/Algorithm/Include/arm_math.h **** 
4895:Components/Algorithm/Include/arm_math.h ****   /**
ARM GAS  C:\Users\86152\AppData\Local\Temp\ccWGVtEI.s 			page 171


4896:Components/Algorithm/Include/arm_math.h ****    * @brief  Initialization function for the Q7 sparse FIR filter.
4897:Components/Algorithm/Include/arm_math.h ****    * @param[in,out] *S         points to an instance of the Q7 sparse FIR structure.
4898:Components/Algorithm/Include/arm_math.h ****    * @param[in]     numTaps    number of nonzero coefficients in the filter.
4899:Components/Algorithm/Include/arm_math.h ****    * @param[in]     *pCoeffs   points to the array of filter coefficients.
4900:Components/Algorithm/Include/arm_math.h ****    * @param[in]     *pState    points to the state buffer.
4901:Components/Algorithm/Include/arm_math.h ****    * @param[in]     *pTapDelay points to the array of offset times.
4902:Components/Algorithm/Include/arm_math.h ****    * @param[in]     maxDelay   maximum offset time supported.
4903:Components/Algorithm/Include/arm_math.h ****    * @param[in]     blockSize  number of samples that will be processed per block.
4904:Components/Algorithm/Include/arm_math.h ****    * @return none
4905:Components/Algorithm/Include/arm_math.h ****    */
4906:Components/Algorithm/Include/arm_math.h **** 
4907:Components/Algorithm/Include/arm_math.h ****   void arm_fir_sparse_init_q7(
4908:Components/Algorithm/Include/arm_math.h ****   arm_fir_sparse_instance_q7 * S,
4909:Components/Algorithm/Include/arm_math.h ****   uint16_t numTaps,
4910:Components/Algorithm/Include/arm_math.h ****   q7_t * pCoeffs,
4911:Components/Algorithm/Include/arm_math.h ****   q7_t * pState,
4912:Components/Algorithm/Include/arm_math.h ****   int32_t * pTapDelay,
4913:Components/Algorithm/Include/arm_math.h ****   uint16_t maxDelay,
4914:Components/Algorithm/Include/arm_math.h ****   uint32_t blockSize);
4915:Components/Algorithm/Include/arm_math.h **** 
4916:Components/Algorithm/Include/arm_math.h **** 
4917:Components/Algorithm/Include/arm_math.h ****   /*
4918:Components/Algorithm/Include/arm_math.h ****    * @brief  Floating-point sin_cos function.
4919:Components/Algorithm/Include/arm_math.h ****    * @param[in]  theta    input value in degrees
4920:Components/Algorithm/Include/arm_math.h ****    * @param[out] *pSinVal points to the processed sine output.
4921:Components/Algorithm/Include/arm_math.h ****    * @param[out] *pCosVal points to the processed cos output.
4922:Components/Algorithm/Include/arm_math.h ****    * @return none.
4923:Components/Algorithm/Include/arm_math.h ****    */
4924:Components/Algorithm/Include/arm_math.h **** 
4925:Components/Algorithm/Include/arm_math.h ****   void arm_sin_cos_f32(
4926:Components/Algorithm/Include/arm_math.h ****   float32_t theta,
4927:Components/Algorithm/Include/arm_math.h ****   float32_t * pSinVal,
4928:Components/Algorithm/Include/arm_math.h ****   float32_t * pCcosVal);
4929:Components/Algorithm/Include/arm_math.h **** 
4930:Components/Algorithm/Include/arm_math.h ****   /*
4931:Components/Algorithm/Include/arm_math.h ****    * @brief  Q31 sin_cos function.
4932:Components/Algorithm/Include/arm_math.h ****    * @param[in]  theta    scaled input value in degrees
4933:Components/Algorithm/Include/arm_math.h ****    * @param[out] *pSinVal points to the processed sine output.
4934:Components/Algorithm/Include/arm_math.h ****    * @param[out] *pCosVal points to the processed cosine output.
4935:Components/Algorithm/Include/arm_math.h ****    * @return none.
4936:Components/Algorithm/Include/arm_math.h ****    */
4937:Components/Algorithm/Include/arm_math.h **** 
4938:Components/Algorithm/Include/arm_math.h ****   void arm_sin_cos_q31(
4939:Components/Algorithm/Include/arm_math.h ****   q31_t theta,
4940:Components/Algorithm/Include/arm_math.h ****   q31_t * pSinVal,
4941:Components/Algorithm/Include/arm_math.h ****   q31_t * pCosVal);
4942:Components/Algorithm/Include/arm_math.h **** 
4943:Components/Algorithm/Include/arm_math.h **** 
4944:Components/Algorithm/Include/arm_math.h ****   /**
4945:Components/Algorithm/Include/arm_math.h ****    * @brief  Floating-point complex conjugate.
4946:Components/Algorithm/Include/arm_math.h ****    * @param[in]  *pSrc points to the input vector
4947:Components/Algorithm/Include/arm_math.h ****    * @param[out]  *pDst points to the output vector
4948:Components/Algorithm/Include/arm_math.h ****    * @param[in]  numSamples number of complex samples in each vector
4949:Components/Algorithm/Include/arm_math.h ****    * @return none.
4950:Components/Algorithm/Include/arm_math.h ****    */
4951:Components/Algorithm/Include/arm_math.h **** 
4952:Components/Algorithm/Include/arm_math.h ****   void arm_cmplx_conj_f32(
ARM GAS  C:\Users\86152\AppData\Local\Temp\ccWGVtEI.s 			page 172


4953:Components/Algorithm/Include/arm_math.h ****   float32_t * pSrc,
4954:Components/Algorithm/Include/arm_math.h ****   float32_t * pDst,
4955:Components/Algorithm/Include/arm_math.h ****   uint32_t numSamples);
4956:Components/Algorithm/Include/arm_math.h **** 
4957:Components/Algorithm/Include/arm_math.h ****   /**
4958:Components/Algorithm/Include/arm_math.h ****    * @brief  Q31 complex conjugate.
4959:Components/Algorithm/Include/arm_math.h ****    * @param[in]  *pSrc points to the input vector
4960:Components/Algorithm/Include/arm_math.h ****    * @param[out]  *pDst points to the output vector
4961:Components/Algorithm/Include/arm_math.h ****    * @param[in]  numSamples number of complex samples in each vector
4962:Components/Algorithm/Include/arm_math.h ****    * @return none.
4963:Components/Algorithm/Include/arm_math.h ****    */
4964:Components/Algorithm/Include/arm_math.h **** 
4965:Components/Algorithm/Include/arm_math.h ****   void arm_cmplx_conj_q31(
4966:Components/Algorithm/Include/arm_math.h ****   q31_t * pSrc,
4967:Components/Algorithm/Include/arm_math.h ****   q31_t * pDst,
4968:Components/Algorithm/Include/arm_math.h ****   uint32_t numSamples);
4969:Components/Algorithm/Include/arm_math.h **** 
4970:Components/Algorithm/Include/arm_math.h ****   /**
4971:Components/Algorithm/Include/arm_math.h ****    * @brief  Q15 complex conjugate.
4972:Components/Algorithm/Include/arm_math.h ****    * @param[in]  *pSrc points to the input vector
4973:Components/Algorithm/Include/arm_math.h ****    * @param[out]  *pDst points to the output vector
4974:Components/Algorithm/Include/arm_math.h ****    * @param[in]  numSamples number of complex samples in each vector
4975:Components/Algorithm/Include/arm_math.h ****    * @return none.
4976:Components/Algorithm/Include/arm_math.h ****    */
4977:Components/Algorithm/Include/arm_math.h **** 
4978:Components/Algorithm/Include/arm_math.h ****   void arm_cmplx_conj_q15(
4979:Components/Algorithm/Include/arm_math.h ****   q15_t * pSrc,
4980:Components/Algorithm/Include/arm_math.h ****   q15_t * pDst,
4981:Components/Algorithm/Include/arm_math.h ****   uint32_t numSamples);
4982:Components/Algorithm/Include/arm_math.h **** 
4983:Components/Algorithm/Include/arm_math.h **** 
4984:Components/Algorithm/Include/arm_math.h **** 
4985:Components/Algorithm/Include/arm_math.h ****   /**
4986:Components/Algorithm/Include/arm_math.h ****    * @brief  Floating-point complex magnitude squared
4987:Components/Algorithm/Include/arm_math.h ****    * @param[in]  *pSrc points to the complex input vector
4988:Components/Algorithm/Include/arm_math.h ****    * @param[out]  *pDst points to the real output vector
4989:Components/Algorithm/Include/arm_math.h ****    * @param[in]  numSamples number of complex samples in the input vector
4990:Components/Algorithm/Include/arm_math.h ****    * @return none.
4991:Components/Algorithm/Include/arm_math.h ****    */
4992:Components/Algorithm/Include/arm_math.h **** 
4993:Components/Algorithm/Include/arm_math.h ****   void arm_cmplx_mag_squared_f32(
4994:Components/Algorithm/Include/arm_math.h ****   float32_t * pSrc,
4995:Components/Algorithm/Include/arm_math.h ****   float32_t * pDst,
4996:Components/Algorithm/Include/arm_math.h ****   uint32_t numSamples);
4997:Components/Algorithm/Include/arm_math.h **** 
4998:Components/Algorithm/Include/arm_math.h ****   /**
4999:Components/Algorithm/Include/arm_math.h ****    * @brief  Q31 complex magnitude squared
5000:Components/Algorithm/Include/arm_math.h ****    * @param[in]  *pSrc points to the complex input vector
5001:Components/Algorithm/Include/arm_math.h ****    * @param[out]  *pDst points to the real output vector
5002:Components/Algorithm/Include/arm_math.h ****    * @param[in]  numSamples number of complex samples in the input vector
5003:Components/Algorithm/Include/arm_math.h ****    * @return none.
5004:Components/Algorithm/Include/arm_math.h ****    */
5005:Components/Algorithm/Include/arm_math.h **** 
5006:Components/Algorithm/Include/arm_math.h ****   void arm_cmplx_mag_squared_q31(
5007:Components/Algorithm/Include/arm_math.h ****   q31_t * pSrc,
5008:Components/Algorithm/Include/arm_math.h ****   q31_t * pDst,
5009:Components/Algorithm/Include/arm_math.h ****   uint32_t numSamples);
ARM GAS  C:\Users\86152\AppData\Local\Temp\ccWGVtEI.s 			page 173


5010:Components/Algorithm/Include/arm_math.h **** 
5011:Components/Algorithm/Include/arm_math.h ****   /**
5012:Components/Algorithm/Include/arm_math.h ****    * @brief  Q15 complex magnitude squared
5013:Components/Algorithm/Include/arm_math.h ****    * @param[in]  *pSrc points to the complex input vector
5014:Components/Algorithm/Include/arm_math.h ****    * @param[out]  *pDst points to the real output vector
5015:Components/Algorithm/Include/arm_math.h ****    * @param[in]  numSamples number of complex samples in the input vector
5016:Components/Algorithm/Include/arm_math.h ****    * @return none.
5017:Components/Algorithm/Include/arm_math.h ****    */
5018:Components/Algorithm/Include/arm_math.h **** 
5019:Components/Algorithm/Include/arm_math.h ****   void arm_cmplx_mag_squared_q15(
5020:Components/Algorithm/Include/arm_math.h ****   q15_t * pSrc,
5021:Components/Algorithm/Include/arm_math.h ****   q15_t * pDst,
5022:Components/Algorithm/Include/arm_math.h ****   uint32_t numSamples);
5023:Components/Algorithm/Include/arm_math.h **** 
5024:Components/Algorithm/Include/arm_math.h **** 
5025:Components/Algorithm/Include/arm_math.h ****  /**
5026:Components/Algorithm/Include/arm_math.h ****    * @ingroup groupController
5027:Components/Algorithm/Include/arm_math.h ****    */
5028:Components/Algorithm/Include/arm_math.h **** 
5029:Components/Algorithm/Include/arm_math.h ****   /**
5030:Components/Algorithm/Include/arm_math.h ****    * @defgroup PID PID Motor Control
5031:Components/Algorithm/Include/arm_math.h ****    *
5032:Components/Algorithm/Include/arm_math.h ****    * A Proportional Integral Derivative (PID) controller is a generic feedback control
5033:Components/Algorithm/Include/arm_math.h ****    * loop mechanism widely used in industrial control systems.
5034:Components/Algorithm/Include/arm_math.h ****    * A PID controller is the most commonly used type of feedback controller.
5035:Components/Algorithm/Include/arm_math.h ****    *
5036:Components/Algorithm/Include/arm_math.h ****    * This set of functions implements (PID) controllers
5037:Components/Algorithm/Include/arm_math.h ****    * for Q15, Q31, and floating-point data types.  The functions operate on a single sample
5038:Components/Algorithm/Include/arm_math.h ****    * of data and each call to the function returns a single processed value.
5039:Components/Algorithm/Include/arm_math.h ****    * <code>S</code> points to an instance of the PID control data structure.  <code>in</code>
5040:Components/Algorithm/Include/arm_math.h ****    * is the input sample value. The functions return the output value.
5041:Components/Algorithm/Include/arm_math.h ****    *
5042:Components/Algorithm/Include/arm_math.h ****    * \par Algorithm:
5043:Components/Algorithm/Include/arm_math.h ****    * <pre>
5044:Components/Algorithm/Include/arm_math.h ****    *    y[n] = y[n-1] + A0 * x[n] + A1 * x[n-1] + A2 * x[n-2]
5045:Components/Algorithm/Include/arm_math.h ****    *    A0 = Kp + Ki + Kd
5046:Components/Algorithm/Include/arm_math.h ****    *    A1 = (-Kp ) - (2 * Kd )
5047:Components/Algorithm/Include/arm_math.h ****    *    A2 = Kd  </pre>
5048:Components/Algorithm/Include/arm_math.h ****    *
5049:Components/Algorithm/Include/arm_math.h ****    * \par
5050:Components/Algorithm/Include/arm_math.h ****    * where \c Kp is proportional constant, \c Ki is Integral constant and \c Kd is Derivative const
5051:Components/Algorithm/Include/arm_math.h ****    *
5052:Components/Algorithm/Include/arm_math.h ****    * \par
5053:Components/Algorithm/Include/arm_math.h ****    * \image html PID.gif "Proportional Integral Derivative Controller"
5054:Components/Algorithm/Include/arm_math.h ****    *
5055:Components/Algorithm/Include/arm_math.h ****    * \par
5056:Components/Algorithm/Include/arm_math.h ****    * The PID controller calculates an "error" value as the difference between
5057:Components/Algorithm/Include/arm_math.h ****    * the measured output and the reference input.
5058:Components/Algorithm/Include/arm_math.h ****    * The controller attempts to minimize the error by adjusting the process control inputs.
5059:Components/Algorithm/Include/arm_math.h ****    * The proportional value determines the reaction to the current error,
5060:Components/Algorithm/Include/arm_math.h ****    * the integral value determines the reaction based on the sum of recent errors,
5061:Components/Algorithm/Include/arm_math.h ****    * and the derivative value determines the reaction based on the rate at which the error has been
5062:Components/Algorithm/Include/arm_math.h ****    *
5063:Components/Algorithm/Include/arm_math.h ****    * \par Instance Structure
5064:Components/Algorithm/Include/arm_math.h ****    * The Gains A0, A1, A2 and state variables for a PID controller are stored together in an instan
5065:Components/Algorithm/Include/arm_math.h ****    * A separate instance structure must be defined for each PID Controller.
5066:Components/Algorithm/Include/arm_math.h ****    * There are separate instance structure declarations for each of the 3 supported data types.
ARM GAS  C:\Users\86152\AppData\Local\Temp\ccWGVtEI.s 			page 174


5067:Components/Algorithm/Include/arm_math.h ****    *
5068:Components/Algorithm/Include/arm_math.h ****    * \par Reset Functions
5069:Components/Algorithm/Include/arm_math.h ****    * There is also an associated reset function for each data type which clears the state array.
5070:Components/Algorithm/Include/arm_math.h ****    *
5071:Components/Algorithm/Include/arm_math.h ****    * \par Initialization Functions
5072:Components/Algorithm/Include/arm_math.h ****    * There is also an associated initialization function for each data type.
5073:Components/Algorithm/Include/arm_math.h ****    * The initialization function performs the following operations:
5074:Components/Algorithm/Include/arm_math.h ****    * - Initializes the Gains A0, A1, A2 from Kp,Ki, Kd gains.
5075:Components/Algorithm/Include/arm_math.h ****    * - Zeros out the values in the state buffer.
5076:Components/Algorithm/Include/arm_math.h ****    *
5077:Components/Algorithm/Include/arm_math.h ****    * \par
5078:Components/Algorithm/Include/arm_math.h ****    * Instance structure cannot be placed into a const data section and it is recommended to use the
5079:Components/Algorithm/Include/arm_math.h ****    *
5080:Components/Algorithm/Include/arm_math.h ****    * \par Fixed-Point Behavior
5081:Components/Algorithm/Include/arm_math.h ****    * Care must be taken when using the fixed-point versions of the PID Controller functions.
5082:Components/Algorithm/Include/arm_math.h ****    * In particular, the overflow and saturation behavior of the accumulator used in each function m
5083:Components/Algorithm/Include/arm_math.h ****    * Refer to the function specific documentation below for usage guidelines.
5084:Components/Algorithm/Include/arm_math.h ****    */
5085:Components/Algorithm/Include/arm_math.h **** 
5086:Components/Algorithm/Include/arm_math.h ****   /**
5087:Components/Algorithm/Include/arm_math.h ****    * @addtogroup PID
5088:Components/Algorithm/Include/arm_math.h ****    * @{
5089:Components/Algorithm/Include/arm_math.h ****    */
5090:Components/Algorithm/Include/arm_math.h **** 
5091:Components/Algorithm/Include/arm_math.h ****   /**
5092:Components/Algorithm/Include/arm_math.h ****    * @brief  Process function for the floating-point PID Control.
5093:Components/Algorithm/Include/arm_math.h ****    * @param[in,out] *S is an instance of the floating-point PID Control structure
5094:Components/Algorithm/Include/arm_math.h ****    * @param[in] in input sample to process
5095:Components/Algorithm/Include/arm_math.h ****    * @return out processed output sample.
5096:Components/Algorithm/Include/arm_math.h ****    */
5097:Components/Algorithm/Include/arm_math.h **** 
5098:Components/Algorithm/Include/arm_math.h **** 
5099:Components/Algorithm/Include/arm_math.h ****   static __INLINE float32_t arm_pid_f32(
5100:Components/Algorithm/Include/arm_math.h ****   arm_pid_instance_f32 * S,
5101:Components/Algorithm/Include/arm_math.h ****   float32_t in)
5102:Components/Algorithm/Include/arm_math.h ****   {
5103:Components/Algorithm/Include/arm_math.h ****     float32_t out;
5104:Components/Algorithm/Include/arm_math.h **** 
5105:Components/Algorithm/Include/arm_math.h ****     /* y[n] = y[n-1] + A0 * x[n] + A1 * x[n-1] + A2 * x[n-2]  */
5106:Components/Algorithm/Include/arm_math.h ****     out = (S->A0 * in) +
5107:Components/Algorithm/Include/arm_math.h ****       (S->A1 * S->state[0]) + (S->A2 * S->state[1]) + (S->state[2]);
5108:Components/Algorithm/Include/arm_math.h **** 
5109:Components/Algorithm/Include/arm_math.h ****     /* Update state */
5110:Components/Algorithm/Include/arm_math.h ****     S->state[1] = S->state[0];
5111:Components/Algorithm/Include/arm_math.h ****     S->state[0] = in;
5112:Components/Algorithm/Include/arm_math.h ****     S->state[2] = out;
5113:Components/Algorithm/Include/arm_math.h **** 
5114:Components/Algorithm/Include/arm_math.h ****     /* return to application */
5115:Components/Algorithm/Include/arm_math.h ****     return (out);
5116:Components/Algorithm/Include/arm_math.h **** 
5117:Components/Algorithm/Include/arm_math.h ****   }
5118:Components/Algorithm/Include/arm_math.h **** 
5119:Components/Algorithm/Include/arm_math.h ****   /**
5120:Components/Algorithm/Include/arm_math.h ****    * @brief  Process function for the Q31 PID Control.
5121:Components/Algorithm/Include/arm_math.h ****    * @param[in,out] *S points to an instance of the Q31 PID Control structure
5122:Components/Algorithm/Include/arm_math.h ****    * @param[in] in input sample to process
5123:Components/Algorithm/Include/arm_math.h ****    * @return out processed output sample.
ARM GAS  C:\Users\86152\AppData\Local\Temp\ccWGVtEI.s 			page 175


5124:Components/Algorithm/Include/arm_math.h ****    *
5125:Components/Algorithm/Include/arm_math.h ****    * <b>Scaling and Overflow Behavior:</b>
5126:Components/Algorithm/Include/arm_math.h ****    * \par
5127:Components/Algorithm/Include/arm_math.h ****    * The function is implemented using an internal 64-bit accumulator.
5128:Components/Algorithm/Include/arm_math.h ****    * The accumulator has a 2.62 format and maintains full precision of the intermediate multiplicat
5129:Components/Algorithm/Include/arm_math.h ****    * Thus, if the accumulator result overflows it wraps around rather than clip.
5130:Components/Algorithm/Include/arm_math.h ****    * In order to avoid overflows completely the input signal must be scaled down by 2 bits as there
5131:Components/Algorithm/Include/arm_math.h ****    * After all multiply-accumulates are performed, the 2.62 accumulator is truncated to 1.32 format
5132:Components/Algorithm/Include/arm_math.h ****    */
5133:Components/Algorithm/Include/arm_math.h **** 
5134:Components/Algorithm/Include/arm_math.h ****   static __INLINE q31_t arm_pid_q31(
5135:Components/Algorithm/Include/arm_math.h ****   arm_pid_instance_q31 * S,
5136:Components/Algorithm/Include/arm_math.h ****   q31_t in)
5137:Components/Algorithm/Include/arm_math.h ****   {
5138:Components/Algorithm/Include/arm_math.h ****     q63_t acc;
5139:Components/Algorithm/Include/arm_math.h ****     q31_t out;
5140:Components/Algorithm/Include/arm_math.h **** 
5141:Components/Algorithm/Include/arm_math.h ****     /* acc = A0 * x[n]  */
5142:Components/Algorithm/Include/arm_math.h ****     acc = (q63_t) S->A0 * in;
5143:Components/Algorithm/Include/arm_math.h **** 
5144:Components/Algorithm/Include/arm_math.h ****     /* acc += A1 * x[n-1] */
5145:Components/Algorithm/Include/arm_math.h ****     acc += (q63_t) S->A1 * S->state[0];
5146:Components/Algorithm/Include/arm_math.h **** 
5147:Components/Algorithm/Include/arm_math.h ****     /* acc += A2 * x[n-2]  */
5148:Components/Algorithm/Include/arm_math.h ****     acc += (q63_t) S->A2 * S->state[1];
5149:Components/Algorithm/Include/arm_math.h **** 
5150:Components/Algorithm/Include/arm_math.h ****     /* convert output to 1.31 format to add y[n-1] */
5151:Components/Algorithm/Include/arm_math.h ****     out = (q31_t) (acc >> 31u);
5152:Components/Algorithm/Include/arm_math.h **** 
5153:Components/Algorithm/Include/arm_math.h ****     /* out += y[n-1] */
5154:Components/Algorithm/Include/arm_math.h ****     out += S->state[2];
5155:Components/Algorithm/Include/arm_math.h **** 
5156:Components/Algorithm/Include/arm_math.h ****     /* Update state */
5157:Components/Algorithm/Include/arm_math.h ****     S->state[1] = S->state[0];
5158:Components/Algorithm/Include/arm_math.h ****     S->state[0] = in;
5159:Components/Algorithm/Include/arm_math.h ****     S->state[2] = out;
5160:Components/Algorithm/Include/arm_math.h **** 
5161:Components/Algorithm/Include/arm_math.h ****     /* return to application */
5162:Components/Algorithm/Include/arm_math.h ****     return (out);
5163:Components/Algorithm/Include/arm_math.h **** 
5164:Components/Algorithm/Include/arm_math.h ****   }
5165:Components/Algorithm/Include/arm_math.h **** 
5166:Components/Algorithm/Include/arm_math.h ****   /**
5167:Components/Algorithm/Include/arm_math.h ****    * @brief  Process function for the Q15 PID Control.
5168:Components/Algorithm/Include/arm_math.h ****    * @param[in,out] *S points to an instance of the Q15 PID Control structure
5169:Components/Algorithm/Include/arm_math.h ****    * @param[in] in input sample to process
5170:Components/Algorithm/Include/arm_math.h ****    * @return out processed output sample.
5171:Components/Algorithm/Include/arm_math.h ****    *
5172:Components/Algorithm/Include/arm_math.h ****    * <b>Scaling and Overflow Behavior:</b>
5173:Components/Algorithm/Include/arm_math.h ****    * \par
5174:Components/Algorithm/Include/arm_math.h ****    * The function is implemented using a 64-bit internal accumulator.
5175:Components/Algorithm/Include/arm_math.h ****    * Both Gains and state variables are represented in 1.15 format and multiplications yield a 2.30
5176:Components/Algorithm/Include/arm_math.h ****    * The 2.30 intermediate results are accumulated in a 64-bit accumulator in 34.30 format.
5177:Components/Algorithm/Include/arm_math.h ****    * There is no risk of internal overflow with this approach and the full precision of intermediat
5178:Components/Algorithm/Include/arm_math.h ****    * After all additions have been performed, the accumulator is truncated to 34.15 format by disca
5179:Components/Algorithm/Include/arm_math.h ****    * Lastly, the accumulator is saturated to yield a result in 1.15 format.
5180:Components/Algorithm/Include/arm_math.h ****    */
ARM GAS  C:\Users\86152\AppData\Local\Temp\ccWGVtEI.s 			page 176


5181:Components/Algorithm/Include/arm_math.h **** 
5182:Components/Algorithm/Include/arm_math.h ****   static __INLINE q15_t arm_pid_q15(
5183:Components/Algorithm/Include/arm_math.h ****   arm_pid_instance_q15 * S,
5184:Components/Algorithm/Include/arm_math.h ****   q15_t in)
5185:Components/Algorithm/Include/arm_math.h ****   {
5186:Components/Algorithm/Include/arm_math.h ****     q63_t acc;
5187:Components/Algorithm/Include/arm_math.h ****     q15_t out;
5188:Components/Algorithm/Include/arm_math.h **** 
5189:Components/Algorithm/Include/arm_math.h **** #ifndef ARM_MATH_CM0_FAMILY
5190:Components/Algorithm/Include/arm_math.h ****     __SIMD32_TYPE *vstate;
5191:Components/Algorithm/Include/arm_math.h **** 
5192:Components/Algorithm/Include/arm_math.h ****     /* Implementation of PID controller */
5193:Components/Algorithm/Include/arm_math.h **** 
5194:Components/Algorithm/Include/arm_math.h ****     /* acc = A0 * x[n]  */
5195:Components/Algorithm/Include/arm_math.h ****     acc = (q31_t) __SMUAD(S->A0, in);
5196:Components/Algorithm/Include/arm_math.h **** 
5197:Components/Algorithm/Include/arm_math.h ****     /* acc += A1 * x[n-1] + A2 * x[n-2]  */
5198:Components/Algorithm/Include/arm_math.h ****     vstate = __SIMD32_CONST(S->state);
5199:Components/Algorithm/Include/arm_math.h ****     acc = __SMLALD(S->A1, (q31_t) *vstate, acc);
5200:Components/Algorithm/Include/arm_math.h **** 
5201:Components/Algorithm/Include/arm_math.h **** #else
5202:Components/Algorithm/Include/arm_math.h ****     /* acc = A0 * x[n]  */
5203:Components/Algorithm/Include/arm_math.h ****     acc = ((q31_t) S->A0) * in;
5204:Components/Algorithm/Include/arm_math.h **** 
5205:Components/Algorithm/Include/arm_math.h ****     /* acc += A1 * x[n-1] + A2 * x[n-2]  */
5206:Components/Algorithm/Include/arm_math.h ****     acc += (q31_t) S->A1 * S->state[0];
5207:Components/Algorithm/Include/arm_math.h ****     acc += (q31_t) S->A2 * S->state[1];
5208:Components/Algorithm/Include/arm_math.h **** 
5209:Components/Algorithm/Include/arm_math.h **** #endif
5210:Components/Algorithm/Include/arm_math.h **** 
5211:Components/Algorithm/Include/arm_math.h ****     /* acc += y[n-1] */
5212:Components/Algorithm/Include/arm_math.h ****     acc += (q31_t) S->state[2] << 15;
5213:Components/Algorithm/Include/arm_math.h **** 
5214:Components/Algorithm/Include/arm_math.h ****     /* saturate the output */
5215:Components/Algorithm/Include/arm_math.h ****     out = (q15_t) (__SSAT((acc >> 15), 16));
5216:Components/Algorithm/Include/arm_math.h **** 
5217:Components/Algorithm/Include/arm_math.h ****     /* Update state */
5218:Components/Algorithm/Include/arm_math.h ****     S->state[1] = S->state[0];
5219:Components/Algorithm/Include/arm_math.h ****     S->state[0] = in;
5220:Components/Algorithm/Include/arm_math.h ****     S->state[2] = out;
5221:Components/Algorithm/Include/arm_math.h **** 
5222:Components/Algorithm/Include/arm_math.h ****     /* return to application */
5223:Components/Algorithm/Include/arm_math.h ****     return (out);
5224:Components/Algorithm/Include/arm_math.h **** 
5225:Components/Algorithm/Include/arm_math.h ****   }
5226:Components/Algorithm/Include/arm_math.h **** 
5227:Components/Algorithm/Include/arm_math.h ****   /**
5228:Components/Algorithm/Include/arm_math.h ****    * @} end of PID group
5229:Components/Algorithm/Include/arm_math.h ****    */
5230:Components/Algorithm/Include/arm_math.h **** 
5231:Components/Algorithm/Include/arm_math.h **** 
5232:Components/Algorithm/Include/arm_math.h ****   /**
5233:Components/Algorithm/Include/arm_math.h ****    * @brief Floating-point matrix inverse.
5234:Components/Algorithm/Include/arm_math.h ****    * @param[in]  *src points to the instance of the input floating-point matrix structure.
5235:Components/Algorithm/Include/arm_math.h ****    * @param[out] *dst points to the instance of the output floating-point matrix structure.
5236:Components/Algorithm/Include/arm_math.h ****    * @return The function returns ARM_MATH_SIZE_MISMATCH, if the dimensions do not match.
5237:Components/Algorithm/Include/arm_math.h ****    * If the input matrix is singular (does not have an inverse), then the algorithm terminates and 
ARM GAS  C:\Users\86152\AppData\Local\Temp\ccWGVtEI.s 			page 177


5238:Components/Algorithm/Include/arm_math.h ****    */
5239:Components/Algorithm/Include/arm_math.h **** 
5240:Components/Algorithm/Include/arm_math.h ****   arm_status arm_mat_inverse_f32(
5241:Components/Algorithm/Include/arm_math.h ****   const arm_matrix_instance_f32 * src,
5242:Components/Algorithm/Include/arm_math.h ****   arm_matrix_instance_f32 * dst);
5243:Components/Algorithm/Include/arm_math.h **** 
5244:Components/Algorithm/Include/arm_math.h **** 
5245:Components/Algorithm/Include/arm_math.h ****   /**
5246:Components/Algorithm/Include/arm_math.h ****    * @brief Floating-point matrix inverse.
5247:Components/Algorithm/Include/arm_math.h ****    * @param[in]  *src points to the instance of the input floating-point matrix structure.
5248:Components/Algorithm/Include/arm_math.h ****    * @param[out] *dst points to the instance of the output floating-point matrix structure.
5249:Components/Algorithm/Include/arm_math.h ****    * @return The function returns ARM_MATH_SIZE_MISMATCH, if the dimensions do not match.
5250:Components/Algorithm/Include/arm_math.h ****    * If the input matrix is singular (does not have an inverse), then the algorithm terminates and 
5251:Components/Algorithm/Include/arm_math.h ****    */
5252:Components/Algorithm/Include/arm_math.h **** 
5253:Components/Algorithm/Include/arm_math.h ****   arm_status arm_mat_inverse_f64(
5254:Components/Algorithm/Include/arm_math.h ****   const arm_matrix_instance_f64 * src,
5255:Components/Algorithm/Include/arm_math.h ****   arm_matrix_instance_f64 * dst);
5256:Components/Algorithm/Include/arm_math.h **** 
5257:Components/Algorithm/Include/arm_math.h **** 
5258:Components/Algorithm/Include/arm_math.h **** 
5259:Components/Algorithm/Include/arm_math.h ****   /**
5260:Components/Algorithm/Include/arm_math.h ****    * @ingroup groupController
5261:Components/Algorithm/Include/arm_math.h ****    */
5262:Components/Algorithm/Include/arm_math.h **** 
5263:Components/Algorithm/Include/arm_math.h **** 
5264:Components/Algorithm/Include/arm_math.h ****   /**
5265:Components/Algorithm/Include/arm_math.h ****    * @defgroup clarke Vector Clarke Transform
5266:Components/Algorithm/Include/arm_math.h ****    * Forward Clarke transform converts the instantaneous stator phases into a two-coordinate time i
5267:Components/Algorithm/Include/arm_math.h ****    * Generally the Clarke transform uses three-phase currents <code>Ia, Ib and Ic</code> to calcula
5268:Components/Algorithm/Include/arm_math.h ****    * in the two-phase orthogonal stator axis <code>Ialpha</code> and <code>Ibeta</code>.
5269:Components/Algorithm/Include/arm_math.h ****    * When <code>Ialpha</code> is superposed with <code>Ia</code> as shown in the figure below
5270:Components/Algorithm/Include/arm_math.h ****    * \image html clarke.gif Stator current space vector and its components in (a,b).
5271:Components/Algorithm/Include/arm_math.h ****    * and <code>Ia + Ib + Ic = 0</code>, in this condition <code>Ialpha</code> and <code>Ibeta</code
5272:Components/Algorithm/Include/arm_math.h ****    * can be calculated using only <code>Ia</code> and <code>Ib</code>.
5273:Components/Algorithm/Include/arm_math.h ****    *
5274:Components/Algorithm/Include/arm_math.h ****    * The function operates on a single sample of data and each call to the function returns the pro
5275:Components/Algorithm/Include/arm_math.h ****    * The library provides separate functions for Q31 and floating-point data types.
5276:Components/Algorithm/Include/arm_math.h ****    * \par Algorithm
5277:Components/Algorithm/Include/arm_math.h ****    * \image html clarkeFormula.gif
5278:Components/Algorithm/Include/arm_math.h ****    * where <code>Ia</code> and <code>Ib</code> are the instantaneous stator phases and
5279:Components/Algorithm/Include/arm_math.h ****    * <code>pIalpha</code> and <code>pIbeta</code> are the two coordinates of time invariant vector.
5280:Components/Algorithm/Include/arm_math.h ****    * \par Fixed-Point Behavior
5281:Components/Algorithm/Include/arm_math.h ****    * Care must be taken when using the Q31 version of the Clarke transform.
5282:Components/Algorithm/Include/arm_math.h ****    * In particular, the overflow and saturation behavior of the accumulator used must be considered
5283:Components/Algorithm/Include/arm_math.h ****    * Refer to the function specific documentation below for usage guidelines.
5284:Components/Algorithm/Include/arm_math.h ****    */
5285:Components/Algorithm/Include/arm_math.h **** 
5286:Components/Algorithm/Include/arm_math.h ****   /**
5287:Components/Algorithm/Include/arm_math.h ****    * @addtogroup clarke
5288:Components/Algorithm/Include/arm_math.h ****    * @{
5289:Components/Algorithm/Include/arm_math.h ****    */
5290:Components/Algorithm/Include/arm_math.h **** 
5291:Components/Algorithm/Include/arm_math.h ****   /**
5292:Components/Algorithm/Include/arm_math.h ****    *
5293:Components/Algorithm/Include/arm_math.h ****    * @brief  Floating-point Clarke transform
5294:Components/Algorithm/Include/arm_math.h ****    * @param[in]       Ia       input three-phase coordinate <code>a</code>
ARM GAS  C:\Users\86152\AppData\Local\Temp\ccWGVtEI.s 			page 178


5295:Components/Algorithm/Include/arm_math.h ****    * @param[in]       Ib       input three-phase coordinate <code>b</code>
5296:Components/Algorithm/Include/arm_math.h ****    * @param[out]      *pIalpha points to output two-phase orthogonal vector axis alpha
5297:Components/Algorithm/Include/arm_math.h ****    * @param[out]      *pIbeta  points to output two-phase orthogonal vector axis beta
5298:Components/Algorithm/Include/arm_math.h ****    * @return none.
5299:Components/Algorithm/Include/arm_math.h ****    */
5300:Components/Algorithm/Include/arm_math.h **** 
5301:Components/Algorithm/Include/arm_math.h ****   static __INLINE void arm_clarke_f32(
5302:Components/Algorithm/Include/arm_math.h ****   float32_t Ia,
5303:Components/Algorithm/Include/arm_math.h ****   float32_t Ib,
5304:Components/Algorithm/Include/arm_math.h ****   float32_t * pIalpha,
5305:Components/Algorithm/Include/arm_math.h ****   float32_t * pIbeta)
5306:Components/Algorithm/Include/arm_math.h ****   {
5307:Components/Algorithm/Include/arm_math.h ****     /* Calculate pIalpha using the equation, pIalpha = Ia */
5308:Components/Algorithm/Include/arm_math.h ****     *pIalpha = Ia;
5309:Components/Algorithm/Include/arm_math.h **** 
5310:Components/Algorithm/Include/arm_math.h ****     /* Calculate pIbeta using the equation, pIbeta = (1/sqrt(3)) * Ia + (2/sqrt(3)) * Ib */
5311:Components/Algorithm/Include/arm_math.h ****     *pIbeta =
5312:Components/Algorithm/Include/arm_math.h ****       ((float32_t) 0.57735026919 * Ia + (float32_t) 1.15470053838 * Ib);
5313:Components/Algorithm/Include/arm_math.h **** 
5314:Components/Algorithm/Include/arm_math.h ****   }
5315:Components/Algorithm/Include/arm_math.h **** 
5316:Components/Algorithm/Include/arm_math.h ****   /**
5317:Components/Algorithm/Include/arm_math.h ****    * @brief  Clarke transform for Q31 version
5318:Components/Algorithm/Include/arm_math.h ****    * @param[in]       Ia       input three-phase coordinate <code>a</code>
5319:Components/Algorithm/Include/arm_math.h ****    * @param[in]       Ib       input three-phase coordinate <code>b</code>
5320:Components/Algorithm/Include/arm_math.h ****    * @param[out]      *pIalpha points to output two-phase orthogonal vector axis alpha
5321:Components/Algorithm/Include/arm_math.h ****    * @param[out]      *pIbeta  points to output two-phase orthogonal vector axis beta
5322:Components/Algorithm/Include/arm_math.h ****    * @return none.
5323:Components/Algorithm/Include/arm_math.h ****    *
5324:Components/Algorithm/Include/arm_math.h ****    * <b>Scaling and Overflow Behavior:</b>
5325:Components/Algorithm/Include/arm_math.h ****    * \par
5326:Components/Algorithm/Include/arm_math.h ****    * The function is implemented using an internal 32-bit accumulator.
5327:Components/Algorithm/Include/arm_math.h ****    * The accumulator maintains 1.31 format by truncating lower 31 bits of the intermediate multipli
5328:Components/Algorithm/Include/arm_math.h ****    * There is saturation on the addition, hence there is no risk of overflow.
5329:Components/Algorithm/Include/arm_math.h ****    */
5330:Components/Algorithm/Include/arm_math.h **** 
5331:Components/Algorithm/Include/arm_math.h ****   static __INLINE void arm_clarke_q31(
5332:Components/Algorithm/Include/arm_math.h ****   q31_t Ia,
5333:Components/Algorithm/Include/arm_math.h ****   q31_t Ib,
5334:Components/Algorithm/Include/arm_math.h ****   q31_t * pIalpha,
5335:Components/Algorithm/Include/arm_math.h ****   q31_t * pIbeta)
5336:Components/Algorithm/Include/arm_math.h ****   {
5337:Components/Algorithm/Include/arm_math.h ****     q31_t product1, product2;                    /* Temporary variables used to store intermediate 
5338:Components/Algorithm/Include/arm_math.h **** 
5339:Components/Algorithm/Include/arm_math.h ****     /* Calculating pIalpha from Ia by equation pIalpha = Ia */
5340:Components/Algorithm/Include/arm_math.h ****     *pIalpha = Ia;
5341:Components/Algorithm/Include/arm_math.h **** 
5342:Components/Algorithm/Include/arm_math.h ****     /* Intermediate product is calculated by (1/(sqrt(3)) * Ia) */
5343:Components/Algorithm/Include/arm_math.h ****     product1 = (q31_t) (((q63_t) Ia * 0x24F34E8B) >> 30);
5344:Components/Algorithm/Include/arm_math.h **** 
5345:Components/Algorithm/Include/arm_math.h ****     /* Intermediate product is calculated by (2/sqrt(3) * Ib) */
5346:Components/Algorithm/Include/arm_math.h ****     product2 = (q31_t) (((q63_t) Ib * 0x49E69D16) >> 30);
5347:Components/Algorithm/Include/arm_math.h **** 
5348:Components/Algorithm/Include/arm_math.h ****     /* pIbeta is calculated by adding the intermediate products */
5349:Components/Algorithm/Include/arm_math.h ****     *pIbeta = __QADD(product1, product2);
5350:Components/Algorithm/Include/arm_math.h ****   }
5351:Components/Algorithm/Include/arm_math.h **** 
ARM GAS  C:\Users\86152\AppData\Local\Temp\ccWGVtEI.s 			page 179


5352:Components/Algorithm/Include/arm_math.h ****   /**
5353:Components/Algorithm/Include/arm_math.h ****    * @} end of clarke group
5354:Components/Algorithm/Include/arm_math.h ****    */
5355:Components/Algorithm/Include/arm_math.h **** 
5356:Components/Algorithm/Include/arm_math.h ****   /**
5357:Components/Algorithm/Include/arm_math.h ****    * @brief  Converts the elements of the Q7 vector to Q31 vector.
5358:Components/Algorithm/Include/arm_math.h ****    * @param[in]  *pSrc     input pointer
5359:Components/Algorithm/Include/arm_math.h ****    * @param[out]  *pDst    output pointer
5360:Components/Algorithm/Include/arm_math.h ****    * @param[in]  blockSize number of samples to process
5361:Components/Algorithm/Include/arm_math.h ****    * @return none.
5362:Components/Algorithm/Include/arm_math.h ****    */
5363:Components/Algorithm/Include/arm_math.h ****   void arm_q7_to_q31(
5364:Components/Algorithm/Include/arm_math.h ****   q7_t * pSrc,
5365:Components/Algorithm/Include/arm_math.h ****   q31_t * pDst,
5366:Components/Algorithm/Include/arm_math.h ****   uint32_t blockSize);
5367:Components/Algorithm/Include/arm_math.h **** 
5368:Components/Algorithm/Include/arm_math.h **** 
5369:Components/Algorithm/Include/arm_math.h **** 
5370:Components/Algorithm/Include/arm_math.h **** 
5371:Components/Algorithm/Include/arm_math.h ****   /**
5372:Components/Algorithm/Include/arm_math.h ****    * @ingroup groupController
5373:Components/Algorithm/Include/arm_math.h ****    */
5374:Components/Algorithm/Include/arm_math.h **** 
5375:Components/Algorithm/Include/arm_math.h ****   /**
5376:Components/Algorithm/Include/arm_math.h ****    * @defgroup inv_clarke Vector Inverse Clarke Transform
5377:Components/Algorithm/Include/arm_math.h ****    * Inverse Clarke transform converts the two-coordinate time invariant vector into instantaneous 
5378:Components/Algorithm/Include/arm_math.h ****    *
5379:Components/Algorithm/Include/arm_math.h ****    * The function operates on a single sample of data and each call to the function returns the pro
5380:Components/Algorithm/Include/arm_math.h ****    * The library provides separate functions for Q31 and floating-point data types.
5381:Components/Algorithm/Include/arm_math.h ****    * \par Algorithm
5382:Components/Algorithm/Include/arm_math.h ****    * \image html clarkeInvFormula.gif
5383:Components/Algorithm/Include/arm_math.h ****    * where <code>pIa</code> and <code>pIb</code> are the instantaneous stator phases and
5384:Components/Algorithm/Include/arm_math.h ****    * <code>Ialpha</code> and <code>Ibeta</code> are the two coordinates of time invariant vector.
5385:Components/Algorithm/Include/arm_math.h ****    * \par Fixed-Point Behavior
5386:Components/Algorithm/Include/arm_math.h ****    * Care must be taken when using the Q31 version of the Clarke transform.
5387:Components/Algorithm/Include/arm_math.h ****    * In particular, the overflow and saturation behavior of the accumulator used must be considered
5388:Components/Algorithm/Include/arm_math.h ****    * Refer to the function specific documentation below for usage guidelines.
5389:Components/Algorithm/Include/arm_math.h ****    */
5390:Components/Algorithm/Include/arm_math.h **** 
5391:Components/Algorithm/Include/arm_math.h ****   /**
5392:Components/Algorithm/Include/arm_math.h ****    * @addtogroup inv_clarke
5393:Components/Algorithm/Include/arm_math.h ****    * @{
5394:Components/Algorithm/Include/arm_math.h ****    */
5395:Components/Algorithm/Include/arm_math.h **** 
5396:Components/Algorithm/Include/arm_math.h ****    /**
5397:Components/Algorithm/Include/arm_math.h ****    * @brief  Floating-point Inverse Clarke transform
5398:Components/Algorithm/Include/arm_math.h ****    * @param[in]       Ialpha  input two-phase orthogonal vector axis alpha
5399:Components/Algorithm/Include/arm_math.h ****    * @param[in]       Ibeta   input two-phase orthogonal vector axis beta
5400:Components/Algorithm/Include/arm_math.h ****    * @param[out]      *pIa    points to output three-phase coordinate <code>a</code>
5401:Components/Algorithm/Include/arm_math.h ****    * @param[out]      *pIb    points to output three-phase coordinate <code>b</code>
5402:Components/Algorithm/Include/arm_math.h ****    * @return none.
5403:Components/Algorithm/Include/arm_math.h ****    */
5404:Components/Algorithm/Include/arm_math.h **** 
5405:Components/Algorithm/Include/arm_math.h **** 
5406:Components/Algorithm/Include/arm_math.h ****   static __INLINE void arm_inv_clarke_f32(
5407:Components/Algorithm/Include/arm_math.h ****   float32_t Ialpha,
5408:Components/Algorithm/Include/arm_math.h ****   float32_t Ibeta,
ARM GAS  C:\Users\86152\AppData\Local\Temp\ccWGVtEI.s 			page 180


5409:Components/Algorithm/Include/arm_math.h ****   float32_t * pIa,
5410:Components/Algorithm/Include/arm_math.h ****   float32_t * pIb)
5411:Components/Algorithm/Include/arm_math.h ****   {
5412:Components/Algorithm/Include/arm_math.h ****     /* Calculating pIa from Ialpha by equation pIa = Ialpha */
5413:Components/Algorithm/Include/arm_math.h ****     *pIa = Ialpha;
5414:Components/Algorithm/Include/arm_math.h **** 
5415:Components/Algorithm/Include/arm_math.h ****     /* Calculating pIb from Ialpha and Ibeta by equation pIb = -(1/2) * Ialpha + (sqrt(3)/2) * Ibet
5416:Components/Algorithm/Include/arm_math.h ****     *pIb = -0.5 * Ialpha + (float32_t) 0.8660254039 *Ibeta;
5417:Components/Algorithm/Include/arm_math.h **** 
5418:Components/Algorithm/Include/arm_math.h ****   }
5419:Components/Algorithm/Include/arm_math.h **** 
5420:Components/Algorithm/Include/arm_math.h ****   /**
5421:Components/Algorithm/Include/arm_math.h ****    * @brief  Inverse Clarke transform for Q31 version
5422:Components/Algorithm/Include/arm_math.h ****    * @param[in]       Ialpha  input two-phase orthogonal vector axis alpha
5423:Components/Algorithm/Include/arm_math.h ****    * @param[in]       Ibeta   input two-phase orthogonal vector axis beta
5424:Components/Algorithm/Include/arm_math.h ****    * @param[out]      *pIa    points to output three-phase coordinate <code>a</code>
5425:Components/Algorithm/Include/arm_math.h ****    * @param[out]      *pIb    points to output three-phase coordinate <code>b</code>
5426:Components/Algorithm/Include/arm_math.h ****    * @return none.
5427:Components/Algorithm/Include/arm_math.h ****    *
5428:Components/Algorithm/Include/arm_math.h ****    * <b>Scaling and Overflow Behavior:</b>
5429:Components/Algorithm/Include/arm_math.h ****    * \par
5430:Components/Algorithm/Include/arm_math.h ****    * The function is implemented using an internal 32-bit accumulator.
5431:Components/Algorithm/Include/arm_math.h ****    * The accumulator maintains 1.31 format by truncating lower 31 bits of the intermediate multipli
5432:Components/Algorithm/Include/arm_math.h ****    * There is saturation on the subtraction, hence there is no risk of overflow.
5433:Components/Algorithm/Include/arm_math.h ****    */
5434:Components/Algorithm/Include/arm_math.h **** 
5435:Components/Algorithm/Include/arm_math.h ****   static __INLINE void arm_inv_clarke_q31(
5436:Components/Algorithm/Include/arm_math.h ****   q31_t Ialpha,
5437:Components/Algorithm/Include/arm_math.h ****   q31_t Ibeta,
5438:Components/Algorithm/Include/arm_math.h ****   q31_t * pIa,
5439:Components/Algorithm/Include/arm_math.h ****   q31_t * pIb)
5440:Components/Algorithm/Include/arm_math.h ****   {
5441:Components/Algorithm/Include/arm_math.h ****     q31_t product1, product2;                    /* Temporary variables used to store intermediate 
5442:Components/Algorithm/Include/arm_math.h **** 
5443:Components/Algorithm/Include/arm_math.h ****     /* Calculating pIa from Ialpha by equation pIa = Ialpha */
5444:Components/Algorithm/Include/arm_math.h ****     *pIa = Ialpha;
5445:Components/Algorithm/Include/arm_math.h **** 
5446:Components/Algorithm/Include/arm_math.h ****     /* Intermediate product is calculated by (1/(2*sqrt(3)) * Ia) */
5447:Components/Algorithm/Include/arm_math.h ****     product1 = (q31_t) (((q63_t) (Ialpha) * (0x40000000)) >> 31);
5448:Components/Algorithm/Include/arm_math.h **** 
5449:Components/Algorithm/Include/arm_math.h ****     /* Intermediate product is calculated by (1/sqrt(3) * pIb) */
5450:Components/Algorithm/Include/arm_math.h ****     product2 = (q31_t) (((q63_t) (Ibeta) * (0x6ED9EBA1)) >> 31);
5451:Components/Algorithm/Include/arm_math.h **** 
5452:Components/Algorithm/Include/arm_math.h ****     /* pIb is calculated by subtracting the products */
5453:Components/Algorithm/Include/arm_math.h ****     *pIb = __QSUB(product2, product1);
5454:Components/Algorithm/Include/arm_math.h **** 
5455:Components/Algorithm/Include/arm_math.h ****   }
5456:Components/Algorithm/Include/arm_math.h **** 
5457:Components/Algorithm/Include/arm_math.h ****   /**
5458:Components/Algorithm/Include/arm_math.h ****    * @} end of inv_clarke group
5459:Components/Algorithm/Include/arm_math.h ****    */
5460:Components/Algorithm/Include/arm_math.h **** 
5461:Components/Algorithm/Include/arm_math.h ****   /**
5462:Components/Algorithm/Include/arm_math.h ****    * @brief  Converts the elements of the Q7 vector to Q15 vector.
5463:Components/Algorithm/Include/arm_math.h ****    * @param[in]  *pSrc     input pointer
5464:Components/Algorithm/Include/arm_math.h ****    * @param[out] *pDst     output pointer
5465:Components/Algorithm/Include/arm_math.h ****    * @param[in]  blockSize number of samples to process
ARM GAS  C:\Users\86152\AppData\Local\Temp\ccWGVtEI.s 			page 181


5466:Components/Algorithm/Include/arm_math.h ****    * @return none.
5467:Components/Algorithm/Include/arm_math.h ****    */
5468:Components/Algorithm/Include/arm_math.h ****   void arm_q7_to_q15(
5469:Components/Algorithm/Include/arm_math.h ****   q7_t * pSrc,
5470:Components/Algorithm/Include/arm_math.h ****   q15_t * pDst,
5471:Components/Algorithm/Include/arm_math.h ****   uint32_t blockSize);
5472:Components/Algorithm/Include/arm_math.h **** 
5473:Components/Algorithm/Include/arm_math.h **** 
5474:Components/Algorithm/Include/arm_math.h **** 
5475:Components/Algorithm/Include/arm_math.h ****   /**
5476:Components/Algorithm/Include/arm_math.h ****    * @ingroup groupController
5477:Components/Algorithm/Include/arm_math.h ****    */
5478:Components/Algorithm/Include/arm_math.h **** 
5479:Components/Algorithm/Include/arm_math.h ****   /**
5480:Components/Algorithm/Include/arm_math.h ****    * @defgroup park Vector Park Transform
5481:Components/Algorithm/Include/arm_math.h ****    *
5482:Components/Algorithm/Include/arm_math.h ****    * Forward Park transform converts the input two-coordinate vector to flux and torque components.
5483:Components/Algorithm/Include/arm_math.h ****    * The Park transform can be used to realize the transformation of the <code>Ialpha</code> and th
5484:Components/Algorithm/Include/arm_math.h ****    * from the stationary to the moving reference frame and control the spatial relationship between
5485:Components/Algorithm/Include/arm_math.h ****    * the stator vector current and rotor flux vector.
5486:Components/Algorithm/Include/arm_math.h ****    * If we consider the d axis aligned with the rotor flux, the diagram below shows the
5487:Components/Algorithm/Include/arm_math.h ****    * current vector and the relationship from the two reference frames:
5488:Components/Algorithm/Include/arm_math.h ****    * \image html park.gif "Stator current space vector and its component in (a,b) and in the d,q ro
5489:Components/Algorithm/Include/arm_math.h ****    *
5490:Components/Algorithm/Include/arm_math.h ****    * The function operates on a single sample of data and each call to the function returns the pro
5491:Components/Algorithm/Include/arm_math.h ****    * The library provides separate functions for Q31 and floating-point data types.
5492:Components/Algorithm/Include/arm_math.h ****    * \par Algorithm
5493:Components/Algorithm/Include/arm_math.h ****    * \image html parkFormula.gif
5494:Components/Algorithm/Include/arm_math.h ****    * where <code>Ialpha</code> and <code>Ibeta</code> are the stator vector components,
5495:Components/Algorithm/Include/arm_math.h ****    * <code>pId</code> and <code>pIq</code> are rotor vector components and <code>cosVal</code> and 
5496:Components/Algorithm/Include/arm_math.h ****    * cosine and sine values of theta (rotor flux position).
5497:Components/Algorithm/Include/arm_math.h ****    * \par Fixed-Point Behavior
5498:Components/Algorithm/Include/arm_math.h ****    * Care must be taken when using the Q31 version of the Park transform.
5499:Components/Algorithm/Include/arm_math.h ****    * In particular, the overflow and saturation behavior of the accumulator used must be considered
5500:Components/Algorithm/Include/arm_math.h ****    * Refer to the function specific documentation below for usage guidelines.
5501:Components/Algorithm/Include/arm_math.h ****    */
5502:Components/Algorithm/Include/arm_math.h **** 
5503:Components/Algorithm/Include/arm_math.h ****   /**
5504:Components/Algorithm/Include/arm_math.h ****    * @addtogroup park
5505:Components/Algorithm/Include/arm_math.h ****    * @{
5506:Components/Algorithm/Include/arm_math.h ****    */
5507:Components/Algorithm/Include/arm_math.h **** 
5508:Components/Algorithm/Include/arm_math.h ****   /**
5509:Components/Algorithm/Include/arm_math.h ****    * @brief Floating-point Park transform
5510:Components/Algorithm/Include/arm_math.h ****    * @param[in]       Ialpha input two-phase vector coordinate alpha
5511:Components/Algorithm/Include/arm_math.h ****    * @param[in]       Ibeta  input two-phase vector coordinate beta
5512:Components/Algorithm/Include/arm_math.h ****    * @param[out]      *pId   points to output	rotor reference frame d
5513:Components/Algorithm/Include/arm_math.h ****    * @param[out]      *pIq   points to output	rotor reference frame q
5514:Components/Algorithm/Include/arm_math.h ****    * @param[in]       sinVal sine value of rotation angle theta
5515:Components/Algorithm/Include/arm_math.h ****    * @param[in]       cosVal cosine value of rotation angle theta
5516:Components/Algorithm/Include/arm_math.h ****    * @return none.
5517:Components/Algorithm/Include/arm_math.h ****    *
5518:Components/Algorithm/Include/arm_math.h ****    * The function implements the forward Park transform.
5519:Components/Algorithm/Include/arm_math.h ****    *
5520:Components/Algorithm/Include/arm_math.h ****    */
5521:Components/Algorithm/Include/arm_math.h **** 
5522:Components/Algorithm/Include/arm_math.h ****   static __INLINE void arm_park_f32(
ARM GAS  C:\Users\86152\AppData\Local\Temp\ccWGVtEI.s 			page 182


5523:Components/Algorithm/Include/arm_math.h ****   float32_t Ialpha,
5524:Components/Algorithm/Include/arm_math.h ****   float32_t Ibeta,
5525:Components/Algorithm/Include/arm_math.h ****   float32_t * pId,
5526:Components/Algorithm/Include/arm_math.h ****   float32_t * pIq,
5527:Components/Algorithm/Include/arm_math.h ****   float32_t sinVal,
5528:Components/Algorithm/Include/arm_math.h ****   float32_t cosVal)
5529:Components/Algorithm/Include/arm_math.h ****   {
5530:Components/Algorithm/Include/arm_math.h ****     /* Calculate pId using the equation, pId = Ialpha * cosVal + Ibeta * sinVal */
5531:Components/Algorithm/Include/arm_math.h ****     *pId = Ialpha * cosVal + Ibeta * sinVal;
5532:Components/Algorithm/Include/arm_math.h **** 
5533:Components/Algorithm/Include/arm_math.h ****     /* Calculate pIq using the equation, pIq = - Ialpha * sinVal + Ibeta * cosVal */
5534:Components/Algorithm/Include/arm_math.h ****     *pIq = -Ialpha * sinVal + Ibeta * cosVal;
5535:Components/Algorithm/Include/arm_math.h **** 
5536:Components/Algorithm/Include/arm_math.h ****   }
5537:Components/Algorithm/Include/arm_math.h **** 
5538:Components/Algorithm/Include/arm_math.h ****   /**
5539:Components/Algorithm/Include/arm_math.h ****    * @brief  Park transform for Q31 version
5540:Components/Algorithm/Include/arm_math.h ****    * @param[in]       Ialpha input two-phase vector coordinate alpha
5541:Components/Algorithm/Include/arm_math.h ****    * @param[in]       Ibeta  input two-phase vector coordinate beta
5542:Components/Algorithm/Include/arm_math.h ****    * @param[out]      *pId   points to output rotor reference frame d
5543:Components/Algorithm/Include/arm_math.h ****    * @param[out]      *pIq   points to output rotor reference frame q
5544:Components/Algorithm/Include/arm_math.h ****    * @param[in]       sinVal sine value of rotation angle theta
5545:Components/Algorithm/Include/arm_math.h ****    * @param[in]       cosVal cosine value of rotation angle theta
5546:Components/Algorithm/Include/arm_math.h ****    * @return none.
5547:Components/Algorithm/Include/arm_math.h ****    *
5548:Components/Algorithm/Include/arm_math.h ****    * <b>Scaling and Overflow Behavior:</b>
5549:Components/Algorithm/Include/arm_math.h ****    * \par
5550:Components/Algorithm/Include/arm_math.h ****    * The function is implemented using an internal 32-bit accumulator.
5551:Components/Algorithm/Include/arm_math.h ****    * The accumulator maintains 1.31 format by truncating lower 31 bits of the intermediate multipli
5552:Components/Algorithm/Include/arm_math.h ****    * There is saturation on the addition and subtraction, hence there is no risk of overflow.
5553:Components/Algorithm/Include/arm_math.h ****    */
5554:Components/Algorithm/Include/arm_math.h **** 
5555:Components/Algorithm/Include/arm_math.h **** 
5556:Components/Algorithm/Include/arm_math.h ****   static __INLINE void arm_park_q31(
5557:Components/Algorithm/Include/arm_math.h ****   q31_t Ialpha,
5558:Components/Algorithm/Include/arm_math.h ****   q31_t Ibeta,
5559:Components/Algorithm/Include/arm_math.h ****   q31_t * pId,
5560:Components/Algorithm/Include/arm_math.h ****   q31_t * pIq,
5561:Components/Algorithm/Include/arm_math.h ****   q31_t sinVal,
5562:Components/Algorithm/Include/arm_math.h ****   q31_t cosVal)
5563:Components/Algorithm/Include/arm_math.h ****   {
5564:Components/Algorithm/Include/arm_math.h ****     q31_t product1, product2;                    /* Temporary variables used to store intermediate 
5565:Components/Algorithm/Include/arm_math.h ****     q31_t product3, product4;                    /* Temporary variables used to store intermediate 
5566:Components/Algorithm/Include/arm_math.h **** 
5567:Components/Algorithm/Include/arm_math.h ****     /* Intermediate product is calculated by (Ialpha * cosVal) */
5568:Components/Algorithm/Include/arm_math.h ****     product1 = (q31_t) (((q63_t) (Ialpha) * (cosVal)) >> 31);
5569:Components/Algorithm/Include/arm_math.h **** 
5570:Components/Algorithm/Include/arm_math.h ****     /* Intermediate product is calculated by (Ibeta * sinVal) */
5571:Components/Algorithm/Include/arm_math.h ****     product2 = (q31_t) (((q63_t) (Ibeta) * (sinVal)) >> 31);
5572:Components/Algorithm/Include/arm_math.h **** 
5573:Components/Algorithm/Include/arm_math.h **** 
5574:Components/Algorithm/Include/arm_math.h ****     /* Intermediate product is calculated by (Ialpha * sinVal) */
5575:Components/Algorithm/Include/arm_math.h ****     product3 = (q31_t) (((q63_t) (Ialpha) * (sinVal)) >> 31);
5576:Components/Algorithm/Include/arm_math.h **** 
5577:Components/Algorithm/Include/arm_math.h ****     /* Intermediate product is calculated by (Ibeta * cosVal) */
5578:Components/Algorithm/Include/arm_math.h ****     product4 = (q31_t) (((q63_t) (Ibeta) * (cosVal)) >> 31);
5579:Components/Algorithm/Include/arm_math.h **** 
ARM GAS  C:\Users\86152\AppData\Local\Temp\ccWGVtEI.s 			page 183


5580:Components/Algorithm/Include/arm_math.h ****     /* Calculate pId by adding the two intermediate products 1 and 2 */
5581:Components/Algorithm/Include/arm_math.h ****     *pId = __QADD(product1, product2);
5582:Components/Algorithm/Include/arm_math.h **** 
5583:Components/Algorithm/Include/arm_math.h ****     /* Calculate pIq by subtracting the two intermediate products 3 from 4 */
5584:Components/Algorithm/Include/arm_math.h ****     *pIq = __QSUB(product4, product3);
5585:Components/Algorithm/Include/arm_math.h ****   }
5586:Components/Algorithm/Include/arm_math.h **** 
5587:Components/Algorithm/Include/arm_math.h ****   /**
5588:Components/Algorithm/Include/arm_math.h ****    * @} end of park group
5589:Components/Algorithm/Include/arm_math.h ****    */
5590:Components/Algorithm/Include/arm_math.h **** 
5591:Components/Algorithm/Include/arm_math.h ****   /**
5592:Components/Algorithm/Include/arm_math.h ****    * @brief  Converts the elements of the Q7 vector to floating-point vector.
5593:Components/Algorithm/Include/arm_math.h ****    * @param[in]  *pSrc is input pointer
5594:Components/Algorithm/Include/arm_math.h ****    * @param[out]  *pDst is output pointer
5595:Components/Algorithm/Include/arm_math.h ****    * @param[in]  blockSize is the number of samples to process
5596:Components/Algorithm/Include/arm_math.h ****    * @return none.
5597:Components/Algorithm/Include/arm_math.h ****    */
5598:Components/Algorithm/Include/arm_math.h ****   void arm_q7_to_float(
5599:Components/Algorithm/Include/arm_math.h ****   q7_t * pSrc,
5600:Components/Algorithm/Include/arm_math.h ****   float32_t * pDst,
5601:Components/Algorithm/Include/arm_math.h ****   uint32_t blockSize);
5602:Components/Algorithm/Include/arm_math.h **** 
5603:Components/Algorithm/Include/arm_math.h **** 
5604:Components/Algorithm/Include/arm_math.h ****   /**
5605:Components/Algorithm/Include/arm_math.h ****    * @ingroup groupController
5606:Components/Algorithm/Include/arm_math.h ****    */
5607:Components/Algorithm/Include/arm_math.h **** 
5608:Components/Algorithm/Include/arm_math.h ****   /**
5609:Components/Algorithm/Include/arm_math.h ****    * @defgroup inv_park Vector Inverse Park transform
5610:Components/Algorithm/Include/arm_math.h ****    * Inverse Park transform converts the input flux and torque components to two-coordinate vector.
5611:Components/Algorithm/Include/arm_math.h ****    *
5612:Components/Algorithm/Include/arm_math.h ****    * The function operates on a single sample of data and each call to the function returns the pro
5613:Components/Algorithm/Include/arm_math.h ****    * The library provides separate functions for Q31 and floating-point data types.
5614:Components/Algorithm/Include/arm_math.h ****    * \par Algorithm
5615:Components/Algorithm/Include/arm_math.h ****    * \image html parkInvFormula.gif
5616:Components/Algorithm/Include/arm_math.h ****    * where <code>pIalpha</code> and <code>pIbeta</code> are the stator vector components,
5617:Components/Algorithm/Include/arm_math.h ****    * <code>Id</code> and <code>Iq</code> are rotor vector components and <code>cosVal</code> and <c
5618:Components/Algorithm/Include/arm_math.h ****    * cosine and sine values of theta (rotor flux position).
5619:Components/Algorithm/Include/arm_math.h ****    * \par Fixed-Point Behavior
5620:Components/Algorithm/Include/arm_math.h ****    * Care must be taken when using the Q31 version of the Park transform.
5621:Components/Algorithm/Include/arm_math.h ****    * In particular, the overflow and saturation behavior of the accumulator used must be considered
5622:Components/Algorithm/Include/arm_math.h ****    * Refer to the function specific documentation below for usage guidelines.
5623:Components/Algorithm/Include/arm_math.h ****    */
5624:Components/Algorithm/Include/arm_math.h **** 
5625:Components/Algorithm/Include/arm_math.h ****   /**
5626:Components/Algorithm/Include/arm_math.h ****    * @addtogroup inv_park
5627:Components/Algorithm/Include/arm_math.h ****    * @{
5628:Components/Algorithm/Include/arm_math.h ****    */
5629:Components/Algorithm/Include/arm_math.h **** 
5630:Components/Algorithm/Include/arm_math.h ****    /**
5631:Components/Algorithm/Include/arm_math.h ****    * @brief  Floating-point Inverse Park transform
5632:Components/Algorithm/Include/arm_math.h ****    * @param[in]       Id        input coordinate of rotor reference frame d
5633:Components/Algorithm/Include/arm_math.h ****    * @param[in]       Iq        input coordinate of rotor reference frame q
5634:Components/Algorithm/Include/arm_math.h ****    * @param[out]      *pIalpha  points to output two-phase orthogonal vector axis alpha
5635:Components/Algorithm/Include/arm_math.h ****    * @param[out]      *pIbeta   points to output two-phase orthogonal vector axis beta
5636:Components/Algorithm/Include/arm_math.h ****    * @param[in]       sinVal    sine value of rotation angle theta
ARM GAS  C:\Users\86152\AppData\Local\Temp\ccWGVtEI.s 			page 184


5637:Components/Algorithm/Include/arm_math.h ****    * @param[in]       cosVal    cosine value of rotation angle theta
5638:Components/Algorithm/Include/arm_math.h ****    * @return none.
5639:Components/Algorithm/Include/arm_math.h ****    */
5640:Components/Algorithm/Include/arm_math.h **** 
5641:Components/Algorithm/Include/arm_math.h ****   static __INLINE void arm_inv_park_f32(
5642:Components/Algorithm/Include/arm_math.h ****   float32_t Id,
5643:Components/Algorithm/Include/arm_math.h ****   float32_t Iq,
5644:Components/Algorithm/Include/arm_math.h ****   float32_t * pIalpha,
5645:Components/Algorithm/Include/arm_math.h ****   float32_t * pIbeta,
5646:Components/Algorithm/Include/arm_math.h ****   float32_t sinVal,
5647:Components/Algorithm/Include/arm_math.h ****   float32_t cosVal)
5648:Components/Algorithm/Include/arm_math.h ****   {
5649:Components/Algorithm/Include/arm_math.h ****     /* Calculate pIalpha using the equation, pIalpha = Id * cosVal - Iq * sinVal */
5650:Components/Algorithm/Include/arm_math.h ****     *pIalpha = Id * cosVal - Iq * sinVal;
5651:Components/Algorithm/Include/arm_math.h **** 
5652:Components/Algorithm/Include/arm_math.h ****     /* Calculate pIbeta using the equation, pIbeta = Id * sinVal + Iq * cosVal */
5653:Components/Algorithm/Include/arm_math.h ****     *pIbeta = Id * sinVal + Iq * cosVal;
5654:Components/Algorithm/Include/arm_math.h **** 
5655:Components/Algorithm/Include/arm_math.h ****   }
5656:Components/Algorithm/Include/arm_math.h **** 
5657:Components/Algorithm/Include/arm_math.h **** 
5658:Components/Algorithm/Include/arm_math.h ****   /**
5659:Components/Algorithm/Include/arm_math.h ****    * @brief  Inverse Park transform for	Q31 version
5660:Components/Algorithm/Include/arm_math.h ****    * @param[in]       Id        input coordinate of rotor reference frame d
5661:Components/Algorithm/Include/arm_math.h ****    * @param[in]       Iq        input coordinate of rotor reference frame q
5662:Components/Algorithm/Include/arm_math.h ****    * @param[out]      *pIalpha  points to output two-phase orthogonal vector axis alpha
5663:Components/Algorithm/Include/arm_math.h ****    * @param[out]      *pIbeta   points to output two-phase orthogonal vector axis beta
5664:Components/Algorithm/Include/arm_math.h ****    * @param[in]       sinVal    sine value of rotation angle theta
5665:Components/Algorithm/Include/arm_math.h ****    * @param[in]       cosVal    cosine value of rotation angle theta
5666:Components/Algorithm/Include/arm_math.h ****    * @return none.
5667:Components/Algorithm/Include/arm_math.h ****    *
5668:Components/Algorithm/Include/arm_math.h ****    * <b>Scaling and Overflow Behavior:</b>
5669:Components/Algorithm/Include/arm_math.h ****    * \par
5670:Components/Algorithm/Include/arm_math.h ****    * The function is implemented using an internal 32-bit accumulator.
5671:Components/Algorithm/Include/arm_math.h ****    * The accumulator maintains 1.31 format by truncating lower 31 bits of the intermediate multipli
5672:Components/Algorithm/Include/arm_math.h ****    * There is saturation on the addition, hence there is no risk of overflow.
5673:Components/Algorithm/Include/arm_math.h ****    */
5674:Components/Algorithm/Include/arm_math.h **** 
5675:Components/Algorithm/Include/arm_math.h **** 
5676:Components/Algorithm/Include/arm_math.h ****   static __INLINE void arm_inv_park_q31(
5677:Components/Algorithm/Include/arm_math.h ****   q31_t Id,
5678:Components/Algorithm/Include/arm_math.h ****   q31_t Iq,
5679:Components/Algorithm/Include/arm_math.h ****   q31_t * pIalpha,
5680:Components/Algorithm/Include/arm_math.h ****   q31_t * pIbeta,
5681:Components/Algorithm/Include/arm_math.h ****   q31_t sinVal,
5682:Components/Algorithm/Include/arm_math.h ****   q31_t cosVal)
5683:Components/Algorithm/Include/arm_math.h ****   {
5684:Components/Algorithm/Include/arm_math.h ****     q31_t product1, product2;                    /* Temporary variables used to store intermediate 
5685:Components/Algorithm/Include/arm_math.h ****     q31_t product3, product4;                    /* Temporary variables used to store intermediate 
5686:Components/Algorithm/Include/arm_math.h **** 
5687:Components/Algorithm/Include/arm_math.h ****     /* Intermediate product is calculated by (Id * cosVal) */
5688:Components/Algorithm/Include/arm_math.h ****     product1 = (q31_t) (((q63_t) (Id) * (cosVal)) >> 31);
5689:Components/Algorithm/Include/arm_math.h **** 
5690:Components/Algorithm/Include/arm_math.h ****     /* Intermediate product is calculated by (Iq * sinVal) */
5691:Components/Algorithm/Include/arm_math.h ****     product2 = (q31_t) (((q63_t) (Iq) * (sinVal)) >> 31);
5692:Components/Algorithm/Include/arm_math.h **** 
5693:Components/Algorithm/Include/arm_math.h **** 
ARM GAS  C:\Users\86152\AppData\Local\Temp\ccWGVtEI.s 			page 185


5694:Components/Algorithm/Include/arm_math.h ****     /* Intermediate product is calculated by (Id * sinVal) */
5695:Components/Algorithm/Include/arm_math.h ****     product3 = (q31_t) (((q63_t) (Id) * (sinVal)) >> 31);
5696:Components/Algorithm/Include/arm_math.h **** 
5697:Components/Algorithm/Include/arm_math.h ****     /* Intermediate product is calculated by (Iq * cosVal) */
5698:Components/Algorithm/Include/arm_math.h ****     product4 = (q31_t) (((q63_t) (Iq) * (cosVal)) >> 31);
5699:Components/Algorithm/Include/arm_math.h **** 
5700:Components/Algorithm/Include/arm_math.h ****     /* Calculate pIalpha by using the two intermediate products 1 and 2 */
5701:Components/Algorithm/Include/arm_math.h ****     *pIalpha = __QSUB(product1, product2);
5702:Components/Algorithm/Include/arm_math.h **** 
5703:Components/Algorithm/Include/arm_math.h ****     /* Calculate pIbeta by using the two intermediate products 3 and 4 */
5704:Components/Algorithm/Include/arm_math.h ****     *pIbeta = __QADD(product4, product3);
5705:Components/Algorithm/Include/arm_math.h **** 
5706:Components/Algorithm/Include/arm_math.h ****   }
5707:Components/Algorithm/Include/arm_math.h **** 
5708:Components/Algorithm/Include/arm_math.h ****   /**
5709:Components/Algorithm/Include/arm_math.h ****    * @} end of Inverse park group
5710:Components/Algorithm/Include/arm_math.h ****    */
5711:Components/Algorithm/Include/arm_math.h **** 
5712:Components/Algorithm/Include/arm_math.h **** 
5713:Components/Algorithm/Include/arm_math.h ****   /**
5714:Components/Algorithm/Include/arm_math.h ****    * @brief  Converts the elements of the Q31 vector to floating-point vector.
5715:Components/Algorithm/Include/arm_math.h ****    * @param[in]  *pSrc is input pointer
5716:Components/Algorithm/Include/arm_math.h ****    * @param[out]  *pDst is output pointer
5717:Components/Algorithm/Include/arm_math.h ****    * @param[in]  blockSize is the number of samples to process
5718:Components/Algorithm/Include/arm_math.h ****    * @return none.
5719:Components/Algorithm/Include/arm_math.h ****    */
5720:Components/Algorithm/Include/arm_math.h ****   void arm_q31_to_float(
5721:Components/Algorithm/Include/arm_math.h ****   q31_t * pSrc,
5722:Components/Algorithm/Include/arm_math.h ****   float32_t * pDst,
5723:Components/Algorithm/Include/arm_math.h ****   uint32_t blockSize);
5724:Components/Algorithm/Include/arm_math.h **** 
5725:Components/Algorithm/Include/arm_math.h ****   /**
5726:Components/Algorithm/Include/arm_math.h ****    * @ingroup groupInterpolation
5727:Components/Algorithm/Include/arm_math.h ****    */
5728:Components/Algorithm/Include/arm_math.h **** 
5729:Components/Algorithm/Include/arm_math.h ****   /**
5730:Components/Algorithm/Include/arm_math.h ****    * @defgroup LinearInterpolate Linear Interpolation
5731:Components/Algorithm/Include/arm_math.h ****    *
5732:Components/Algorithm/Include/arm_math.h ****    * Linear interpolation is a method of curve fitting using linear polynomials.
5733:Components/Algorithm/Include/arm_math.h ****    * Linear interpolation works by effectively drawing a straight line between two neighboring samp
5734:Components/Algorithm/Include/arm_math.h ****    *
5735:Components/Algorithm/Include/arm_math.h ****    * \par
5736:Components/Algorithm/Include/arm_math.h ****    * \image html LinearInterp.gif "Linear interpolation"
5737:Components/Algorithm/Include/arm_math.h ****    *
5738:Components/Algorithm/Include/arm_math.h ****    * \par
5739:Components/Algorithm/Include/arm_math.h ****    * A  Linear Interpolate function calculates an output value(y), for the input(x)
5740:Components/Algorithm/Include/arm_math.h ****    * using linear interpolation of the input values x0, x1( nearest input values) and the output va
5741:Components/Algorithm/Include/arm_math.h ****    *
5742:Components/Algorithm/Include/arm_math.h ****    * \par Algorithm:
5743:Components/Algorithm/Include/arm_math.h ****    * <pre>
5744:Components/Algorithm/Include/arm_math.h ****    *       y = y0 + (x - x0) * ((y1 - y0)/(x1-x0))
5745:Components/Algorithm/Include/arm_math.h ****    *       where x0, x1 are nearest values of input x
5746:Components/Algorithm/Include/arm_math.h ****    *             y0, y1 are nearest values to output y
5747:Components/Algorithm/Include/arm_math.h ****    * </pre>
5748:Components/Algorithm/Include/arm_math.h ****    *
5749:Components/Algorithm/Include/arm_math.h ****    * \par
5750:Components/Algorithm/Include/arm_math.h ****    * This set of functions implements Linear interpolation process
ARM GAS  C:\Users\86152\AppData\Local\Temp\ccWGVtEI.s 			page 186


5751:Components/Algorithm/Include/arm_math.h ****    * for Q7, Q15, Q31, and floating-point data types.  The functions operate on a single
5752:Components/Algorithm/Include/arm_math.h ****    * sample of data and each call to the function returns a single processed value.
5753:Components/Algorithm/Include/arm_math.h ****    * <code>S</code> points to an instance of the Linear Interpolate function data structure.
5754:Components/Algorithm/Include/arm_math.h ****    * <code>x</code> is the input sample value. The functions returns the output value.
5755:Components/Algorithm/Include/arm_math.h ****    *
5756:Components/Algorithm/Include/arm_math.h ****    * \par
5757:Components/Algorithm/Include/arm_math.h ****    * if x is outside of the table boundary, Linear interpolation returns first value of the table
5758:Components/Algorithm/Include/arm_math.h ****    * if x is below input range and returns last value of table if x is above range.
5759:Components/Algorithm/Include/arm_math.h ****    */
5760:Components/Algorithm/Include/arm_math.h **** 
5761:Components/Algorithm/Include/arm_math.h ****   /**
5762:Components/Algorithm/Include/arm_math.h ****    * @addtogroup LinearInterpolate
5763:Components/Algorithm/Include/arm_math.h ****    * @{
5764:Components/Algorithm/Include/arm_math.h ****    */
5765:Components/Algorithm/Include/arm_math.h **** 
5766:Components/Algorithm/Include/arm_math.h ****   /**
5767:Components/Algorithm/Include/arm_math.h ****    * @brief  Process function for the floating-point Linear Interpolation Function.
5768:Components/Algorithm/Include/arm_math.h ****    * @param[in,out] *S is an instance of the floating-point Linear Interpolation structure
5769:Components/Algorithm/Include/arm_math.h ****    * @param[in] x input sample to process
5770:Components/Algorithm/Include/arm_math.h ****    * @return y processed output sample.
5771:Components/Algorithm/Include/arm_math.h ****    *
5772:Components/Algorithm/Include/arm_math.h ****    */
5773:Components/Algorithm/Include/arm_math.h **** 
5774:Components/Algorithm/Include/arm_math.h ****   static __INLINE float32_t arm_linear_interp_f32(
5775:Components/Algorithm/Include/arm_math.h ****   arm_linear_interp_instance_f32 * S,
5776:Components/Algorithm/Include/arm_math.h ****   float32_t x)
5777:Components/Algorithm/Include/arm_math.h ****   {
5778:Components/Algorithm/Include/arm_math.h **** 
5779:Components/Algorithm/Include/arm_math.h ****     float32_t y;
5780:Components/Algorithm/Include/arm_math.h ****     float32_t x0, x1;                            /* Nearest input values */
5781:Components/Algorithm/Include/arm_math.h ****     float32_t y0, y1;                            /* Nearest output values */
5782:Components/Algorithm/Include/arm_math.h ****     float32_t xSpacing = S->xSpacing;            /* spacing between input values */
5783:Components/Algorithm/Include/arm_math.h ****     int32_t i;                                   /* Index variable */
5784:Components/Algorithm/Include/arm_math.h ****     float32_t *pYData = S->pYData;               /* pointer to output table */
5785:Components/Algorithm/Include/arm_math.h **** 
5786:Components/Algorithm/Include/arm_math.h ****     /* Calculation of index */
5787:Components/Algorithm/Include/arm_math.h ****     i = (int32_t) ((x - S->x1) / xSpacing);
5788:Components/Algorithm/Include/arm_math.h **** 
5789:Components/Algorithm/Include/arm_math.h ****     if(i < 0)
5790:Components/Algorithm/Include/arm_math.h ****     {
5791:Components/Algorithm/Include/arm_math.h ****       /* Iniatilize output for below specified range as least output value of table */
5792:Components/Algorithm/Include/arm_math.h ****       y = pYData[0];
5793:Components/Algorithm/Include/arm_math.h ****     }
5794:Components/Algorithm/Include/arm_math.h ****     else if((uint32_t)i >= S->nValues)
5795:Components/Algorithm/Include/arm_math.h ****     {
5796:Components/Algorithm/Include/arm_math.h ****       /* Iniatilize output for above specified range as last output value of table */
5797:Components/Algorithm/Include/arm_math.h ****       y = pYData[S->nValues - 1];
5798:Components/Algorithm/Include/arm_math.h ****     }
5799:Components/Algorithm/Include/arm_math.h ****     else
5800:Components/Algorithm/Include/arm_math.h ****     {
5801:Components/Algorithm/Include/arm_math.h ****       /* Calculation of nearest input values */
5802:Components/Algorithm/Include/arm_math.h ****       x0 = S->x1 + i * xSpacing;
5803:Components/Algorithm/Include/arm_math.h ****       x1 = S->x1 + (i + 1) * xSpacing;
5804:Components/Algorithm/Include/arm_math.h **** 
5805:Components/Algorithm/Include/arm_math.h ****       /* Read of nearest output values */
5806:Components/Algorithm/Include/arm_math.h ****       y0 = pYData[i];
5807:Components/Algorithm/Include/arm_math.h ****       y1 = pYData[i + 1];
ARM GAS  C:\Users\86152\AppData\Local\Temp\ccWGVtEI.s 			page 187


5808:Components/Algorithm/Include/arm_math.h **** 
5809:Components/Algorithm/Include/arm_math.h ****       /* Calculation of output */
5810:Components/Algorithm/Include/arm_math.h ****       y = y0 + (x - x0) * ((y1 - y0) / (x1 - x0));
5811:Components/Algorithm/Include/arm_math.h **** 
5812:Components/Algorithm/Include/arm_math.h ****     }
5813:Components/Algorithm/Include/arm_math.h **** 
5814:Components/Algorithm/Include/arm_math.h ****     /* returns output value */
5815:Components/Algorithm/Include/arm_math.h ****     return (y);
5816:Components/Algorithm/Include/arm_math.h ****   }
5817:Components/Algorithm/Include/arm_math.h **** 
5818:Components/Algorithm/Include/arm_math.h ****    /**
5819:Components/Algorithm/Include/arm_math.h ****    *
5820:Components/Algorithm/Include/arm_math.h ****    * @brief  Process function for the Q31 Linear Interpolation Function.
5821:Components/Algorithm/Include/arm_math.h ****    * @param[in] *pYData  pointer to Q31 Linear Interpolation table
5822:Components/Algorithm/Include/arm_math.h ****    * @param[in] x input sample to process
5823:Components/Algorithm/Include/arm_math.h ****    * @param[in] nValues number of table values
5824:Components/Algorithm/Include/arm_math.h ****    * @return y processed output sample.
5825:Components/Algorithm/Include/arm_math.h ****    *
5826:Components/Algorithm/Include/arm_math.h ****    * \par
5827:Components/Algorithm/Include/arm_math.h ****    * Input sample <code>x</code> is in 12.20 format which contains 12 bits for table index and 20 b
5828:Components/Algorithm/Include/arm_math.h ****    * This function can support maximum of table size 2^12.
5829:Components/Algorithm/Include/arm_math.h ****    *
5830:Components/Algorithm/Include/arm_math.h ****    */
5831:Components/Algorithm/Include/arm_math.h **** 
5832:Components/Algorithm/Include/arm_math.h **** 
5833:Components/Algorithm/Include/arm_math.h ****   static __INLINE q31_t arm_linear_interp_q31(
5834:Components/Algorithm/Include/arm_math.h ****   q31_t * pYData,
5835:Components/Algorithm/Include/arm_math.h ****   q31_t x,
5836:Components/Algorithm/Include/arm_math.h ****   uint32_t nValues)
5837:Components/Algorithm/Include/arm_math.h ****   {
5838:Components/Algorithm/Include/arm_math.h ****     q31_t y;                                     /* output */
5839:Components/Algorithm/Include/arm_math.h ****     q31_t y0, y1;                                /* Nearest output values */
5840:Components/Algorithm/Include/arm_math.h ****     q31_t fract;                                 /* fractional part */
5841:Components/Algorithm/Include/arm_math.h ****     int32_t index;                               /* Index to read nearest output values */
5842:Components/Algorithm/Include/arm_math.h **** 
5843:Components/Algorithm/Include/arm_math.h ****     /* Input is in 12.20 format */
5844:Components/Algorithm/Include/arm_math.h ****     /* 12 bits for the table index */
5845:Components/Algorithm/Include/arm_math.h ****     /* Index value calculation */
5846:Components/Algorithm/Include/arm_math.h ****     index = ((x & 0xFFF00000) >> 20);
5847:Components/Algorithm/Include/arm_math.h **** 
5848:Components/Algorithm/Include/arm_math.h ****     if(index >= (int32_t)(nValues - 1))
5849:Components/Algorithm/Include/arm_math.h ****     {
5850:Components/Algorithm/Include/arm_math.h ****       return (pYData[nValues - 1]);
5851:Components/Algorithm/Include/arm_math.h ****     }
5852:Components/Algorithm/Include/arm_math.h ****     else if(index < 0)
5853:Components/Algorithm/Include/arm_math.h ****     {
5854:Components/Algorithm/Include/arm_math.h ****       return (pYData[0]);
5855:Components/Algorithm/Include/arm_math.h ****     }
5856:Components/Algorithm/Include/arm_math.h ****     else
5857:Components/Algorithm/Include/arm_math.h ****     {
5858:Components/Algorithm/Include/arm_math.h **** 
5859:Components/Algorithm/Include/arm_math.h ****       /* 20 bits for the fractional part */
5860:Components/Algorithm/Include/arm_math.h ****       /* shift left by 11 to keep fract in 1.31 format */
5861:Components/Algorithm/Include/arm_math.h ****       fract = (x & 0x000FFFFF) << 11;
5862:Components/Algorithm/Include/arm_math.h **** 
5863:Components/Algorithm/Include/arm_math.h ****       /* Read two nearest output values from the index in 1.31(q31) format */
5864:Components/Algorithm/Include/arm_math.h ****       y0 = pYData[index];
ARM GAS  C:\Users\86152\AppData\Local\Temp\ccWGVtEI.s 			page 188


5865:Components/Algorithm/Include/arm_math.h ****       y1 = pYData[index + 1u];
5866:Components/Algorithm/Include/arm_math.h **** 
5867:Components/Algorithm/Include/arm_math.h ****       /* Calculation of y0 * (1-fract) and y is in 2.30 format */
5868:Components/Algorithm/Include/arm_math.h ****       y = ((q31_t) ((q63_t) y0 * (0x7FFFFFFF - fract) >> 32));
5869:Components/Algorithm/Include/arm_math.h **** 
5870:Components/Algorithm/Include/arm_math.h ****       /* Calculation of y0 * (1-fract) + y1 *fract and y is in 2.30 format */
5871:Components/Algorithm/Include/arm_math.h ****       y += ((q31_t) (((q63_t) y1 * fract) >> 32));
5872:Components/Algorithm/Include/arm_math.h **** 
5873:Components/Algorithm/Include/arm_math.h ****       /* Convert y to 1.31 format */
5874:Components/Algorithm/Include/arm_math.h ****       return (y << 1u);
5875:Components/Algorithm/Include/arm_math.h **** 
5876:Components/Algorithm/Include/arm_math.h ****     }
5877:Components/Algorithm/Include/arm_math.h **** 
5878:Components/Algorithm/Include/arm_math.h ****   }
5879:Components/Algorithm/Include/arm_math.h **** 
5880:Components/Algorithm/Include/arm_math.h ****   /**
5881:Components/Algorithm/Include/arm_math.h ****    *
5882:Components/Algorithm/Include/arm_math.h ****    * @brief  Process function for the Q15 Linear Interpolation Function.
5883:Components/Algorithm/Include/arm_math.h ****    * @param[in] *pYData  pointer to Q15 Linear Interpolation table
5884:Components/Algorithm/Include/arm_math.h ****    * @param[in] x input sample to process
5885:Components/Algorithm/Include/arm_math.h ****    * @param[in] nValues number of table values
5886:Components/Algorithm/Include/arm_math.h ****    * @return y processed output sample.
5887:Components/Algorithm/Include/arm_math.h ****    *
5888:Components/Algorithm/Include/arm_math.h ****    * \par
5889:Components/Algorithm/Include/arm_math.h ****    * Input sample <code>x</code> is in 12.20 format which contains 12 bits for table index and 20 b
5890:Components/Algorithm/Include/arm_math.h ****    * This function can support maximum of table size 2^12.
5891:Components/Algorithm/Include/arm_math.h ****    *
5892:Components/Algorithm/Include/arm_math.h ****    */
5893:Components/Algorithm/Include/arm_math.h **** 
5894:Components/Algorithm/Include/arm_math.h **** 
5895:Components/Algorithm/Include/arm_math.h ****   static __INLINE q15_t arm_linear_interp_q15(
5896:Components/Algorithm/Include/arm_math.h ****   q15_t * pYData,
5897:Components/Algorithm/Include/arm_math.h ****   q31_t x,
5898:Components/Algorithm/Include/arm_math.h ****   uint32_t nValues)
5899:Components/Algorithm/Include/arm_math.h ****   {
5900:Components/Algorithm/Include/arm_math.h ****     q63_t y;                                     /* output */
5901:Components/Algorithm/Include/arm_math.h ****     q15_t y0, y1;                                /* Nearest output values */
5902:Components/Algorithm/Include/arm_math.h ****     q31_t fract;                                 /* fractional part */
5903:Components/Algorithm/Include/arm_math.h ****     int32_t index;                               /* Index to read nearest output values */
5904:Components/Algorithm/Include/arm_math.h **** 
5905:Components/Algorithm/Include/arm_math.h ****     /* Input is in 12.20 format */
5906:Components/Algorithm/Include/arm_math.h ****     /* 12 bits for the table index */
5907:Components/Algorithm/Include/arm_math.h ****     /* Index value calculation */
5908:Components/Algorithm/Include/arm_math.h ****     index = ((x & 0xFFF00000) >> 20u);
5909:Components/Algorithm/Include/arm_math.h **** 
5910:Components/Algorithm/Include/arm_math.h ****     if(index >= (int32_t)(nValues - 1))
5911:Components/Algorithm/Include/arm_math.h ****     {
5912:Components/Algorithm/Include/arm_math.h ****       return (pYData[nValues - 1]);
5913:Components/Algorithm/Include/arm_math.h ****     }
5914:Components/Algorithm/Include/arm_math.h ****     else if(index < 0)
5915:Components/Algorithm/Include/arm_math.h ****     {
5916:Components/Algorithm/Include/arm_math.h ****       return (pYData[0]);
5917:Components/Algorithm/Include/arm_math.h ****     }
5918:Components/Algorithm/Include/arm_math.h ****     else
5919:Components/Algorithm/Include/arm_math.h ****     {
5920:Components/Algorithm/Include/arm_math.h ****       /* 20 bits for the fractional part */
5921:Components/Algorithm/Include/arm_math.h ****       /* fract is in 12.20 format */
ARM GAS  C:\Users\86152\AppData\Local\Temp\ccWGVtEI.s 			page 189


5922:Components/Algorithm/Include/arm_math.h ****       fract = (x & 0x000FFFFF);
5923:Components/Algorithm/Include/arm_math.h **** 
5924:Components/Algorithm/Include/arm_math.h ****       /* Read two nearest output values from the index */
5925:Components/Algorithm/Include/arm_math.h ****       y0 = pYData[index];
5926:Components/Algorithm/Include/arm_math.h ****       y1 = pYData[index + 1u];
5927:Components/Algorithm/Include/arm_math.h **** 
5928:Components/Algorithm/Include/arm_math.h ****       /* Calculation of y0 * (1-fract) and y is in 13.35 format */
5929:Components/Algorithm/Include/arm_math.h ****       y = ((q63_t) y0 * (0xFFFFF - fract));
5930:Components/Algorithm/Include/arm_math.h **** 
5931:Components/Algorithm/Include/arm_math.h ****       /* Calculation of (y0 * (1-fract) + y1 * fract) and y is in 13.35 format */
5932:Components/Algorithm/Include/arm_math.h ****       y += ((q63_t) y1 * (fract));
5933:Components/Algorithm/Include/arm_math.h **** 
5934:Components/Algorithm/Include/arm_math.h ****       /* convert y to 1.15 format */
5935:Components/Algorithm/Include/arm_math.h ****       return (y >> 20);
5936:Components/Algorithm/Include/arm_math.h ****     }
5937:Components/Algorithm/Include/arm_math.h **** 
5938:Components/Algorithm/Include/arm_math.h **** 
5939:Components/Algorithm/Include/arm_math.h ****   }
5940:Components/Algorithm/Include/arm_math.h **** 
5941:Components/Algorithm/Include/arm_math.h ****   /**
5942:Components/Algorithm/Include/arm_math.h ****    *
5943:Components/Algorithm/Include/arm_math.h ****    * @brief  Process function for the Q7 Linear Interpolation Function.
5944:Components/Algorithm/Include/arm_math.h ****    * @param[in] *pYData  pointer to Q7 Linear Interpolation table
5945:Components/Algorithm/Include/arm_math.h ****    * @param[in] x input sample to process
5946:Components/Algorithm/Include/arm_math.h ****    * @param[in] nValues number of table values
5947:Components/Algorithm/Include/arm_math.h ****    * @return y processed output sample.
5948:Components/Algorithm/Include/arm_math.h ****    *
5949:Components/Algorithm/Include/arm_math.h ****    * \par
5950:Components/Algorithm/Include/arm_math.h ****    * Input sample <code>x</code> is in 12.20 format which contains 12 bits for table index and 20 b
5951:Components/Algorithm/Include/arm_math.h ****    * This function can support maximum of table size 2^12.
5952:Components/Algorithm/Include/arm_math.h ****    */
5953:Components/Algorithm/Include/arm_math.h **** 
5954:Components/Algorithm/Include/arm_math.h **** 
5955:Components/Algorithm/Include/arm_math.h ****   static __INLINE q7_t arm_linear_interp_q7(
5956:Components/Algorithm/Include/arm_math.h ****   q7_t * pYData,
5957:Components/Algorithm/Include/arm_math.h ****   q31_t x,
5958:Components/Algorithm/Include/arm_math.h ****   uint32_t nValues)
5959:Components/Algorithm/Include/arm_math.h ****   {
5960:Components/Algorithm/Include/arm_math.h ****     q31_t y;                                     /* output */
5961:Components/Algorithm/Include/arm_math.h ****     q7_t y0, y1;                                 /* Nearest output values */
5962:Components/Algorithm/Include/arm_math.h ****     q31_t fract;                                 /* fractional part */
5963:Components/Algorithm/Include/arm_math.h ****     uint32_t index;                              /* Index to read nearest output values */
5964:Components/Algorithm/Include/arm_math.h **** 
5965:Components/Algorithm/Include/arm_math.h ****     /* Input is in 12.20 format */
5966:Components/Algorithm/Include/arm_math.h ****     /* 12 bits for the table index */
5967:Components/Algorithm/Include/arm_math.h ****     /* Index value calculation */
5968:Components/Algorithm/Include/arm_math.h ****     if (x < 0)
5969:Components/Algorithm/Include/arm_math.h ****     {
5970:Components/Algorithm/Include/arm_math.h ****       return (pYData[0]);
5971:Components/Algorithm/Include/arm_math.h ****     }
5972:Components/Algorithm/Include/arm_math.h ****     index = (x >> 20) & 0xfff;
5973:Components/Algorithm/Include/arm_math.h **** 
5974:Components/Algorithm/Include/arm_math.h **** 
5975:Components/Algorithm/Include/arm_math.h ****     if(index >= (nValues - 1))
5976:Components/Algorithm/Include/arm_math.h ****     {
5977:Components/Algorithm/Include/arm_math.h ****       return (pYData[nValues - 1]);
5978:Components/Algorithm/Include/arm_math.h ****     }
ARM GAS  C:\Users\86152\AppData\Local\Temp\ccWGVtEI.s 			page 190


5979:Components/Algorithm/Include/arm_math.h ****     else
5980:Components/Algorithm/Include/arm_math.h ****     {
5981:Components/Algorithm/Include/arm_math.h **** 
5982:Components/Algorithm/Include/arm_math.h ****       /* 20 bits for the fractional part */
5983:Components/Algorithm/Include/arm_math.h ****       /* fract is in 12.20 format */
5984:Components/Algorithm/Include/arm_math.h ****       fract = (x & 0x000FFFFF);
5985:Components/Algorithm/Include/arm_math.h **** 
5986:Components/Algorithm/Include/arm_math.h ****       /* Read two nearest output values from the index and are in 1.7(q7) format */
5987:Components/Algorithm/Include/arm_math.h ****       y0 = pYData[index];
5988:Components/Algorithm/Include/arm_math.h ****       y1 = pYData[index + 1u];
5989:Components/Algorithm/Include/arm_math.h **** 
5990:Components/Algorithm/Include/arm_math.h ****       /* Calculation of y0 * (1-fract ) and y is in 13.27(q27) format */
5991:Components/Algorithm/Include/arm_math.h ****       y = ((y0 * (0xFFFFF - fract)));
5992:Components/Algorithm/Include/arm_math.h **** 
5993:Components/Algorithm/Include/arm_math.h ****       /* Calculation of y1 * fract + y0 * (1-fract) and y is in 13.27(q27) format */
5994:Components/Algorithm/Include/arm_math.h ****       y += (y1 * fract);
5995:Components/Algorithm/Include/arm_math.h **** 
5996:Components/Algorithm/Include/arm_math.h ****       /* convert y to 1.7(q7) format */
5997:Components/Algorithm/Include/arm_math.h ****       return (y >> 20u);
5998:Components/Algorithm/Include/arm_math.h **** 
5999:Components/Algorithm/Include/arm_math.h ****     }
6000:Components/Algorithm/Include/arm_math.h **** 
6001:Components/Algorithm/Include/arm_math.h ****   }
6002:Components/Algorithm/Include/arm_math.h ****   /**
6003:Components/Algorithm/Include/arm_math.h ****    * @} end of LinearInterpolate group
6004:Components/Algorithm/Include/arm_math.h ****    */
6005:Components/Algorithm/Include/arm_math.h **** 
6006:Components/Algorithm/Include/arm_math.h ****   /**
6007:Components/Algorithm/Include/arm_math.h ****    * @brief  Fast approximation to the trigonometric sine function for floating-point data.
6008:Components/Algorithm/Include/arm_math.h ****    * @param[in] x input value in radians.
6009:Components/Algorithm/Include/arm_math.h ****    * @return  sin(x).
6010:Components/Algorithm/Include/arm_math.h ****    */
6011:Components/Algorithm/Include/arm_math.h **** 
6012:Components/Algorithm/Include/arm_math.h ****   float32_t arm_sin_f32(
6013:Components/Algorithm/Include/arm_math.h ****   float32_t x);
6014:Components/Algorithm/Include/arm_math.h **** 
6015:Components/Algorithm/Include/arm_math.h ****   /**
6016:Components/Algorithm/Include/arm_math.h ****    * @brief  Fast approximation to the trigonometric sine function for Q31 data.
6017:Components/Algorithm/Include/arm_math.h ****    * @param[in] x Scaled input value in radians.
6018:Components/Algorithm/Include/arm_math.h ****    * @return  sin(x).
6019:Components/Algorithm/Include/arm_math.h ****    */
6020:Components/Algorithm/Include/arm_math.h **** 
6021:Components/Algorithm/Include/arm_math.h ****   q31_t arm_sin_q31(
6022:Components/Algorithm/Include/arm_math.h ****   q31_t x);
6023:Components/Algorithm/Include/arm_math.h **** 
6024:Components/Algorithm/Include/arm_math.h ****   /**
6025:Components/Algorithm/Include/arm_math.h ****    * @brief  Fast approximation to the trigonometric sine function for Q15 data.
6026:Components/Algorithm/Include/arm_math.h ****    * @param[in] x Scaled input value in radians.
6027:Components/Algorithm/Include/arm_math.h ****    * @return  sin(x).
6028:Components/Algorithm/Include/arm_math.h ****    */
6029:Components/Algorithm/Include/arm_math.h **** 
6030:Components/Algorithm/Include/arm_math.h ****   q15_t arm_sin_q15(
6031:Components/Algorithm/Include/arm_math.h ****   q15_t x);
6032:Components/Algorithm/Include/arm_math.h **** 
6033:Components/Algorithm/Include/arm_math.h ****   /**
6034:Components/Algorithm/Include/arm_math.h ****    * @brief  Fast approximation to the trigonometric cosine function for floating-point data.
6035:Components/Algorithm/Include/arm_math.h ****    * @param[in] x input value in radians.
ARM GAS  C:\Users\86152\AppData\Local\Temp\ccWGVtEI.s 			page 191


6036:Components/Algorithm/Include/arm_math.h ****    * @return  cos(x).
6037:Components/Algorithm/Include/arm_math.h ****    */
6038:Components/Algorithm/Include/arm_math.h **** 
6039:Components/Algorithm/Include/arm_math.h ****   float32_t arm_cos_f32(
6040:Components/Algorithm/Include/arm_math.h ****   float32_t x);
6041:Components/Algorithm/Include/arm_math.h **** 
6042:Components/Algorithm/Include/arm_math.h ****   /**
6043:Components/Algorithm/Include/arm_math.h ****    * @brief Fast approximation to the trigonometric cosine function for Q31 data.
6044:Components/Algorithm/Include/arm_math.h ****    * @param[in] x Scaled input value in radians.
6045:Components/Algorithm/Include/arm_math.h ****    * @return  cos(x).
6046:Components/Algorithm/Include/arm_math.h ****    */
6047:Components/Algorithm/Include/arm_math.h **** 
6048:Components/Algorithm/Include/arm_math.h ****   q31_t arm_cos_q31(
6049:Components/Algorithm/Include/arm_math.h ****   q31_t x);
6050:Components/Algorithm/Include/arm_math.h **** 
6051:Components/Algorithm/Include/arm_math.h ****   /**
6052:Components/Algorithm/Include/arm_math.h ****    * @brief  Fast approximation to the trigonometric cosine function for Q15 data.
6053:Components/Algorithm/Include/arm_math.h ****    * @param[in] x Scaled input value in radians.
6054:Components/Algorithm/Include/arm_math.h ****    * @return  cos(x).
6055:Components/Algorithm/Include/arm_math.h ****    */
6056:Components/Algorithm/Include/arm_math.h **** 
6057:Components/Algorithm/Include/arm_math.h ****   q15_t arm_cos_q15(
6058:Components/Algorithm/Include/arm_math.h ****   q15_t x);
6059:Components/Algorithm/Include/arm_math.h **** 
6060:Components/Algorithm/Include/arm_math.h **** 
6061:Components/Algorithm/Include/arm_math.h ****   /**
6062:Components/Algorithm/Include/arm_math.h ****    * @ingroup groupFastMath
6063:Components/Algorithm/Include/arm_math.h ****    */
6064:Components/Algorithm/Include/arm_math.h **** 
6065:Components/Algorithm/Include/arm_math.h **** 
6066:Components/Algorithm/Include/arm_math.h ****   /**
6067:Components/Algorithm/Include/arm_math.h ****    * @defgroup SQRT Square Root
6068:Components/Algorithm/Include/arm_math.h ****    *
6069:Components/Algorithm/Include/arm_math.h ****    * Computes the square root of a number.
6070:Components/Algorithm/Include/arm_math.h ****    * There are separate functions for Q15, Q31, and floating-point data types.
6071:Components/Algorithm/Include/arm_math.h ****    * The square root function is computed using the Newton-Raphson algorithm.
6072:Components/Algorithm/Include/arm_math.h ****    * This is an iterative algorithm of the form:
6073:Components/Algorithm/Include/arm_math.h ****    * <pre>
6074:Components/Algorithm/Include/arm_math.h ****    *      x1 = x0 - f(x0)/f'(x0)
6075:Components/Algorithm/Include/arm_math.h ****    * </pre>
6076:Components/Algorithm/Include/arm_math.h ****    * where <code>x1</code> is the current estimate,
6077:Components/Algorithm/Include/arm_math.h ****    * <code>x0</code> is the previous estimate, and
6078:Components/Algorithm/Include/arm_math.h ****    * <code>f'(x0)</code> is the derivative of <code>f()</code> evaluated at <code>x0</code>.
6079:Components/Algorithm/Include/arm_math.h ****    * For the square root function, the algorithm reduces to:
6080:Components/Algorithm/Include/arm_math.h ****    * <pre>
6081:Components/Algorithm/Include/arm_math.h ****    *     x0 = in/2                         [initial guess]
6082:Components/Algorithm/Include/arm_math.h ****    *     x1 = 1/2 * ( x0 + in / x0)        [each iteration]
6083:Components/Algorithm/Include/arm_math.h ****    * </pre>
6084:Components/Algorithm/Include/arm_math.h ****    */
6085:Components/Algorithm/Include/arm_math.h **** 
6086:Components/Algorithm/Include/arm_math.h **** 
6087:Components/Algorithm/Include/arm_math.h ****   /**
6088:Components/Algorithm/Include/arm_math.h ****    * @addtogroup SQRT
6089:Components/Algorithm/Include/arm_math.h ****    * @{
6090:Components/Algorithm/Include/arm_math.h ****    */
6091:Components/Algorithm/Include/arm_math.h **** 
6092:Components/Algorithm/Include/arm_math.h ****   /**
ARM GAS  C:\Users\86152\AppData\Local\Temp\ccWGVtEI.s 			page 192


6093:Components/Algorithm/Include/arm_math.h ****    * @brief  Floating-point square root function.
6094:Components/Algorithm/Include/arm_math.h ****    * @param[in]  in     input value.
6095:Components/Algorithm/Include/arm_math.h ****    * @param[out] *pOut  square root of input value.
6096:Components/Algorithm/Include/arm_math.h ****    * @return The function returns ARM_MATH_SUCCESS if input value is positive value or ARM_MATH_ARG
6097:Components/Algorithm/Include/arm_math.h ****    * <code>in</code> is negative value and returns zero output for negative values.
6098:Components/Algorithm/Include/arm_math.h ****    */
6099:Components/Algorithm/Include/arm_math.h **** 
6100:Components/Algorithm/Include/arm_math.h ****   static __INLINE arm_status arm_sqrt_f32(
 3005              		.loc 2 6100 30 is_stmt 1 view .LVU918
 3006              	.LBB17:
6101:Components/Algorithm/Include/arm_math.h ****   float32_t in,
6102:Components/Algorithm/Include/arm_math.h ****   float32_t * pOut)
6103:Components/Algorithm/Include/arm_math.h ****   {
6104:Components/Algorithm/Include/arm_math.h ****     if(in >= 0.0f)
 3007              		.loc 2 6104 5 view .LVU919
 3008              		.loc 2 6104 7 is_stmt 0 view .LVU920
 3009 04f0 B5EEC00A 		vcmpe.f32	s0, #0
 3010 04f4 F1EE10FA 		vmrs	APSR_nzcv, FPSCR
 3011 04f8 C0F27F83 		blt	.L235
6105:Components/Algorithm/Include/arm_math.h ****     {
6106:Components/Algorithm/Include/arm_math.h **** 
6107:Components/Algorithm/Include/arm_math.h **** //      #if __FPU_USED
6108:Components/Algorithm/Include/arm_math.h **** #if (__FPU_USED == 1) && defined ( __CC_ARM   )
6109:Components/Algorithm/Include/arm_math.h ****       *pOut = __sqrtf(in);
6110:Components/Algorithm/Include/arm_math.h **** #else
6111:Components/Algorithm/Include/arm_math.h ****       *pOut = sqrtf(in);
 3012              		.loc 2 6111 7 is_stmt 1 view .LVU921
 3013              		.loc 2 6111 15 is_stmt 0 view .LVU922
 3014 04fc FFF7FEFF 		bl	sqrtf
 3015              	.LVL112:
 3016              		.loc 2 6111 13 view .LVU923
 3017 0500 224B     		ldr	r3, .L251+60
 3018 0502 83ED000A 		vstr.32	s0, [r3]
6112:Components/Algorithm/Include/arm_math.h **** #endif
6113:Components/Algorithm/Include/arm_math.h **** 
6114:Components/Algorithm/Include/arm_math.h ****       return (ARM_MATH_SUCCESS);
 3019              		.loc 2 6114 7 is_stmt 1 view .LVU924
 3020              	.L186:
 3021              	.LVL113:
 3022              		.loc 2 6114 7 is_stmt 0 view .LVU925
 3023              	.LBE17:
 3024              	.LBE16:
 498:Application/chassis_task.c ****                     center_count++;
 3025              		.loc 1 498 17 is_stmt 1 view .LVU926
 498:Application/chassis_task.c ****                     center_count++;
 3026              		.loc 1 498 37 is_stmt 0 view .LVU927
 3027 0506 214B     		ldr	r3, .L251+60
 3028 0508 D3ED007A 		vldr.32	s15, [r3]
 498:Application/chassis_task.c ****                     center_count++;
 3029              		.loc 1 498 20 view .LVU928
 3030 050c 9FED207A 		vldr.32	s14, .L251+64
 3031 0510 F4EEC77A 		vcmpe.f32	s15, s14
 3032 0514 F1EE10FA 		vmrs	APSR_nzcv, FPSCR
 3033 0518 40F17383 		bpl	.L236
 499:Application/chassis_task.c ****                 else
 3034              		.loc 1 499 21 is_stmt 1 view .LVU929
 499:Application/chassis_task.c ****                 else
ARM GAS  C:\Users\86152\AppData\Local\Temp\ccWGVtEI.s 			page 193


 3035              		.loc 1 499 33 is_stmt 0 view .LVU930
 3036 051c 1D4A     		ldr	r2, .L251+68
 3037 051e 1368     		ldr	r3, [r2]
 3038 0520 0133     		adds	r3, r3, #1
 3039 0522 1360     		str	r3, [r2]
 3040              	.L189:
 503:Application/chassis_task.c ****                 {
 3041              		.loc 1 503 17 is_stmt 1 view .LVU931
 503:Application/chassis_task.c ****                 {
 3042              		.loc 1 503 34 is_stmt 0 view .LVU932
 3043 0524 1B4B     		ldr	r3, .L251+68
 3044 0526 1A68     		ldr	r2, [r3]
 503:Application/chassis_task.c ****                 {
 3045              		.loc 1 503 20 view .LVU933
 3046 0528 40F6C413 		movw	r3, #2500
 3047 052c 9A42     		cmp	r2, r3
 3048 052e 40F26C83 		bls	.L190
 503:Application/chassis_task.c ****                 {
 3049              		.loc 1 503 41 discriminator 1 view .LVU934
 3050 0532 9FED197A 		vldr.32	s14, .L251+72
 3051 0536 F4EEC77A 		vcmpe.f32	s15, s14
 3052 053a F1EE10FA 		vmrs	APSR_nzcv, FPSCR
 3053 053e 40F16483 		bpl	.L190
 505:Application/chassis_task.c ****                     is_velocity = 0;
 3054              		.loc 1 505 21 is_stmt 1 view .LVU935
 505:Application/chassis_task.c ****                     is_velocity = 0;
 3055              		.loc 1 505 28 is_stmt 0 view .LVU936
 3056 0542 164B     		ldr	r3, .L251+76
 3057 0544 164A     		ldr	r2, .L251+80
 3058 0546 1A60     		str	r2, [r3]	@ float
 506:Application/chassis_task.c ****                 }
 3059              		.loc 1 506 21 is_stmt 1 view .LVU937
 506:Application/chassis_task.c ****                 }
 3060              		.loc 1 506 33 is_stmt 0 view .LVU938
 3061 0548 164B     		ldr	r3, .L251+84
 3062 054a 0022     		movs	r2, #0
 3063 054c 1A70     		strb	r2, [r3]
 3064 054e 69E3     		b	.L192
 3065              	.L252:
 3066              		.align	2
 3067              	.L251:
 3068 0550 00000000 		.word	Chassis
 3069 0554 00000000 		.word	.LANCHOR45
 3070 0558 00000000 		.word	remote_control
 3071 055c 00000000 		.word	.LANCHOR50
 3072 0560 FFFF7F7F 		.word	2139095039
 3073 0564 00008000 		.word	8388608
 3074 0568 00000000 		.word	.LANCHOR51
 3075 056c 60070000 		.word	Chassis+1888
 3076 0570 480C0000 		.word	Chassis+3144
 3077 0574 00100000 		.word	Chassis+4096
 3078 0578 00000000 		.word	robot_state
 3079 057c 00000000 		.word	game_robot_HP
 3080 0580 00000000 		.word	.LANCHOR20
 3081 0584 00000000 		.word	.LANCHOR21
 3082 0588 00000000 		.word	.LANCHOR22
 3083 058c 00000000 		.word	.LANCHOR29
ARM GAS  C:\Users\86152\AppData\Local\Temp\ccWGVtEI.s 			page 194


 3084 0590 00001644 		.word	1142292480
 3085 0594 00000000 		.word	.LANCHOR34
 3086 0598 00009643 		.word	1133903872
 3087 059c 00000000 		.word	.LANCHOR23
 3088 05a0 00002F44 		.word	1143930880
 3089 05a4 00000000 		.word	.LANCHOR24
 3090              	.L155:
 376:Application/chassis_task.c ****             sentry_HP = game_robot_HP.blue_7_robot_HP;
 3091              		.loc 1 376 13 is_stmt 1 view .LVU939
 376:Application/chassis_task.c ****             sentry_HP = game_robot_HP.blue_7_robot_HP;
 3092              		.loc 1 376 39 is_stmt 0 view .LVU940
 3093 05a8 AB4B     		ldr	r3, .L253+16
 3094 05aa 998B     		ldrh	r1, [r3, #28]
 376:Application/chassis_task.c ****             sentry_HP = game_robot_HP.blue_7_robot_HP;
 3095              		.loc 1 376 24 view .LVU941
 3096 05ac AB4A     		ldr	r2, .L253+20
 3097 05ae 1180     		strh	r1, [r2]	@ movhi
 377:Application/chassis_task.c ****         }
 3098              		.loc 1 377 13 is_stmt 1 view .LVU942
 377:Application/chassis_task.c ****         }
 3099              		.loc 1 377 38 is_stmt 0 view .LVU943
 3100 05b0 5A8B     		ldrh	r2, [r3, #26]
 377:Application/chassis_task.c ****         }
 3101              		.loc 1 377 23 view .LVU944
 3102 05b2 AB4B     		ldr	r3, .L253+24
 3103 05b4 1A80     		strh	r2, [r3]	@ movhi
 3104 05b6 68E7     		b	.L156
 3105              	.L241:
 382:Application/chassis_task.c ****             {
 3106              		.loc 1 382 13 is_stmt 1 view .LVU945
 382:Application/chassis_task.c ****             {
 3107              		.loc 1 382 44 is_stmt 0 view .LVU946
 3108 05b8 AA4B     		ldr	r3, .L253+28
 3109 05ba 1B78     		ldrb	r3, [r3]	@ zero_extendqisi2
 3110 05bc 03F0F003 		and	r3, r3, #240
 382:Application/chassis_task.c ****             {
 3111              		.loc 1 382 16 view .LVU947
 3112 05c0 402B     		cmp	r3, #64
 3113 05c2 09D0     		beq	.L158
 382:Application/chassis_task.c ****             {
 3114              		.loc 1 382 65 discriminator 1 view .LVU948
 3115 05c4 A54B     		ldr	r3, .L253+20
 3116 05c6 1B88     		ldrh	r3, [r3]
 382:Application/chassis_task.c ****             {
 3117              		.loc 1 382 50 discriminator 1 view .LVU949
 3118 05c8 40F2DC52 		movw	r2, #1500
 3119 05cc 9342     		cmp	r3, r2
 3120 05ce 00F08E80 		beq	.L159
 382:Application/chassis_task.c ****             {
 3121              		.loc 1 382 73 discriminator 2 view .LVU950
 3122 05d2 002B     		cmp	r3, #0
 3123 05d4 00F08B80 		beq	.L159
 3124              	.L158:
 384:Application/chassis_task.c ****                 is_velocity = 1;
 3125              		.loc 1 384 17 is_stmt 1 view .LVU951
 384:Application/chassis_task.c ****                 is_velocity = 1;
 3126              		.loc 1 384 24 is_stmt 0 view .LVU952
ARM GAS  C:\Users\86152\AppData\Local\Temp\ccWGVtEI.s 			page 195


 3127 05d8 A34B     		ldr	r3, .L253+32
 3128 05da 0022     		movs	r2, #0
 3129 05dc 1A60     		str	r2, [r3]	@ float
 385:Application/chassis_task.c ****                 Chassis.PlanX = Chassis.PlanX * 0.1 / (0.1 + dt) + Chassis.PlanX1000 / 10 * dt / (0
 3130              		.loc 1 385 17 is_stmt 1 view .LVU953
 385:Application/chassis_task.c ****                 Chassis.PlanX = Chassis.PlanX * 0.1 / (0.1 + dt) + Chassis.PlanX1000 / 10 * dt / (0
 3131              		.loc 1 385 29 is_stmt 0 view .LVU954
 3132 05de A34B     		ldr	r3, .L253+36
 3133 05e0 0122     		movs	r2, #1
 3134 05e2 1A70     		strb	r2, [r3]
 386:Application/chassis_task.c ****                 Chassis.PlanY = Chassis.PlanY * 0.1 / (0.1 + dt) + Chassis.PlanY1000 / 10 * dt / (0
 3135              		.loc 1 386 17 is_stmt 1 view .LVU955
 386:Application/chassis_task.c ****                 Chassis.PlanY = Chassis.PlanY * 0.1 / (0.1 + dt) + Chassis.PlanY1000 / 10 * dt / (0
 3136              		.loc 1 386 40 is_stmt 0 view .LVU956
 3137 05e4 A24D     		ldr	r5, .L253+40
 3138 05e6 05F58054 		add	r4, r5, #4096
 3139 05ea 04F6480A 		addw	r10, r4, #2120
 3140 05ee DAF80000 		ldr	r0, [r10]	@ float
 3141 05f2 FFF7FEFF 		bl	__aeabi_f2d
 3142              	.LVL114:
 386:Application/chassis_task.c ****                 Chassis.PlanY = Chassis.PlanY * 0.1 / (0.1 + dt) + Chassis.PlanY1000 / 10 * dt / (0
 3143              		.loc 1 386 47 view .LVU957
 3144 05f6 94A3     		adr	r3, .L253
 3145 05f8 D3E90023 		ldrd	r2, [r3]
 3146 05fc FFF7FEFF 		bl	__aeabi_dmul
 3147              	.LVL115:
 3148 0600 8046     		mov	r8, r0
 3149 0602 8946     		mov	r9, r1
 386:Application/chassis_task.c ****                 Chassis.PlanY = Chassis.PlanY * 0.1 / (0.1 + dt) + Chassis.PlanY1000 / 10 * dt / (0
 3150              		.loc 1 386 60 view .LVU958
 3151 0604 9B4B     		ldr	r3, .L253+44
 3152 0606 D3ED008A 		vldr.32	s17, [r3]
 3153 060a 18EE900A 		vmov	r0, s17
 3154 060e FFF7FEFF 		bl	__aeabi_f2d
 3155              	.LVL116:
 3156 0612 8DA3     		adr	r3, .L253
 3157 0614 D3E90023 		ldrd	r2, [r3]
 3158 0618 FFF7FEFF 		bl	__aeabi_dadd
 3159              	.LVL117:
 3160 061c 0646     		mov	r6, r0
 3161 061e 0F46     		mov	r7, r1
 386:Application/chassis_task.c ****                 Chassis.PlanY = Chassis.PlanY * 0.1 / (0.1 + dt) + Chassis.PlanY1000 / 10 * dt / (0
 3162              		.loc 1 386 53 view .LVU959
 3163 0620 0246     		mov	r2, r0
 3164 0622 0B46     		mov	r3, r1
 3165 0624 4046     		mov	r0, r8
 3166 0626 4946     		mov	r1, r9
 3167 0628 FFF7FEFF 		bl	__aeabi_ddiv
 3168              	.LVL118:
 3169 062c 8046     		mov	r8, r0
 3170 062e 8946     		mov	r9, r1
 386:Application/chassis_task.c ****                 Chassis.PlanY = Chassis.PlanY * 0.1 / (0.1 + dt) + Chassis.PlanY1000 / 10 * dt / (0
 3171              		.loc 1 386 75 view .LVU960
 3172 0630 B4F94438 		ldrsh	r3, [r4, #2116]
 386:Application/chassis_task.c ****                 Chassis.PlanY = Chassis.PlanY * 0.1 / (0.1 + dt) + Chassis.PlanY1000 / 10 * dt / (0
 3173              		.loc 1 386 91 view .LVU961
 3174 0634 DFF858B2 		ldr	fp, .L253+72
ARM GAS  C:\Users\86152\AppData\Local\Temp\ccWGVtEI.s 			page 196


 3175 0638 8BFB0312 		smull	r1, r2, fp, r3
 3176 063c DB17     		asrs	r3, r3, #31
 3177 063e C3EBA203 		rsb	r3, r3, r2, asr #2
 3178 0642 1BB2     		sxth	r3, r3
 3179 0644 07EE903A 		vmov	s15, r3	@ int
 3180 0648 F8EEE77A 		vcvt.f32.s32	s15, s15
 3181 064c 67EEA87A 		vmul.f32	s15, s15, s17
 3182 0650 17EE900A 		vmov	r0, s15
 3183 0654 FFF7FEFF 		bl	__aeabi_f2d
 3184              	.LVL119:
 386:Application/chassis_task.c ****                 Chassis.PlanY = Chassis.PlanY * 0.1 / (0.1 + dt) + Chassis.PlanY1000 / 10 * dt / (0
 3185              		.loc 1 386 96 view .LVU962
 3186 0658 3246     		mov	r2, r6
 3187 065a 3B46     		mov	r3, r7
 3188 065c FFF7FEFF 		bl	__aeabi_ddiv
 3189              	.LVL120:
 3190 0660 0246     		mov	r2, r0
 3191 0662 0B46     		mov	r3, r1
 386:Application/chassis_task.c ****                 Chassis.PlanY = Chassis.PlanY * 0.1 / (0.1 + dt) + Chassis.PlanY1000 / 10 * dt / (0
 3192              		.loc 1 386 66 view .LVU963
 3193 0664 4046     		mov	r0, r8
 3194 0666 4946     		mov	r1, r9
 3195 0668 FFF7FEFF 		bl	__aeabi_dadd
 3196              	.LVL121:
 3197 066c FFF7FEFF 		bl	__aeabi_d2f
 3198              	.LVL122:
 3199 0670 08EE100A 		vmov	s16, r0
 386:Application/chassis_task.c ****                 Chassis.PlanY = Chassis.PlanY * 0.1 / (0.1 + dt) + Chassis.PlanY1000 / 10 * dt / (0
 3200              		.loc 1 386 31 view .LVU964
 3201 0674 CAF80000 		str	r0, [r10]	@ float
 387:Application/chassis_task.c ****                 Chassis.spinnig_center[0] = Chassis.PlanX;
 3202              		.loc 1 387 17 is_stmt 1 view .LVU965
 387:Application/chassis_task.c ****                 Chassis.spinnig_center[0] = Chassis.PlanX;
 3203              		.loc 1 387 40 is_stmt 0 view .LVU966
 3204 0678 04F64C0A 		addw	r10, r4, #2124
 3205 067c DAF80000 		ldr	r0, [r10]	@ float
 3206 0680 FFF7FEFF 		bl	__aeabi_f2d
 3207              	.LVL123:
 387:Application/chassis_task.c ****                 Chassis.spinnig_center[0] = Chassis.PlanX;
 3208              		.loc 1 387 47 view .LVU967
 3209 0684 70A3     		adr	r3, .L253
 3210 0686 D3E90023 		ldrd	r2, [r3]
 3211 068a FFF7FEFF 		bl	__aeabi_dmul
 3212              	.LVL124:
 387:Application/chassis_task.c ****                 Chassis.spinnig_center[0] = Chassis.PlanX;
 3213              		.loc 1 387 53 view .LVU968
 3214 068e 3246     		mov	r2, r6
 3215 0690 3B46     		mov	r3, r7
 3216 0692 FFF7FEFF 		bl	__aeabi_ddiv
 3217              	.LVL125:
 3218 0696 8046     		mov	r8, r0
 3219 0698 8946     		mov	r9, r1
 387:Application/chassis_task.c ****                 Chassis.spinnig_center[0] = Chassis.PlanX;
 3220              		.loc 1 387 75 view .LVU969
 3221 069a B4F94638 		ldrsh	r3, [r4, #2118]
 387:Application/chassis_task.c ****                 Chassis.spinnig_center[0] = Chassis.PlanX;
 3222              		.loc 1 387 91 view .LVU970
ARM GAS  C:\Users\86152\AppData\Local\Temp\ccWGVtEI.s 			page 197


 3223 069e 8BFB032B 		smull	r2, fp, fp, r3
 3224 06a2 DB17     		asrs	r3, r3, #31
 3225 06a4 C3EBAB03 		rsb	r3, r3, fp, asr #2
 3226 06a8 1BB2     		sxth	r3, r3
 3227 06aa 07EE903A 		vmov	s15, r3	@ int
 3228 06ae F8EEE77A 		vcvt.f32.s32	s15, s15
 3229 06b2 67EEA87A 		vmul.f32	s15, s15, s17
 3230 06b6 17EE900A 		vmov	r0, s15
 3231 06ba FFF7FEFF 		bl	__aeabi_f2d
 3232              	.LVL126:
 387:Application/chassis_task.c ****                 Chassis.spinnig_center[0] = Chassis.PlanX;
 3233              		.loc 1 387 96 view .LVU971
 3234 06be 3246     		mov	r2, r6
 3235 06c0 3B46     		mov	r3, r7
 3236 06c2 FFF7FEFF 		bl	__aeabi_ddiv
 3237              	.LVL127:
 3238 06c6 0246     		mov	r2, r0
 3239 06c8 0B46     		mov	r3, r1
 387:Application/chassis_task.c ****                 Chassis.spinnig_center[0] = Chassis.PlanX;
 3240              		.loc 1 387 66 view .LVU972
 3241 06ca 4046     		mov	r0, r8
 3242 06cc 4946     		mov	r1, r9
 3243 06ce FFF7FEFF 		bl	__aeabi_dadd
 3244              	.LVL128:
 3245 06d2 FFF7FEFF 		bl	__aeabi_d2f
 3246              	.LVL129:
 387:Application/chassis_task.c ****                 Chassis.spinnig_center[0] = Chassis.PlanX;
 3247              		.loc 1 387 31 view .LVU973
 3248 06d6 CAF80000 		str	r0, [r10]	@ float
 388:Application/chassis_task.c ****                 Chassis.spinnig_center[1] = Chassis.PlanY;
 3249              		.loc 1 388 17 is_stmt 1 view .LVU974
 388:Application/chassis_task.c ****                 Chassis.spinnig_center[1] = Chassis.PlanY;
 3250              		.loc 1 388 43 is_stmt 0 view .LVU975
 3251 06da 04F63C04 		addw	r4, r4, #2108
 3252 06de 84ED008A 		vstr.32	s16, [r4]
 389:Application/chassis_task.c ****                 move_ratio = 6.6f; // 2.2
 3253              		.loc 1 389 17 is_stmt 1 view .LVU976
 389:Application/chassis_task.c ****                 move_ratio = 6.6f; // 2.2
 3254              		.loc 1 389 43 is_stmt 0 view .LVU977
 3255 06e2 05F5C255 		add	r5, r5, #6208
 3256 06e6 2860     		str	r0, [r5]	@ float
 390:Application/chassis_task.c ****             }
 3257              		.loc 1 390 17 is_stmt 1 view .LVU978
 390:Application/chassis_task.c ****             }
 3258              		.loc 1 390 28 is_stmt 0 view .LVU979
 3259 06e8 634B     		ldr	r3, .L253+48
 3260 06ea 644A     		ldr	r2, .L253+52
 3261 06ec 1A60     		str	r2, [r3]	@ float
 3262              	.L159:
 547:Application/chassis_task.c ****         Chassis.posY = Chassis.posY * 0.002 / (0.002 + dt) + Chassis.posY1000 / 10.0f * dt / (0.002
 3263              		.loc 1 547 9 is_stmt 1 view .LVU980
 547:Application/chassis_task.c ****         Chassis.posY = Chassis.posY * 0.002 / (0.002 + dt) + Chassis.posY1000 / 10.0f * dt / (0.002
 3264              		.loc 1 547 31 is_stmt 0 view .LVU981
 3265 06ee 644C     		ldr	r4, .L253+56
 3266 06f0 04F50365 		add	r5, r4, #2096
 3267 06f4 2868     		ldr	r0, [r5]	@ float
 3268 06f6 FFF7FEFF 		bl	__aeabi_f2d
ARM GAS  C:\Users\86152\AppData\Local\Temp\ccWGVtEI.s 			page 198


 3269              	.LVL130:
 547:Application/chassis_task.c ****         Chassis.posY = Chassis.posY * 0.002 / (0.002 + dt) + Chassis.posY1000 / 10.0f * dt / (0.002
 3270              		.loc 1 547 37 view .LVU982
 3271 06fa 55A3     		adr	r3, .L253+8
 3272 06fc D3E90023 		ldrd	r2, [r3]
 3273 0700 FFF7FEFF 		bl	__aeabi_dmul
 3274              	.LVL131:
 3275 0704 8046     		mov	r8, r0
 3276 0706 8946     		mov	r9, r1
 547:Application/chassis_task.c ****         Chassis.posY = Chassis.posY * 0.002 / (0.002 + dt) + Chassis.posY1000 / 10.0f * dt / (0.002
 3277              		.loc 1 547 54 view .LVU983
 3278 0708 5A4B     		ldr	r3, .L253+44
 3279 070a D3ED008A 		vldr.32	s17, [r3]
 3280 070e 18EE900A 		vmov	r0, s17
 3281 0712 FFF7FEFF 		bl	__aeabi_f2d
 3282              	.LVL132:
 3283 0716 4EA3     		adr	r3, .L253+8
 3284 0718 D3E90023 		ldrd	r2, [r3]
 3285 071c FFF7FEFF 		bl	__aeabi_dadd
 3286              	.LVL133:
 3287 0720 0646     		mov	r6, r0
 3288 0722 0F46     		mov	r7, r1
 547:Application/chassis_task.c ****         Chassis.posY = Chassis.posY * 0.002 / (0.002 + dt) + Chassis.posY1000 / 10.0f * dt / (0.002
 3289              		.loc 1 547 45 view .LVU984
 3290 0724 0246     		mov	r2, r0
 3291 0726 0B46     		mov	r3, r1
 3292 0728 4046     		mov	r0, r8
 3293 072a 4946     		mov	r1, r9
 3294 072c FFF7FEFF 		bl	__aeabi_ddiv
 3295              	.LVL134:
 3296 0730 8046     		mov	r8, r0
 3297 0732 8946     		mov	r9, r1
 547:Application/chassis_task.c ****         Chassis.posY = Chassis.posY * 0.002 / (0.002 + dt) + Chassis.posY1000 / 10.0f * dt / (0.002
 3298              		.loc 1 547 69 view .LVU985
 3299 0734 B4F92838 		ldrsh	r3, [r4, #2088]
 3300 0738 07EE903A 		vmov	s15, r3	@ int
 547:Application/chassis_task.c ****         Chassis.posY = Chassis.posY * 0.002 / (0.002 + dt) + Chassis.posY1000 / 10.0f * dt / (0.002
 3301              		.loc 1 547 79 view .LVU986
 3302 073c F8EEE77A 		vcvt.f32.s32	s15, s15
 3303 0740 B2EE049A 		vmov.f32	s18, #1.0e+1
 3304 0744 87EE897A 		vdiv.f32	s14, s15, s18
 547:Application/chassis_task.c ****         Chassis.posY = Chassis.posY * 0.002 / (0.002 + dt) + Chassis.posY1000 / 10.0f * dt / (0.002
 3305              		.loc 1 547 87 view .LVU987
 3306 0748 68EE877A 		vmul.f32	s15, s17, s14
 3307 074c 17EE900A 		vmov	r0, s15
 3308 0750 FFF7FEFF 		bl	__aeabi_f2d
 3309              	.LVL135:
 547:Application/chassis_task.c ****         Chassis.posY = Chassis.posY * 0.002 / (0.002 + dt) + Chassis.posY1000 / 10.0f * dt / (0.002
 3310              		.loc 1 547 92 view .LVU988
 3311 0754 3246     		mov	r2, r6
 3312 0756 3B46     		mov	r3, r7
 3313 0758 FFF7FEFF 		bl	__aeabi_ddiv
 3314              	.LVL136:
 3315 075c 0246     		mov	r2, r0
 3316 075e 0B46     		mov	r3, r1
 547:Application/chassis_task.c ****         Chassis.posY = Chassis.posY * 0.002 / (0.002 + dt) + Chassis.posY1000 / 10.0f * dt / (0.002
 3317              		.loc 1 547 60 view .LVU989
ARM GAS  C:\Users\86152\AppData\Local\Temp\ccWGVtEI.s 			page 199


 3318 0760 4046     		mov	r0, r8
 3319 0762 4946     		mov	r1, r9
 3320 0764 FFF7FEFF 		bl	__aeabi_dadd
 3321              	.LVL137:
 3322 0768 FFF7FEFF 		bl	__aeabi_d2f
 3323              	.LVL138:
 3324 076c 08EE100A 		vmov	s16, r0
 547:Application/chassis_task.c ****         Chassis.posY = Chassis.posY * 0.002 / (0.002 + dt) + Chassis.posY1000 / 10.0f * dt / (0.002
 3325              		.loc 1 547 22 view .LVU990
 3326 0770 2860     		str	r0, [r5]	@ float
 548:Application/chassis_task.c ****         Chassis.posZ = Chassis.posZ1000 / 1000.0f;
 3327              		.loc 1 548 9 is_stmt 1 view .LVU991
 548:Application/chassis_task.c ****         Chassis.posZ = Chassis.posZ1000 / 1000.0f;
 3328              		.loc 1 548 31 is_stmt 0 view .LVU992
 3329 0772 04F63405 		addw	r5, r4, #2100
 3330 0776 2868     		ldr	r0, [r5]	@ float
 3331 0778 FFF7FEFF 		bl	__aeabi_f2d
 3332              	.LVL139:
 548:Application/chassis_task.c ****         Chassis.posZ = Chassis.posZ1000 / 1000.0f;
 3333              		.loc 1 548 37 view .LVU993
 3334 077c 34A3     		adr	r3, .L253+8
 3335 077e D3E90023 		ldrd	r2, [r3]
 3336 0782 FFF7FEFF 		bl	__aeabi_dmul
 3337              	.LVL140:
 548:Application/chassis_task.c ****         Chassis.posZ = Chassis.posZ1000 / 1000.0f;
 3338              		.loc 1 548 45 view .LVU994
 3339 0786 3246     		mov	r2, r6
 3340 0788 3B46     		mov	r3, r7
 3341 078a FFF7FEFF 		bl	__aeabi_ddiv
 3342              	.LVL141:
 3343 078e 8046     		mov	r8, r0
 3344 0790 8946     		mov	r9, r1
 548:Application/chassis_task.c ****         Chassis.posZ = Chassis.posZ1000 / 1000.0f;
 3345              		.loc 1 548 69 view .LVU995
 3346 0792 B4F92A38 		ldrsh	r3, [r4, #2090]
 3347 0796 07EE903A 		vmov	s15, r3	@ int
 548:Application/chassis_task.c ****         Chassis.posZ = Chassis.posZ1000 / 1000.0f;
 3348              		.loc 1 548 79 view .LVU996
 3349 079a F8EEE77A 		vcvt.f32.s32	s15, s15
 3350 079e 87EE897A 		vdiv.f32	s14, s15, s18
 548:Application/chassis_task.c ****         Chassis.posZ = Chassis.posZ1000 / 1000.0f;
 3351              		.loc 1 548 87 view .LVU997
 3352 07a2 68EE877A 		vmul.f32	s15, s17, s14
 3353 07a6 17EE900A 		vmov	r0, s15
 3354 07aa FFF7FEFF 		bl	__aeabi_f2d
 3355              	.LVL142:
 548:Application/chassis_task.c ****         Chassis.posZ = Chassis.posZ1000 / 1000.0f;
 3356              		.loc 1 548 92 view .LVU998
 3357 07ae 3246     		mov	r2, r6
 3358 07b0 3B46     		mov	r3, r7
 3359 07b2 FFF7FEFF 		bl	__aeabi_ddiv
 3360              	.LVL143:
 3361 07b6 0246     		mov	r2, r0
 3362 07b8 0B46     		mov	r3, r1
 548:Application/chassis_task.c ****         Chassis.posZ = Chassis.posZ1000 / 1000.0f;
 3363              		.loc 1 548 60 view .LVU999
 3364 07ba 4046     		mov	r0, r8
ARM GAS  C:\Users\86152\AppData\Local\Temp\ccWGVtEI.s 			page 200


 3365 07bc 4946     		mov	r1, r9
 3366 07be FFF7FEFF 		bl	__aeabi_dadd
 3367              	.LVL144:
 3368 07c2 FFF7FEFF 		bl	__aeabi_d2f
 3369              	.LVL145:
 3370 07c6 07EE900A 		vmov	s15, r0
 548:Application/chassis_task.c ****         Chassis.posZ = Chassis.posZ1000 / 1000.0f;
 3371              		.loc 1 548 22 view .LVU1000
 3372 07ca 2860     		str	r0, [r5]	@ float
 549:Application/chassis_task.c **** 
 3373              		.loc 1 549 9 is_stmt 1 view .LVU1001
 549:Application/chassis_task.c **** 
 3374              		.loc 1 549 31 is_stmt 0 view .LVU1002
 3375 07cc B4F92C38 		ldrsh	r3, [r4, #2092]
 3376 07d0 07EE103A 		vmov	s14, r3	@ int
 549:Application/chassis_task.c **** 
 3377              		.loc 1 549 41 view .LVU1003
 3378 07d4 B8EEC77A 		vcvt.f32.s32	s14, s14
 3379 07d8 9FED2A6A 		vldr.32	s12, .L253+60
 3380 07dc C7EE066A 		vdiv.f32	s13, s14, s12
 549:Application/chassis_task.c **** 
 3381              		.loc 1 549 22 view .LVU1004
 3382 07e0 04F63803 		addw	r3, r4, #2104
 3383 07e4 C3ED006A 		vstr.32	s13, [r3]
 551:Application/chassis_task.c ****         {
 3384              		.loc 1 551 9 is_stmt 1 view .LVU1005
 551:Application/chassis_task.c ****         {
 3385              		.loc 1 551 41 is_stmt 0 view .LVU1006
 3386 07e8 04F64804 		addw	r4, r4, #2120
 3387 07ec 94ED007A 		vldr.32	s14, [r4]
 551:Application/chassis_task.c ****         {
 3388              		.loc 1 551 32 view .LVU1007
 3389 07f0 38EE478A 		vsub.f32	s16, s16, s14
 551:Application/chassis_task.c ****         {
 3390              		.loc 1 551 14 view .LVU1008
 3391 07f4 B0EEC88A 		vabs.f32	s16, s16
 551:Application/chassis_task.c ****         {
 3392              		.loc 1 551 12 view .LVU1009
 3393 07f8 B2EE0E7A 		vmov.f32	s14, #1.5e+1
 3394 07fc B4EEC78A 		vcmpe.f32	s16, s14
 3395 0800 F1EE10FA 		vmrs	APSR_nzcv, FPSCR
 3396 0804 00F26182 		bhi	.L202
 551:Application/chassis_task.c ****         {
 3397              		.loc 1 551 87 discriminator 1 view .LVU1010
 3398 0808 1433     		adds	r3, r3, #20
 3399 080a 93ED007A 		vldr.32	s14, [r3]
 551:Application/chassis_task.c ****         {
 3400              		.loc 1 551 78 discriminator 1 view .LVU1011
 3401 080e 77EEC77A 		vsub.f32	s15, s15, s14
 551:Application/chassis_task.c ****         {
 3402              		.loc 1 551 60 discriminator 1 view .LVU1012
 3403 0812 F0EEE77A 		vabs.f32	s15, s15
 551:Application/chassis_task.c ****         {
 3404              		.loc 1 551 56 discriminator 1 view .LVU1013
 3405 0816 B2EE0E7A 		vmov.f32	s14, #1.5e+1
 3406 081a F4EEC77A 		vcmpe.f32	s15, s14
 3407 081e F1EE10FA 		vmrs	APSR_nzcv, FPSCR
ARM GAS  C:\Users\86152\AppData\Local\Temp\ccWGVtEI.s 			page 201


 3408 0822 00F25282 		bhi	.L202
 553:Application/chassis_task.c ****             if (InPosCount >= 500)
 3409              		.loc 1 553 13 is_stmt 1 view .LVU1014
 553:Application/chassis_task.c ****             if (InPosCount >= 500)
 3410              		.loc 1 553 23 is_stmt 0 view .LVU1015
 3411 0826 184A     		ldr	r2, .L253+64
 3412 0828 1368     		ldr	r3, [r2]
 3413 082a 0133     		adds	r3, r3, #1
 3414 082c 1360     		str	r3, [r2]
 554:Application/chassis_task.c ****             {
 3415              		.loc 1 554 13 is_stmt 1 view .LVU1016
 554:Application/chassis_task.c ****             {
 3416              		.loc 1 554 16 is_stmt 0 view .LVU1017
 3417 082e B3F5FA7F 		cmp	r3, #500
 3418 0832 C0F04F82 		bcc	.L205
 556:Application/chassis_task.c ****                 InPosCount = 500;
 3419              		.loc 1 556 17 is_stmt 1 view .LVU1018
 556:Application/chassis_task.c ****                 InPosCount = 500;
 3420              		.loc 1 556 27 is_stmt 0 view .LVU1019
 3421 0836 154B     		ldr	r3, .L253+68
 3422 0838 0122     		movs	r2, #1
 3423 083a 1A70     		strb	r2, [r3]
 557:Application/chassis_task.c ****             }
 3424              		.loc 1 557 17 is_stmt 1 view .LVU1020
 557:Application/chassis_task.c ****             }
 3425              		.loc 1 557 28 is_stmt 0 view .LVU1021
 3426 083c 124B     		ldr	r3, .L253+64
 3427 083e 4FF4FA72 		mov	r2, #500
 3428 0842 1A60     		str	r2, [r3]
 3429 0844 46E2     		b	.L205
 3430              	.L254:
 3431 0846 00BF     		.align	3
 3432              	.L253:
 3433 0848 9A999999 		.word	-1717986918
 3434 084c 9999B93F 		.word	1069128089
 3435 0850 FCA9F1D2 		.word	-755914244
 3436 0854 4D62603F 		.word	1063281229
 3437 0858 00000000 		.word	game_robot_HP
 3438 085c 00000000 		.word	.LANCHOR20
 3439 0860 00000000 		.word	.LANCHOR21
 3440 0864 00000000 		.word	game_status
 3441 0868 00000000 		.word	.LANCHOR23
 3442 086c 00000000 		.word	.LANCHOR24
 3443 0870 00000000 		.word	Chassis
 3444 0874 00000000 		.word	.LANCHOR12
 3445 0878 00000000 		.word	.LANCHOR25
 3446 087c 3333D340 		.word	1087583027
 3447 0880 00100000 		.word	Chassis+4096
 3448 0884 00007A44 		.word	1148846080
 3449 0888 00000000 		.word	.LANCHOR37
 3450 088c 00000000 		.word	.LANCHOR38
 3451 0890 67666666 		.word	1717986919
 3452              	.L242:
 395:Application/chassis_task.c ****                 tempVr = 250.0f;
 3453              		.loc 1 395 13 is_stmt 1 view .LVU1022
 395:Application/chassis_task.c ****                 tempVr = 250.0f;
 3454              		.loc 1 395 27 is_stmt 0 view .LVU1023
ARM GAS  C:\Users\86152\AppData\Local\Temp\ccWGVtEI.s 			page 202


 3455 0894 B44B     		ldr	r3, .L255+8
 3456 0896 1F78     		ldrb	r7, [r3]	@ zero_extendqisi2
 395:Application/chassis_task.c ****                 tempVr = 250.0f;
 3457              		.loc 1 395 16 view .LVU1024
 3458 0898 062F     		cmp	r7, #6
 3459 089a 02D0     		beq	.L161
 396:Application/chassis_task.c **** 
 3460              		.loc 1 396 17 is_stmt 1 view .LVU1025
 396:Application/chassis_task.c **** 
 3461              		.loc 1 396 24 is_stmt 0 view .LVU1026
 3462 089c B34B     		ldr	r3, .L255+12
 3463 089e B44A     		ldr	r2, .L255+16
 3464 08a0 1A60     		str	r2, [r3]	@ float
 3465              	.L161:
 398:Application/chassis_task.c **** 
 3466              		.loc 1 398 13 is_stmt 1 view .LVU1027
 398:Application/chassis_task.c **** 
 3467              		.loc 1 398 25 is_stmt 0 view .LVU1028
 3468 08a2 B44B     		ldr	r3, .L255+20
 3469 08a4 0122     		movs	r2, #1
 3470 08a6 1A70     		strb	r2, [r3]
 400:Application/chassis_task.c ****             posY100 = Chassis.posY * 0.002 / (0.002 + dt) + Chassis.posY1000 / 10 * dt / (0.002 + d
 3471              		.loc 1 400 13 is_stmt 1 view .LVU1029
 400:Application/chassis_task.c ****             posY100 = Chassis.posY * 0.002 / (0.002 + dt) + Chassis.posY1000 / 10 * dt / (0.002 + d
 3472              		.loc 1 400 30 is_stmt 0 view .LVU1030
 3473 08a8 B34E     		ldr	r6, .L255+24
 3474 08aa 06F50363 		add	r3, r6, #2096
 3475 08ae 1868     		ldr	r0, [r3]	@ float
 3476 08b0 FFF7FEFF 		bl	__aeabi_f2d
 3477              	.LVL146:
 400:Application/chassis_task.c ****             posY100 = Chassis.posY * 0.002 / (0.002 + dt) + Chassis.posY1000 / 10 * dt / (0.002 + d
 3478              		.loc 1 400 36 view .LVU1031
 3479 08b4 AAA3     		adr	r3, .L255
 3480 08b6 D3E90023 		ldrd	r2, [r3]
 3481 08ba FFF7FEFF 		bl	__aeabi_dmul
 3482              	.LVL147:
 3483 08be 8046     		mov	r8, r0
 3484 08c0 8946     		mov	r9, r1
 400:Application/chassis_task.c ****             posY100 = Chassis.posY * 0.002 / (0.002 + dt) + Chassis.posY1000 / 10 * dt / (0.002 + d
 3485              		.loc 1 400 53 view .LVU1032
 3486 08c2 AE4B     		ldr	r3, .L255+28
 3487 08c4 D3ED008A 		vldr.32	s17, [r3]
 3488 08c8 18EE900A 		vmov	r0, s17
 3489 08cc FFF7FEFF 		bl	__aeabi_f2d
 3490              	.LVL148:
 3491 08d0 A3A3     		adr	r3, .L255
 3492 08d2 D3E90023 		ldrd	r2, [r3]
 3493 08d6 FFF7FEFF 		bl	__aeabi_dadd
 3494              	.LVL149:
 3495 08da 0446     		mov	r4, r0
 3496 08dc 0D46     		mov	r5, r1
 400:Application/chassis_task.c ****             posY100 = Chassis.posY * 0.002 / (0.002 + dt) + Chassis.posY1000 / 10 * dt / (0.002 + d
 3497              		.loc 1 400 44 view .LVU1033
 3498 08de 0246     		mov	r2, r0
 3499 08e0 0B46     		mov	r3, r1
 3500 08e2 4046     		mov	r0, r8
 3501 08e4 4946     		mov	r1, r9
ARM GAS  C:\Users\86152\AppData\Local\Temp\ccWGVtEI.s 			page 203


 3502 08e6 FFF7FEFF 		bl	__aeabi_ddiv
 3503              	.LVL150:
 3504 08ea 8046     		mov	r8, r0
 3505 08ec 8946     		mov	r9, r1
 400:Application/chassis_task.c ****             posY100 = Chassis.posY * 0.002 / (0.002 + dt) + Chassis.posY1000 / 10 * dt / (0.002 + d
 3506              		.loc 1 400 68 view .LVU1034
 3507 08ee B6F92838 		ldrsh	r3, [r6, #2088]
 400:Application/chassis_task.c ****             posY100 = Chassis.posY * 0.002 / (0.002 + dt) + Chassis.posY1000 / 10 * dt / (0.002 + d
 3508              		.loc 1 400 83 view .LVU1035
 3509 08f2 DFF8F4A2 		ldr	r10, .L255+136
 3510 08f6 8AFB0312 		smull	r1, r2, r10, r3
 3511 08fa DB17     		asrs	r3, r3, #31
 3512 08fc C3EBA203 		rsb	r3, r3, r2, asr #2
 3513 0900 1BB2     		sxth	r3, r3
 3514 0902 07EE903A 		vmov	s15, r3	@ int
 3515 0906 F8EEE77A 		vcvt.f32.s32	s15, s15
 3516 090a 67EEA87A 		vmul.f32	s15, s15, s17
 3517 090e 17EE900A 		vmov	r0, s15
 3518 0912 FFF7FEFF 		bl	__aeabi_f2d
 3519              	.LVL151:
 400:Application/chassis_task.c ****             posY100 = Chassis.posY * 0.002 / (0.002 + dt) + Chassis.posY1000 / 10 * dt / (0.002 + d
 3520              		.loc 1 400 88 view .LVU1036
 3521 0916 2246     		mov	r2, r4
 3522 0918 2B46     		mov	r3, r5
 3523 091a FFF7FEFF 		bl	__aeabi_ddiv
 3524              	.LVL152:
 3525 091e 0246     		mov	r2, r0
 3526 0920 0B46     		mov	r3, r1
 400:Application/chassis_task.c ****             posY100 = Chassis.posY * 0.002 / (0.002 + dt) + Chassis.posY1000 / 10 * dt / (0.002 + d
 3527              		.loc 1 400 59 view .LVU1037
 3528 0922 4046     		mov	r0, r8
 3529 0924 4946     		mov	r1, r9
 3530 0926 FFF7FEFF 		bl	__aeabi_dadd
 3531              	.LVL153:
 3532 092a FFF7FEFF 		bl	__aeabi_d2f
 3533              	.LVL154:
 3534 092e 08EE100A 		vmov	s16, r0
 400:Application/chassis_task.c ****             posY100 = Chassis.posY * 0.002 / (0.002 + dt) + Chassis.posY1000 / 10 * dt / (0.002 + d
 3535              		.loc 1 400 21 view .LVU1038
 3536 0932 934B     		ldr	r3, .L255+32
 3537 0934 1860     		str	r0, [r3]	@ float
 401:Application/chassis_task.c **** 
 3538              		.loc 1 401 13 is_stmt 1 view .LVU1039
 401:Application/chassis_task.c **** 
 3539              		.loc 1 401 30 is_stmt 0 view .LVU1040
 3540 0936 06F63403 		addw	r3, r6, #2100
 3541 093a 1868     		ldr	r0, [r3]	@ float
 3542 093c FFF7FEFF 		bl	__aeabi_f2d
 3543              	.LVL155:
 401:Application/chassis_task.c **** 
 3544              		.loc 1 401 36 view .LVU1041
 3545 0940 87A3     		adr	r3, .L255
 3546 0942 D3E90023 		ldrd	r2, [r3]
 3547 0946 FFF7FEFF 		bl	__aeabi_dmul
 3548              	.LVL156:
 401:Application/chassis_task.c **** 
 3549              		.loc 1 401 44 view .LVU1042
ARM GAS  C:\Users\86152\AppData\Local\Temp\ccWGVtEI.s 			page 204


 3550 094a 2246     		mov	r2, r4
 3551 094c 2B46     		mov	r3, r5
 3552 094e FFF7FEFF 		bl	__aeabi_ddiv
 3553              	.LVL157:
 3554 0952 8046     		mov	r8, r0
 3555 0954 8946     		mov	r9, r1
 401:Application/chassis_task.c **** 
 3556              		.loc 1 401 68 view .LVU1043
 3557 0956 B6F92A38 		ldrsh	r3, [r6, #2090]
 401:Application/chassis_task.c **** 
 3558              		.loc 1 401 83 view .LVU1044
 3559 095a 8AFB032A 		smull	r2, r10, r10, r3
 3560 095e DB17     		asrs	r3, r3, #31
 3561 0960 C3EBAA03 		rsb	r3, r3, r10, asr #2
 3562 0964 1BB2     		sxth	r3, r3
 3563 0966 07EE903A 		vmov	s15, r3	@ int
 3564 096a F8EEE77A 		vcvt.f32.s32	s15, s15
 3565 096e 67EEA87A 		vmul.f32	s15, s15, s17
 3566 0972 17EE900A 		vmov	r0, s15
 3567 0976 FFF7FEFF 		bl	__aeabi_f2d
 3568              	.LVL158:
 401:Application/chassis_task.c **** 
 3569              		.loc 1 401 88 view .LVU1045
 3570 097a 2246     		mov	r2, r4
 3571 097c 2B46     		mov	r3, r5
 3572 097e FFF7FEFF 		bl	__aeabi_ddiv
 3573              	.LVL159:
 3574 0982 0246     		mov	r2, r0
 3575 0984 0B46     		mov	r3, r1
 401:Application/chassis_task.c **** 
 3576              		.loc 1 401 59 view .LVU1046
 3577 0986 4046     		mov	r0, r8
 3578 0988 4946     		mov	r1, r9
 3579 098a FFF7FEFF 		bl	__aeabi_dadd
 3580              	.LVL160:
 3581 098e FFF7FEFF 		bl	__aeabi_d2f
 3582              	.LVL161:
 3583 0992 00EE100A 		vmov	s0, r0
 401:Application/chassis_task.c **** 
 3584              		.loc 1 401 21 view .LVU1047
 3585 0996 7B4B     		ldr	r3, .L255+36
 3586 0998 1860     		str	r0, [r3]	@ float
 403:Application/chassis_task.c ****             switch (reach_num)
 3587              		.loc 1 403 13 is_stmt 1 view .LVU1048
 403:Application/chassis_task.c ****             switch (reach_num)
 3588              		.loc 1 403 24 is_stmt 0 view .LVU1049
 3589 099a 7B4B     		ldr	r3, .L255+40
 3590 099c 7B4A     		ldr	r2, .L255+44
 3591 099e 1A60     		str	r2, [r3]	@ float
 404:Application/chassis_task.c ****             {
 3592              		.loc 1 404 13 is_stmt 1 view .LVU1050
 3593 09a0 052F     		cmp	r7, #5
 3594 09a2 0DD8     		bhi	.L162
 3595 09a4 DFE807F0 		tbb	[pc, r7]
 3596              	.L164:
 3597 09a8 03       		.byte	(.L169-.L164)/2
 3598 09a9 79       		.byte	(.L168-.L164)/2
ARM GAS  C:\Users\86152\AppData\Local\Temp\ccWGVtEI.s 			page 205


 3599 09aa 83       		.byte	(.L167-.L164)/2
 3600 09ab 8D       		.byte	(.L166-.L164)/2
 3601 09ac 97       		.byte	(.L165-.L164)/2
 3602 09ad A1       		.byte	(.L163-.L164)/2
 3603              		.p2align 1
 3604              	.L169:
 407:Application/chassis_task.c ****                 Chassis.spinnig_center[1] = -223.5f;
 3605              		.loc 1 407 17 view .LVU1051
 407:Application/chassis_task.c ****                 Chassis.spinnig_center[1] = -223.5f;
 3606              		.loc 1 407 43 is_stmt 0 view .LVU1052
 3607 09ae 784B     		ldr	r3, .L255+48
 3608 09b0 03F5C152 		add	r2, r3, #6176
 3609 09b4 7749     		ldr	r1, .L255+52
 3610 09b6 D161     		str	r1, [r2, #28]	@ float
 408:Application/chassis_task.c ****                 break;
 3611              		.loc 1 408 17 is_stmt 1 view .LVU1053
 408:Application/chassis_task.c ****                 break;
 3612              		.loc 1 408 43 is_stmt 0 view .LVU1054
 3613 09b8 03F5C253 		add	r3, r3, #6208
 3614 09bc 764A     		ldr	r2, .L255+56
 3615 09be 1A60     		str	r2, [r3]	@ float
 409:Application/chassis_task.c **** 
 3616              		.loc 1 409 17 is_stmt 1 view .LVU1055
 3617              	.L162:
 436:Application/chassis_task.c ****                              (posY100 - Chassis.spinnig_center[1]) * (posY100 - Chassis.spinnig_cen
 3618              		.loc 1 436 13 view .LVU1056
 436:Application/chassis_task.c ****                              (posY100 - Chassis.spinnig_center[1]) * (posY100 - Chassis.spinnig_cen
 3619              		.loc 1 436 59 is_stmt 0 view .LVU1057
 3620 09c0 734B     		ldr	r3, .L255+48
 3621 09c2 03F5C152 		add	r2, r3, #6176
 3622 09c6 D2ED077A 		vldr.32	s15, [r2, #28]
 436:Application/chassis_task.c ****                              (posY100 - Chassis.spinnig_center[1]) * (posY100 - Chassis.spinnig_cen
 3623              		.loc 1 436 35 view .LVU1058
 3624 09ca 38EE678A 		vsub.f32	s16, s16, s15
 436:Application/chassis_task.c ****                              (posY100 - Chassis.spinnig_center[1]) * (posY100 - Chassis.spinnig_cen
 3625              		.loc 1 436 64 view .LVU1059
 3626 09ce 28EE088A 		vmul.f32	s16, s16, s16
 437:Application/chassis_task.c ****                          &SpiningDistance);
 3627              		.loc 1 437 63 view .LVU1060
 3628 09d2 03F5C253 		add	r3, r3, #6208
 3629 09d6 D3ED007A 		vldr.32	s15, [r3]
 437:Application/chassis_task.c ****                          &SpiningDistance);
 3630              		.loc 1 437 39 view .LVU1061
 3631 09da 30EE670A 		vsub.f32	s0, s0, s15
 437:Application/chassis_task.c ****                          &SpiningDistance);
 3632              		.loc 1 437 68 view .LVU1062
 3633 09de 20EE000A 		vmul.f32	s0, s0, s0
 436:Application/chassis_task.c ****                              (posY100 - Chassis.spinnig_center[1]) * (posY100 - Chassis.spinnig_cen
 3634              		.loc 1 436 13 view .LVU1063
 3635 09e2 38EE000A 		vadd.f32	s0, s16, s0
 3636              	.LVL162:
 3637              	.LBB19:
 3638              	.LBI19:
6100:Components/Algorithm/Include/arm_math.h ****   float32_t in,
 3639              		.loc 2 6100 30 is_stmt 1 view .LVU1064
 3640              	.LBB20:
6104:Components/Algorithm/Include/arm_math.h ****     {
ARM GAS  C:\Users\86152\AppData\Local\Temp\ccWGVtEI.s 			page 206


 3641              		.loc 2 6104 5 view .LVU1065
6104:Components/Algorithm/Include/arm_math.h ****     {
 3642              		.loc 2 6104 7 is_stmt 0 view .LVU1066
 3643 09e6 B5EEC00A 		vcmpe.f32	s0, #0
 3644 09ea F1EE10FA 		vmrs	APSR_nzcv, FPSCR
 3645 09ee C0F28680 		blt	.L233
6111:Components/Algorithm/Include/arm_math.h **** #endif
 3646              		.loc 2 6111 7 is_stmt 1 view .LVU1067
6111:Components/Algorithm/Include/arm_math.h **** #endif
 3647              		.loc 2 6111 15 is_stmt 0 view .LVU1068
 3648 09f2 FFF7FEFF 		bl	sqrtf
 3649              	.LVL163:
6111:Components/Algorithm/Include/arm_math.h **** #endif
 3650              		.loc 2 6111 13 view .LVU1069
 3651 09f6 694B     		ldr	r3, .L255+60
 3652 09f8 83ED000A 		vstr.32	s0, [r3]
 3653              		.loc 2 6114 7 is_stmt 1 view .LVU1070
 3654              	.L172:
 3655              	.LVL164:
 3656              		.loc 2 6114 7 is_stmt 0 view .LVU1071
 3657              	.LBE20:
 3658              	.LBE19:
 440:Application/chassis_task.c ****                 reach_count++;
 3659              		.loc 1 440 13 is_stmt 1 view .LVU1072
 440:Application/chassis_task.c ****                 reach_count++;
 3660              		.loc 1 440 33 is_stmt 0 view .LVU1073
 3661 09fc 674B     		ldr	r3, .L255+60
 3662 09fe 93ED007A 		vldr.32	s14, [r3]
 440:Application/chassis_task.c ****                 reach_count++;
 3663              		.loc 1 440 16 view .LVU1074
 3664 0a02 DFED677A 		vldr.32	s15, .L255+64
 3665 0a06 B4EEE77A 		vcmpe.f32	s14, s15
 3666 0a0a F1EE10FA 		vmrs	APSR_nzcv, FPSCR
 3667 0a0e 7AD5     		bpl	.L234
 441:Application/chassis_task.c ****             else
 3668              		.loc 1 441 17 is_stmt 1 view .LVU1075
 441:Application/chassis_task.c ****             else
 3669              		.loc 1 441 28 is_stmt 0 view .LVU1076
 3670 0a10 644A     		ldr	r2, .L255+68
 3671 0a12 1368     		ldr	r3, [r2]
 3672 0a14 0133     		adds	r3, r3, #1
 3673 0a16 1360     		str	r3, [r2]
 3674              	.L175:
 445:Application/chassis_task.c ****             {
 3675              		.loc 1 445 13 is_stmt 1 view .LVU1077
 445:Application/chassis_task.c ****             {
 3676              		.loc 1 445 29 is_stmt 0 view .LVU1078
 3677 0a18 624B     		ldr	r3, .L255+68
 3678 0a1a 1B68     		ldr	r3, [r3]
 445:Application/chassis_task.c ****             {
 3679              		.loc 1 445 16 view .LVU1079
 3680 0a1c B3F5FA6F 		cmp	r3, #2000
 3681 0a20 09D9     		bls	.L176
 447:Application/chassis_task.c ****                 {
 3682              		.loc 1 447 17 is_stmt 1 view .LVU1080
 447:Application/chassis_task.c ****                 {
 3683              		.loc 1 447 31 is_stmt 0 view .LVU1081
ARM GAS  C:\Users\86152\AppData\Local\Temp\ccWGVtEI.s 			page 207


 3684 0a22 514B     		ldr	r3, .L255+8
 3685 0a24 1B78     		ldrb	r3, [r3]	@ zero_extendqisi2
 447:Application/chassis_task.c ****                 {
 3686              		.loc 1 447 20 view .LVU1082
 3687 0a26 002B     		cmp	r3, #0
 3688 0a28 71D1     		bne	.L177
 449:Application/chassis_task.c ****                     reach_count = 0;
 3689              		.loc 1 449 21 is_stmt 1 view .LVU1083
 449:Application/chassis_task.c ****                     reach_count = 0;
 3690              		.loc 1 449 31 is_stmt 0 view .LVU1084
 3691 0a2a 4F4B     		ldr	r3, .L255+8
 3692 0a2c 0122     		movs	r2, #1
 3693 0a2e 1A70     		strb	r2, [r3]
 450:Application/chassis_task.c ****                 }
 3694              		.loc 1 450 21 is_stmt 1 view .LVU1085
 450:Application/chassis_task.c ****                 }
 3695              		.loc 1 450 33 is_stmt 0 view .LVU1086
 3696 0a30 5C4B     		ldr	r3, .L255+68
 3697 0a32 0022     		movs	r2, #0
 3698 0a34 1A60     		str	r2, [r3]
 3699              	.L176:
 479:Application/chassis_task.c ****             {
 3700              		.loc 1 479 13 is_stmt 1 view .LVU1087
 479:Application/chassis_task.c ****             {
 3701              		.loc 1 479 27 is_stmt 0 view .LVU1088
 3702 0a36 4C4B     		ldr	r3, .L255+8
 3703 0a38 1B78     		ldrb	r3, [r3]	@ zero_extendqisi2
 479:Application/chassis_task.c ****             {
 3704              		.loc 1 479 16 view .LVU1089
 3705 0a3a 062B     		cmp	r3, #6
 3706 0a3c 7FF457AE 		bne	.L159
 481:Application/chassis_task.c ****                 spinnig_center0_temp = -415.7f;
 3707              		.loc 1 481 17 is_stmt 1 view .LVU1090
 481:Application/chassis_task.c ****                 spinnig_center0_temp = -415.7f;
 3708              		.loc 1 481 24 is_stmt 0 view .LVU1091
 3709 0a40 4A4B     		ldr	r3, .L255+12
 3710 0a42 594A     		ldr	r2, .L255+72
 3711 0a44 1A60     		str	r2, [r3]	@ float
 482:Application/chassis_task.c ****                 spinnig_center1_temp = -99.4f;
 3712              		.loc 1 482 17 is_stmt 1 view .LVU1092
 482:Application/chassis_task.c ****                 spinnig_center1_temp = -99.4f;
 3713              		.loc 1 482 38 is_stmt 0 view .LVU1093
 3714 0a46 9FED598A 		vldr.32	s16, .L255+76
 3715 0a4a 594B     		ldr	r3, .L255+80
 3716 0a4c 83ED008A 		vstr.32	s16, [r3]
 483:Application/chassis_task.c **** 
 3717              		.loc 1 483 17 is_stmt 1 view .LVU1094
 483:Application/chassis_task.c **** 
 3718              		.loc 1 483 38 is_stmt 0 view .LVU1095
 3719 0a50 584C     		ldr	r4, .L255+84
 3720 0a52 594B     		ldr	r3, .L255+88
 3721 0a54 2360     		str	r3, [r4]	@ float
 485:Application/chassis_task.c ****                 Chassis.spinnig_center[1] = spinnig_center1_temp;
 3722              		.loc 1 485 17 is_stmt 1 view .LVU1096
 485:Application/chassis_task.c ****                 Chassis.spinnig_center[1] = spinnig_center1_temp;
 3723              		.loc 1 485 90 is_stmt 0 view .LVU1097
 3724 0a56 594B     		ldr	r3, .L255+92
ARM GAS  C:\Users\86152\AppData\Local\Temp\ccWGVtEI.s 			page 208


 3725 0a58 D3ED007A 		vldr.32	s15, [r3]
 3726 0a5c 9FED587A 		vldr.32	s14, .L255+96
 3727 0a60 67EE877A 		vmul.f32	s15, s15, s14
 485:Application/chassis_task.c ****                 Chassis.spinnig_center[1] = spinnig_center1_temp;
 3728              		.loc 1 485 76 view .LVU1098
 3729 0a64 B6EE000A 		vmov.f32	s0, #5.0e-1
 3730 0a68 27EE800A 		vmul.f32	s0, s15, s0
 3731 0a6c FFF7FEFF 		bl	arm_sin_f32
 3732              	.LVL165:
 485:Application/chassis_task.c ****                 Chassis.spinnig_center[1] = spinnig_center1_temp;
 3733              		.loc 1 485 74 view .LVU1099
 3734 0a70 9FED547A 		vldr.32	s14, .L255+100
 3735 0a74 60EE077A 		vmul.f32	s15, s0, s14
 485:Application/chassis_task.c ****                 Chassis.spinnig_center[1] = spinnig_center1_temp;
 3736              		.loc 1 485 66 view .LVU1100
 3737 0a78 78EE677A 		vsub.f32	s15, s16, s15
 485:Application/chassis_task.c ****                 Chassis.spinnig_center[1] = spinnig_center1_temp;
 3738              		.loc 1 485 100 view .LVU1101
 3739 0a7c 77EEC77A 		vsub.f32	s15, s15, s14
 485:Application/chassis_task.c ****                 Chassis.spinnig_center[1] = spinnig_center1_temp;
 3740              		.loc 1 485 43 view .LVU1102
 3741 0a80 434B     		ldr	r3, .L255+48
 3742 0a82 03F5C152 		add	r2, r3, #6176
 3743 0a86 C2ED077A 		vstr.32	s15, [r2, #28]
 486:Application/chassis_task.c ****                 move_ratio = 0.35;
 3744              		.loc 1 486 17 is_stmt 1 view .LVU1103
 486:Application/chassis_task.c ****                 move_ratio = 0.35;
 3745              		.loc 1 486 43 is_stmt 0 view .LVU1104
 3746 0a8a 03F5C253 		add	r3, r3, #6208
 3747 0a8e 2268     		ldr	r2, [r4]	@ float
 3748 0a90 1A60     		str	r2, [r3]	@ float
 487:Application/chassis_task.c ****             }
 3749              		.loc 1 487 17 is_stmt 1 view .LVU1105
 487:Application/chassis_task.c ****             }
 3750              		.loc 1 487 28 is_stmt 0 view .LVU1106
 3751 0a92 3D4B     		ldr	r3, .L255+40
 3752 0a94 4C4A     		ldr	r2, .L255+104
 3753 0a96 1A60     		str	r2, [r3]	@ float
 3754 0a98 29E6     		b	.L159
 3755              	.L168:
 412:Application/chassis_task.c ****                 Chassis.spinnig_center[1] = -301.8f;
 3756              		.loc 1 412 17 is_stmt 1 view .LVU1107
 412:Application/chassis_task.c ****                 Chassis.spinnig_center[1] = -301.8f;
 3757              		.loc 1 412 43 is_stmt 0 view .LVU1108
 3758 0a9a 3D4B     		ldr	r3, .L255+48
 3759 0a9c 03F5C152 		add	r2, r3, #6176
 3760 0aa0 4A49     		ldr	r1, .L255+108
 3761 0aa2 D161     		str	r1, [r2, #28]	@ float
 413:Application/chassis_task.c ****                 break;
 3762              		.loc 1 413 17 is_stmt 1 view .LVU1109
 413:Application/chassis_task.c ****                 break;
 3763              		.loc 1 413 43 is_stmt 0 view .LVU1110
 3764 0aa4 03F5C253 		add	r3, r3, #6208
 3765 0aa8 494A     		ldr	r2, .L255+112
 3766 0aaa 1A60     		str	r2, [r3]	@ float
 414:Application/chassis_task.c **** 
 3767              		.loc 1 414 17 is_stmt 1 view .LVU1111
ARM GAS  C:\Users\86152\AppData\Local\Temp\ccWGVtEI.s 			page 209


 3768 0aac 88E7     		b	.L162
 3769              	.L167:
 417:Application/chassis_task.c ****                 Chassis.spinnig_center[1] = -301.8f;
 3770              		.loc 1 417 17 view .LVU1112
 417:Application/chassis_task.c ****                 Chassis.spinnig_center[1] = -301.8f;
 3771              		.loc 1 417 43 is_stmt 0 view .LVU1113
 3772 0aae 384B     		ldr	r3, .L255+48
 3773 0ab0 03F5C152 		add	r2, r3, #6176
 3774 0ab4 4749     		ldr	r1, .L255+116
 3775 0ab6 D161     		str	r1, [r2, #28]	@ float
 418:Application/chassis_task.c ****                 break;
 3776              		.loc 1 418 17 is_stmt 1 view .LVU1114
 418:Application/chassis_task.c ****                 break;
 3777              		.loc 1 418 43 is_stmt 0 view .LVU1115
 3778 0ab8 03F5C253 		add	r3, r3, #6208
 3779 0abc 444A     		ldr	r2, .L255+112
 3780 0abe 1A60     		str	r2, [r3]	@ float
 419:Application/chassis_task.c **** 
 3781              		.loc 1 419 17 is_stmt 1 view .LVU1116
 3782 0ac0 7EE7     		b	.L162
 3783              	.L166:
 422:Application/chassis_task.c ****                 Chassis.spinnig_center[1] = -301.8f;
 3784              		.loc 1 422 17 view .LVU1117
 422:Application/chassis_task.c ****                 Chassis.spinnig_center[1] = -301.8f;
 3785              		.loc 1 422 43 is_stmt 0 view .LVU1118
 3786 0ac2 334B     		ldr	r3, .L255+48
 3787 0ac4 03F5C152 		add	r2, r3, #6176
 3788 0ac8 4349     		ldr	r1, .L255+120
 3789 0aca D161     		str	r1, [r2, #28]	@ float
 423:Application/chassis_task.c ****                 break;
 3790              		.loc 1 423 17 is_stmt 1 view .LVU1119
 423:Application/chassis_task.c ****                 break;
 3791              		.loc 1 423 43 is_stmt 0 view .LVU1120
 3792 0acc 03F5C253 		add	r3, r3, #6208
 3793 0ad0 3F4A     		ldr	r2, .L255+112
 3794 0ad2 1A60     		str	r2, [r3]	@ float
 424:Application/chassis_task.c **** 
 3795              		.loc 1 424 17 is_stmt 1 view .LVU1121
 3796 0ad4 74E7     		b	.L162
 3797              	.L165:
 427:Application/chassis_task.c ****                 Chassis.spinnig_center[1] = -104.4f;
 3798              		.loc 1 427 17 view .LVU1122
 427:Application/chassis_task.c ****                 Chassis.spinnig_center[1] = -104.4f;
 3799              		.loc 1 427 43 is_stmt 0 view .LVU1123
 3800 0ad6 2E4B     		ldr	r3, .L255+48
 3801 0ad8 03F5C152 		add	r2, r3, #6176
 3802 0adc 3F49     		ldr	r1, .L255+124
 3803 0ade D161     		str	r1, [r2, #28]	@ float
 428:Application/chassis_task.c ****                 break;
 3804              		.loc 1 428 17 is_stmt 1 view .LVU1124
 428:Application/chassis_task.c ****                 break;
 3805              		.loc 1 428 43 is_stmt 0 view .LVU1125
 3806 0ae0 03F5C253 		add	r3, r3, #6208
 3807 0ae4 3E4A     		ldr	r2, .L255+128
 3808 0ae6 1A60     		str	r2, [r3]	@ float
 429:Application/chassis_task.c **** 
 3809              		.loc 1 429 17 is_stmt 1 view .LVU1126
ARM GAS  C:\Users\86152\AppData\Local\Temp\ccWGVtEI.s 			page 210


 3810 0ae8 6AE7     		b	.L162
 3811              	.L163:
 432:Application/chassis_task.c ****                 Chassis.spinnig_center[1] = -104.4f;
 3812              		.loc 1 432 17 view .LVU1127
 432:Application/chassis_task.c ****                 Chassis.spinnig_center[1] = -104.4f;
 3813              		.loc 1 432 43 is_stmt 0 view .LVU1128
 3814 0aea 294B     		ldr	r3, .L255+48
 3815 0aec 03F5C152 		add	r2, r3, #6176
 3816 0af0 3C49     		ldr	r1, .L255+132
 3817 0af2 D161     		str	r1, [r2, #28]	@ float
 433:Application/chassis_task.c ****                 break;
 3818              		.loc 1 433 17 is_stmt 1 view .LVU1129
 433:Application/chassis_task.c ****                 break;
 3819              		.loc 1 433 43 is_stmt 0 view .LVU1130
 3820 0af4 03F5C253 		add	r3, r3, #6208
 3821 0af8 394A     		ldr	r2, .L255+128
 3822 0afa 1A60     		str	r2, [r3]	@ float
 434:Application/chassis_task.c ****             }
 3823              		.loc 1 434 17 is_stmt 1 view .LVU1131
 3824 0afc 60E7     		b	.L162
 3825              	.LVL166:
 3826              	.L233:
 3827              	.LBB22:
 3828              	.LBB21:
6115:Components/Algorithm/Include/arm_math.h ****     }
6116:Components/Algorithm/Include/arm_math.h ****     else
6117:Components/Algorithm/Include/arm_math.h ****     {
6118:Components/Algorithm/Include/arm_math.h ****       *pOut = 0.0f;
 3829              		.loc 2 6118 7 view .LVU1132
 3830              		.loc 2 6118 13 is_stmt 0 view .LVU1133
 3831 0afe 274B     		ldr	r3, .L255+60
 3832 0b00 0022     		movs	r2, #0
 3833 0b02 1A60     		str	r2, [r3]	@ float
6119:Components/Algorithm/Include/arm_math.h ****       return (ARM_MATH_ARGUMENT_ERROR);
 3834              		.loc 2 6119 7 is_stmt 1 view .LVU1134
 3835              		.loc 2 6119 14 is_stmt 0 view .LVU1135
 3836 0b04 7AE7     		b	.L172
 3837              	.LVL167:
 3838              	.L234:
 3839              		.loc 2 6119 14 view .LVU1136
 3840              	.LBE21:
 3841              	.LBE22:
 443:Application/chassis_task.c **** 
 3842              		.loc 1 443 17 is_stmt 1 view .LVU1137
 443:Application/chassis_task.c **** 
 3843              		.loc 1 443 29 is_stmt 0 view .LVU1138
 3844 0b06 274B     		ldr	r3, .L255+68
 3845 0b08 0022     		movs	r2, #0
 3846 0b0a 1A60     		str	r2, [r3]
 3847 0b0c 84E7     		b	.L175
 3848              	.L177:
 452:Application/chassis_task.c ****                 {
 3849              		.loc 1 452 22 is_stmt 1 view .LVU1139
 452:Application/chassis_task.c ****                 {
 3850              		.loc 1 452 25 is_stmt 0 view .LVU1140
 3851 0b0e 012B     		cmp	r3, #1
 3852 0b10 0ED0     		beq	.L243
ARM GAS  C:\Users\86152\AppData\Local\Temp\ccWGVtEI.s 			page 211


 457:Application/chassis_task.c ****                 {
 3853              		.loc 1 457 22 is_stmt 1 view .LVU1141
 457:Application/chassis_task.c ****                 {
 3854              		.loc 1 457 25 is_stmt 0 view .LVU1142
 3855 0b12 022B     		cmp	r3, #2
 3856 0b14 13D0     		beq	.L244
 462:Application/chassis_task.c ****                 {
 3857              		.loc 1 462 22 is_stmt 1 view .LVU1143
 462:Application/chassis_task.c ****                 {
 3858              		.loc 1 462 25 is_stmt 0 view .LVU1144
 3859 0b16 032B     		cmp	r3, #3
 3860 0b18 18D0     		beq	.L245
 467:Application/chassis_task.c ****                 {
 3861              		.loc 1 467 22 is_stmt 1 view .LVU1145
 467:Application/chassis_task.c ****                 {
 3862              		.loc 1 467 25 is_stmt 0 view .LVU1146
 3863 0b1a 042B     		cmp	r3, #4
 3864 0b1c 66D0     		beq	.L246
 472:Application/chassis_task.c ****                 {
 3865              		.loc 1 472 22 is_stmt 1 view .LVU1147
 472:Application/chassis_task.c ****                 {
 3866              		.loc 1 472 25 is_stmt 0 view .LVU1148
 3867 0b1e 052B     		cmp	r3, #5
 3868 0b20 89D1     		bne	.L176
 474:Application/chassis_task.c ****                     reach_count = 0;
 3869              		.loc 1 474 21 is_stmt 1 view .LVU1149
 474:Application/chassis_task.c ****                     reach_count = 0;
 3870              		.loc 1 474 31 is_stmt 0 view .LVU1150
 3871 0b22 114B     		ldr	r3, .L255+8
 3872 0b24 0622     		movs	r2, #6
 3873 0b26 1A70     		strb	r2, [r3]
 475:Application/chassis_task.c ****                 }
 3874              		.loc 1 475 21 is_stmt 1 view .LVU1151
 475:Application/chassis_task.c ****                 }
 3875              		.loc 1 475 33 is_stmt 0 view .LVU1152
 3876 0b28 1E4B     		ldr	r3, .L255+68
 3877 0b2a 0022     		movs	r2, #0
 3878 0b2c 1A60     		str	r2, [r3]
 3879 0b2e 82E7     		b	.L176
 3880              	.L243:
 454:Application/chassis_task.c ****                     reach_count = 0;
 3881              		.loc 1 454 21 is_stmt 1 view .LVU1153
 454:Application/chassis_task.c ****                     reach_count = 0;
 3882              		.loc 1 454 31 is_stmt 0 view .LVU1154
 3883 0b30 0D4B     		ldr	r3, .L255+8
 3884 0b32 0222     		movs	r2, #2
 3885 0b34 1A70     		strb	r2, [r3]
 455:Application/chassis_task.c ****                 }
 3886              		.loc 1 455 21 is_stmt 1 view .LVU1155
 455:Application/chassis_task.c ****                 }
 3887              		.loc 1 455 33 is_stmt 0 view .LVU1156
 3888 0b36 1B4B     		ldr	r3, .L255+68
 3889 0b38 0022     		movs	r2, #0
 3890 0b3a 1A60     		str	r2, [r3]
 3891 0b3c 7BE7     		b	.L176
 3892              	.L244:
 459:Application/chassis_task.c ****                     reach_count = 0;
ARM GAS  C:\Users\86152\AppData\Local\Temp\ccWGVtEI.s 			page 212


 3893              		.loc 1 459 21 is_stmt 1 view .LVU1157
 459:Application/chassis_task.c ****                     reach_count = 0;
 3894              		.loc 1 459 31 is_stmt 0 view .LVU1158
 3895 0b3e 0A4B     		ldr	r3, .L255+8
 3896 0b40 0322     		movs	r2, #3
 3897 0b42 1A70     		strb	r2, [r3]
 460:Application/chassis_task.c ****                 }
 3898              		.loc 1 460 21 is_stmt 1 view .LVU1159
 460:Application/chassis_task.c ****                 }
 3899              		.loc 1 460 33 is_stmt 0 view .LVU1160
 3900 0b44 174B     		ldr	r3, .L255+68
 3901 0b46 0022     		movs	r2, #0
 3902 0b48 1A60     		str	r2, [r3]
 3903 0b4a 74E7     		b	.L176
 3904              	.L245:
 464:Application/chassis_task.c ****                     reach_count = 0;
 3905              		.loc 1 464 21 is_stmt 1 view .LVU1161
 464:Application/chassis_task.c ****                     reach_count = 0;
 3906              		.loc 1 464 31 is_stmt 0 view .LVU1162
 3907 0b4c 064B     		ldr	r3, .L255+8
 3908 0b4e 0422     		movs	r2, #4
 3909 0b50 1A70     		strb	r2, [r3]
 465:Application/chassis_task.c ****                 }
 3910              		.loc 1 465 21 is_stmt 1 view .LVU1163
 465:Application/chassis_task.c ****                 }
 3911              		.loc 1 465 33 is_stmt 0 view .LVU1164
 3912 0b52 144B     		ldr	r3, .L255+68
 3913 0b54 0022     		movs	r2, #0
 3914 0b56 1A60     		str	r2, [r3]
 3915 0b58 6DE7     		b	.L176
 3916              	.L256:
 3917 0b5a 00BFAFF3 		.align	3
 3917      0080
 3918              	.L255:
 3919 0b60 FCA9F1D2 		.word	-755914244
 3920 0b64 4D62603F 		.word	1063281229
 3921 0b68 00000000 		.word	.LANCHOR26
 3922 0b6c 00000000 		.word	.LANCHOR23
 3923 0b70 00007A43 		.word	1132068864
 3924 0b74 00000000 		.word	.LANCHOR24
 3925 0b78 00100000 		.word	Chassis+4096
 3926 0b7c 00000000 		.word	.LANCHOR12
 3927 0b80 00000000 		.word	.LANCHOR27
 3928 0b84 00000000 		.word	.LANCHOR28
 3929 0b88 00000000 		.word	.LANCHOR25
 3930 0b8c 8FC2F53D 		.word	1039516303
 3931 0b90 00000000 		.word	Chassis
 3932 0b94 9A1922C3 		.word	-1021175398
 3933 0b98 00805FC3 		.word	-1017151488
 3934 0b9c 00000000 		.word	.LANCHOR29
 3935 0ba0 00009643 		.word	1133903872
 3936 0ba4 00000000 		.word	.LANCHOR30
 3937 0ba8 0000E143 		.word	1138819072
 3938 0bac 9AD9CFC3 		.word	-1009788518
 3939 0bb0 00000000 		.word	.LANCHOR31
 3940 0bb4 00000000 		.word	.LANCHOR32
 3941 0bb8 CDCCC6C2 		.word	-1027158835
ARM GAS  C:\Users\86152\AppData\Local\Temp\ccWGVtEI.s 			page 213


 3942 0bbc 00000000 		.word	.LANCHOR33
 3943 0bc0 DA0F4940 		.word	1078530010
 3944 0bc4 00002042 		.word	1109393408
 3945 0bc8 3333B33E 		.word	1051931443
 3946 0bcc CD8CA6C3 		.word	-1012495155
 3947 0bd0 66E696C3 		.word	-1013520794
 3948 0bd4 CD4CF0C3 		.word	-1007661875
 3949 0bd8 66A62EC4 		.word	-1003575706
 3950 0bdc 668627C4 		.word	-1004042650
 3951 0be0 CDCCD0C2 		.word	-1026503475
 3952 0be4 9AD9CFC3 		.word	-1009788518
 3953 0be8 67666666 		.word	1717986919
 3954              	.L246:
 469:Application/chassis_task.c ****                     reach_count = 0;
 3955              		.loc 1 469 21 is_stmt 1 view .LVU1165
 469:Application/chassis_task.c ****                     reach_count = 0;
 3956              		.loc 1 469 31 is_stmt 0 view .LVU1166
 3957 0bec D04B     		ldr	r3, .L257+8
 3958 0bee 0522     		movs	r2, #5
 3959 0bf0 1A70     		strb	r2, [r3]
 470:Application/chassis_task.c ****                 }
 3960              		.loc 1 470 21 is_stmt 1 view .LVU1167
 470:Application/chassis_task.c ****                 }
 3961              		.loc 1 470 33 is_stmt 0 view .LVU1168
 3962 0bf2 D04B     		ldr	r3, .L257+12
 3963 0bf4 0022     		movs	r2, #0
 3964 0bf6 1A60     		str	r2, [r3]
 3965 0bf8 1DE7     		b	.L176
 3966              	.LVL168:
 3967              	.L235:
 3968              	.LBB23:
 3969              	.LBB18:
6118:Components/Algorithm/Include/arm_math.h ****       return (ARM_MATH_ARGUMENT_ERROR);
 3970              		.loc 2 6118 7 is_stmt 1 view .LVU1169
6118:Components/Algorithm/Include/arm_math.h ****       return (ARM_MATH_ARGUMENT_ERROR);
 3971              		.loc 2 6118 13 is_stmt 0 view .LVU1170
 3972 0bfa CF4B     		ldr	r3, .L257+16
 3973 0bfc 0022     		movs	r2, #0
 3974 0bfe 1A60     		str	r2, [r3]	@ float
 3975              		.loc 2 6119 7 is_stmt 1 view .LVU1171
 3976              		.loc 2 6119 14 is_stmt 0 view .LVU1172
 3977 0c00 81E4     		b	.L186
 3978              	.LVL169:
 3979              	.L236:
 3980              		.loc 2 6119 14 view .LVU1173
 3981              	.LBE18:
 3982              	.LBE23:
 501:Application/chassis_task.c **** 
 3983              		.loc 1 501 21 is_stmt 1 view .LVU1174
 501:Application/chassis_task.c **** 
 3984              		.loc 1 501 34 is_stmt 0 view .LVU1175
 3985 0c02 CE4B     		ldr	r3, .L257+20
 3986 0c04 0022     		movs	r2, #0
 3987 0c06 1A60     		str	r2, [r3]
 3988 0c08 8CE4     		b	.L189
 3989              	.L190:
 508:Application/chassis_task.c ****                 {
ARM GAS  C:\Users\86152\AppData\Local\Temp\ccWGVtEI.s 			page 214


 3990              		.loc 1 508 22 is_stmt 1 view .LVU1176
 508:Application/chassis_task.c ****                 {
 3991              		.loc 1 508 25 is_stmt 0 view .LVU1177
 3992 0c0a 9FEDCD7A 		vldr.32	s14, .L257+24
 3993 0c0e F4EEC77A 		vcmpe.f32	s15, s14
 3994 0c12 F1EE10FA 		vmrs	APSR_nzcv, FPSCR
 3995 0c16 05D5     		bpl	.L192
 510:Application/chassis_task.c ****                     is_velocity = 1;
 3996              		.loc 1 510 21 is_stmt 1 view .LVU1178
 510:Application/chassis_task.c ****                     is_velocity = 1;
 3997              		.loc 1 510 28 is_stmt 0 view .LVU1179
 3998 0c18 CA4B     		ldr	r3, .L257+28
 3999 0c1a CB4A     		ldr	r2, .L257+32
 4000 0c1c 1A60     		str	r2, [r3]	@ float
 511:Application/chassis_task.c ****                 }
 4001              		.loc 1 511 21 is_stmt 1 view .LVU1180
 511:Application/chassis_task.c ****                 }
 4002              		.loc 1 511 33 is_stmt 0 view .LVU1181
 4003 0c1e CB4B     		ldr	r3, .L257+36
 4004 0c20 0122     		movs	r2, #1
 4005 0c22 1A70     		strb	r2, [r3]
 4006              	.L192:
 514:Application/chassis_task.c ****                     edge_count++;
 4007              		.loc 1 514 17 is_stmt 1 view .LVU1182
 514:Application/chassis_task.c ****                     edge_count++;
 4008              		.loc 1 514 20 is_stmt 0 view .LVU1183
 4009 0c24 9FEDC67A 		vldr.32	s14, .L257+24
 4010 0c28 F4EEC77A 		vcmpe.f32	s15, s14
 4011 0c2c F1EE10FA 		vmrs	APSR_nzcv, FPSCR
 4012 0c30 0BDD     		ble	.L194
 514:Application/chassis_task.c ****                     edge_count++;
 4013              		.loc 1 514 47 discriminator 1 view .LVU1184
 4014 0c32 9FEDC77A 		vldr.32	s14, .L257+40
 4015 0c36 F4EEC77A 		vcmpe.f32	s15, s14
 4016 0c3a F1EE10FA 		vmrs	APSR_nzcv, FPSCR
 4017 0c3e 04D5     		bpl	.L194
 515:Application/chassis_task.c ****                 else
 4018              		.loc 1 515 21 is_stmt 1 view .LVU1185
 515:Application/chassis_task.c ****                 else
 4019              		.loc 1 515 31 is_stmt 0 view .LVU1186
 4020 0c40 C44A     		ldr	r2, .L257+44
 4021 0c42 1368     		ldr	r3, [r2]
 4022 0c44 0133     		adds	r3, r3, #1
 4023 0c46 1360     		str	r3, [r2]
 4024 0c48 02E0     		b	.L197
 4025              	.L194:
 517:Application/chassis_task.c **** 
 4026              		.loc 1 517 21 is_stmt 1 view .LVU1187
 517:Application/chassis_task.c **** 
 4027              		.loc 1 517 32 is_stmt 0 view .LVU1188
 4028 0c4a C24B     		ldr	r3, .L257+44
 4029 0c4c 0022     		movs	r2, #0
 4030 0c4e 1A60     		str	r2, [r3]
 4031              	.L197:
 519:Application/chassis_task.c ****                 {
 4032              		.loc 1 519 17 is_stmt 1 view .LVU1189
 519:Application/chassis_task.c ****                 {
ARM GAS  C:\Users\86152\AppData\Local\Temp\ccWGVtEI.s 			page 215


 4033              		.loc 1 519 32 is_stmt 0 view .LVU1190
 4034 0c50 C04B     		ldr	r3, .L257+44
 4035 0c52 1B68     		ldr	r3, [r3]
 519:Application/chassis_task.c ****                 {
 4036              		.loc 1 519 20 view .LVU1191
 4037 0c54 B3F5FA6F 		cmp	r3, #2000
 4038 0c58 14D9     		bls	.L198
 521:Application/chassis_task.c ****                     is_velocity = 1;
 4039              		.loc 1 521 21 is_stmt 1 view .LVU1192
 521:Application/chassis_task.c ****                     is_velocity = 1;
 4040              		.loc 1 521 28 is_stmt 0 view .LVU1193
 4041 0c5a BA4B     		ldr	r3, .L257+28
 4042 0c5c BA4A     		ldr	r2, .L257+32
 4043 0c5e 1A60     		str	r2, [r3]	@ float
 522:Application/chassis_task.c ****                     Chassis.spinnig_center[0] = Chassis.posX;
 4044              		.loc 1 522 21 is_stmt 1 view .LVU1194
 522:Application/chassis_task.c ****                     Chassis.spinnig_center[0] = Chassis.posX;
 4045              		.loc 1 522 33 is_stmt 0 view .LVU1195
 4046 0c60 BA4B     		ldr	r3, .L257+36
 4047 0c62 0122     		movs	r2, #1
 4048 0c64 1A70     		strb	r2, [r3]
 523:Application/chassis_task.c ****                     Chassis.spinnig_center[1] = Chassis.posY;
 4049              		.loc 1 523 21 is_stmt 1 view .LVU1196
 523:Application/chassis_task.c ****                     Chassis.spinnig_center[1] = Chassis.posY;
 4050              		.loc 1 523 56 is_stmt 0 view .LVU1197
 4051 0c66 BC4A     		ldr	r2, .L257+48
 4052 0c68 02F58053 		add	r3, r2, #4096
 4053 0c6c 03F50361 		add	r1, r3, #2096
 4054 0c70 0868     		ldr	r0, [r1]	@ float
 523:Application/chassis_task.c ****                     Chassis.spinnig_center[1] = Chassis.posY;
 4055              		.loc 1 523 47 view .LVU1198
 4056 0c72 03F63C01 		addw	r1, r3, #2108
 4057 0c76 0860     		str	r0, [r1]	@ float
 524:Application/chassis_task.c ****                 }
 4058              		.loc 1 524 21 is_stmt 1 view .LVU1199
 524:Application/chassis_task.c ****                 }
 4059              		.loc 1 524 56 is_stmt 0 view .LVU1200
 4060 0c78 03F63403 		addw	r3, r3, #2100
 4061 0c7c 1B68     		ldr	r3, [r3]	@ float
 524:Application/chassis_task.c ****                 }
 4062              		.loc 1 524 47 view .LVU1201
 4063 0c7e 02F5C252 		add	r2, r2, #6208
 4064 0c82 1360     		str	r3, [r2]	@ float
 4065              	.L198:
 527:Application/chassis_task.c ****                     data_novalid_count++;
 4066              		.loc 1 527 17 is_stmt 1 view .LVU1202
 527:Application/chassis_task.c ****                     data_novalid_count++;
 4067              		.loc 1 527 20 is_stmt 0 view .LVU1203
 4068 0c84 9FEDB57A 		vldr.32	s14, .L257+52
 4069 0c88 F4EEC77A 		vcmpe.f32	s15, s14
 4070 0c8c F1EE10FA 		vmrs	APSR_nzcv, FPSCR
 4071 0c90 10DD     		ble	.L237
 528:Application/chassis_task.c ****                 else
 4072              		.loc 1 528 21 is_stmt 1 view .LVU1204
 528:Application/chassis_task.c ****                 else
 4073              		.loc 1 528 39 is_stmt 0 view .LVU1205
 4074 0c92 B34A     		ldr	r2, .L257+56
ARM GAS  C:\Users\86152\AppData\Local\Temp\ccWGVtEI.s 			page 216


 4075 0c94 1368     		ldr	r3, [r2]
 4076 0c96 0133     		adds	r3, r3, #1
 4077 0c98 1360     		str	r3, [r2]
 4078              	.L201:
 532:Application/chassis_task.c ****                 {
 4079              		.loc 1 532 17 is_stmt 1 view .LVU1206
 532:Application/chassis_task.c ****                 {
 4080              		.loc 1 532 40 is_stmt 0 view .LVU1207
 4081 0c9a B14B     		ldr	r3, .L257+56
 4082 0c9c 1B68     		ldr	r3, [r3]
 532:Application/chassis_task.c ****                 {
 4083              		.loc 1 532 20 view .LVU1208
 4084 0c9e B3F5FA7F 		cmp	r3, #500
 4085 0ca2 7FF624AD 		bls	.L159
 534:Application/chassis_task.c ****                     is_velocity = 0;
 4086              		.loc 1 534 21 is_stmt 1 view .LVU1209
 534:Application/chassis_task.c ****                     is_velocity = 0;
 4087              		.loc 1 534 28 is_stmt 0 view .LVU1210
 4088 0ca6 A74B     		ldr	r3, .L257+28
 4089 0ca8 AE4A     		ldr	r2, .L257+60
 4090 0caa 1A60     		str	r2, [r3]	@ float
 535:Application/chassis_task.c ****                 }
 4091              		.loc 1 535 21 is_stmt 1 view .LVU1211
 535:Application/chassis_task.c ****                 }
 4092              		.loc 1 535 33 is_stmt 0 view .LVU1212
 4093 0cac A74B     		ldr	r3, .L257+36
 4094 0cae 0022     		movs	r2, #0
 4095 0cb0 1A70     		strb	r2, [r3]
 4096 0cb2 1CE5     		b	.L159
 4097              	.L237:
 530:Application/chassis_task.c **** 
 4098              		.loc 1 530 21 is_stmt 1 view .LVU1213
 530:Application/chassis_task.c **** 
 4099              		.loc 1 530 40 is_stmt 0 view .LVU1214
 4100 0cb4 AA4B     		ldr	r3, .L257+56
 4101 0cb6 0022     		movs	r2, #0
 4102 0cb8 1A60     		str	r2, [r3]
 4103 0cba EEE7     		b	.L201
 4104              	.L183:
 540:Application/chassis_task.c ****                 is_velocity = 1;
 4105              		.loc 1 540 17 is_stmt 1 view .LVU1215
 540:Application/chassis_task.c ****                 is_velocity = 1;
 4106              		.loc 1 540 24 is_stmt 0 view .LVU1216
 4107 0cbc A14B     		ldr	r3, .L257+28
 4108 0cbe AA4A     		ldr	r2, .L257+64
 4109 0cc0 1A60     		str	r2, [r3]	@ float
 541:Application/chassis_task.c ****             }
 4110              		.loc 1 541 17 is_stmt 1 view .LVU1217
 541:Application/chassis_task.c ****             }
 4111              		.loc 1 541 29 is_stmt 0 view .LVU1218
 4112 0cc2 A24B     		ldr	r3, .L257+36
 4113 0cc4 0122     		movs	r2, #1
 4114 0cc6 1A70     		strb	r2, [r3]
 4115 0cc8 11E5     		b	.L159
 4116              	.L202:
 562:Application/chassis_task.c ****             InPosFlag = 0;
 4117              		.loc 1 562 13 is_stmt 1 view .LVU1219
ARM GAS  C:\Users\86152\AppData\Local\Temp\ccWGVtEI.s 			page 217


 562:Application/chassis_task.c ****             InPosFlag = 0;
 4118              		.loc 1 562 24 is_stmt 0 view .LVU1220
 4119 0cca 0023     		movs	r3, #0
 4120 0ccc A74A     		ldr	r2, .L257+68
 4121 0cce 1360     		str	r3, [r2]
 563:Application/chassis_task.c ****         }
 4122              		.loc 1 563 13 is_stmt 1 view .LVU1221
 563:Application/chassis_task.c ****         }
 4123              		.loc 1 563 23 is_stmt 0 view .LVU1222
 4124 0cd0 A74A     		ldr	r2, .L257+72
 4125 0cd2 1370     		strb	r3, [r2]
 4126              	.L205:
 566:Application/chassis_task.c ****         Chassis.Vr = float_constrain(Chassis.Vr, 0.0f, 1000.0f);
 4127              		.loc 1 566 9 is_stmt 1 view .LVU1223
 566:Application/chassis_task.c ****         Chassis.Vr = float_constrain(Chassis.Vr, 0.0f, 1000.0f);
 4128              		.loc 1 566 29 is_stmt 0 view .LVU1224
 4129 0cd4 A04C     		ldr	r4, .L257+48
 4130 0cd6 B4F90430 		ldrsh	r3, [r4, #4]
 4131 0cda 07EE103A 		vmov	s14, r3	@ int
 566:Application/chassis_task.c ****         Chassis.Vr = float_constrain(Chassis.Vr, 0.0f, 1000.0f);
 4132              		.loc 1 566 33 view .LVU1225
 4133 0cde B8EEC77A 		vcvt.f32.s32	s14, s14
 4134 0ce2 DFEDA47A 		vldr.32	s15, .L257+76
 4135 0ce6 27EE277A 		vmul.f32	s14, s14, s15
 566:Application/chassis_task.c ****         Chassis.Vr = float_constrain(Chassis.Vr, 0.0f, 1000.0f);
 4136              		.loc 1 566 48 view .LVU1226
 4137 0cea 78EEA77A 		vadd.f32	s15, s17, s15
 566:Application/chassis_task.c ****         Chassis.Vr = float_constrain(Chassis.Vr, 0.0f, 1000.0f);
 4138              		.loc 1 566 40 view .LVU1227
 4139 0cee 87EE270A 		vdiv.f32	s0, s14, s15
 566:Application/chassis_task.c ****         Chassis.Vr = float_constrain(Chassis.Vr, 0.0f, 1000.0f);
 4140              		.loc 1 566 63 view .LVU1228
 4141 0cf2 944B     		ldr	r3, .L257+28
 4142 0cf4 93ED007A 		vldr.32	s14, [r3]
 4143 0cf8 68EE878A 		vmul.f32	s17, s17, s14
 566:Application/chassis_task.c ****         Chassis.Vr = float_constrain(Chassis.Vr, 0.0f, 1000.0f);
 4144              		.loc 1 566 68 view .LVU1229
 4145 0cfc 88EEA77A 		vdiv.f32	s14, s17, s15
 566:Application/chassis_task.c ****         Chassis.Vr = float_constrain(Chassis.Vr, 0.0f, 1000.0f);
 4146              		.loc 1 566 54 view .LVU1230
 4147 0d00 30EE070A 		vadd.f32	s0, s0, s14
 566:Application/chassis_task.c ****         Chassis.Vr = float_constrain(Chassis.Vr, 0.0f, 1000.0f);
 4148              		.loc 1 566 20 view .LVU1231
 4149 0d04 BDEEC00A 		vcvt.s32.f32	s0, s0
 4150 0d08 10EE103A 		vmov	r3, s0	@ int
 4151 0d0c 1BB2     		sxth	r3, r3
 4152 0d0e A380     		strh	r3, [r4, #4]	@ movhi
 567:Application/chassis_task.c **** 
 4153              		.loc 1 567 9 is_stmt 1 view .LVU1232
 567:Application/chassis_task.c **** 
 4154              		.loc 1 567 22 is_stmt 0 view .LVU1233
 4155 0d10 9FED998A 		vldr.32	s16, .L257+80
 4156 0d14 9FED991A 		vldr.32	s2, .L257+84
 4157 0d18 F0EE480A 		vmov.f32	s1, s16
 4158 0d1c 07EE903A 		vmov	s15, r3	@ int
 4159 0d20 B8EEE70A 		vcvt.f32.s32	s0, s15
 4160 0d24 FFF7FEFF 		bl	float_constrain
ARM GAS  C:\Users\86152\AppData\Local\Temp\ccWGVtEI.s 			page 218


 4161              	.LVL170:
 567:Application/chassis_task.c **** 
 4162              		.loc 1 567 20 view .LVU1234
 4163 0d28 BDEEC00A 		vcvt.s32.f32	s0, s0
 4164 0d2c 10EE103A 		vmov	r3, s0	@ int
 4165 0d30 A380     		strh	r3, [r4, #4]	@ movhi
 569:Application/chassis_task.c ****         SpinningValidVy = PID_Calculate(&Chassis.SpinningValid, Chassis.posY, Chassis.spinnig_cente
 4166              		.loc 1 569 9 is_stmt 1 view .LVU1235
 569:Application/chassis_task.c ****         SpinningValidVy = PID_Calculate(&Chassis.SpinningValid, Chassis.posY, Chassis.spinnig_cente
 4167              		.loc 1 569 27 is_stmt 0 view .LVU1236
 4168 0d32 04F58055 		add	r5, r4, #4096
 4169 0d36 05F63C02 		addw	r2, r5, #2108
 4170 0d3a 05F50363 		add	r3, r5, #2096
 4171 0d3e A2F1CC08 		sub	r8, r2, #204
 4172 0d42 D2ED000A 		vldr.32	s1, [r2]
 4173 0d46 93ED000A 		vldr.32	s0, [r3]
 4174 0d4a 4046     		mov	r0, r8
 4175 0d4c FFF7FEFF 		bl	PID_Calculate
 4176              	.LVL171:
 569:Application/chassis_task.c ****         SpinningValidVy = PID_Calculate(&Chassis.SpinningValid, Chassis.posY, Chassis.spinnig_cente
 4177              		.loc 1 569 106 view .LVU1237
 4178 0d50 7E4E     		ldr	r6, .L257+36
 4179 0d52 3378     		ldrb	r3, [r6]	@ zero_extendqisi2
 4180 0d54 07EE903A 		vmov	s15, r3	@ int
 4181 0d58 F8EEE77A 		vcvt.f32.s32	s15, s15
 4182 0d5c 67EE807A 		vmul.f32	s15, s15, s0
 569:Application/chassis_task.c ****         SpinningValidVy = PID_Calculate(&Chassis.SpinningValid, Chassis.posY, Chassis.spinnig_cente
 4183              		.loc 1 569 25 view .LVU1238
 4184 0d60 874F     		ldr	r7, .L257+88
 4185 0d62 C7ED007A 		vstr.32	s15, [r7]
 570:Application/chassis_task.c **** 
 4186              		.loc 1 570 9 is_stmt 1 view .LVU1239
 570:Application/chassis_task.c **** 
 4187              		.loc 1 570 27 is_stmt 0 view .LVU1240
 4188 0d66 04F5C252 		add	r2, r4, #6208
 4189 0d6a 05F63403 		addw	r3, r5, #2100
 4190 0d6e D2ED000A 		vldr.32	s1, [r2]
 4191 0d72 93ED000A 		vldr.32	s0, [r3]
 4192 0d76 4046     		mov	r0, r8
 4193 0d78 FFF7FEFF 		bl	PID_Calculate
 4194              	.LVL172:
 570:Application/chassis_task.c **** 
 4195              		.loc 1 570 106 view .LVU1241
 4196 0d7c 3378     		ldrb	r3, [r6]	@ zero_extendqisi2
 4197 0d7e 07EE903A 		vmov	s15, r3	@ int
 4198 0d82 F8EEE77A 		vcvt.f32.s32	s15, s15
 4199 0d86 67EE807A 		vmul.f32	s15, s15, s0
 570:Application/chassis_task.c **** 
 4200              		.loc 1 570 25 view .LVU1242
 4201 0d8a 7E4E     		ldr	r6, .L257+92
 4202 0d8c C6ED007A 		vstr.32	s15, [r6]
 572:Application/chassis_task.c ****         preFollowTheta = Chassis.thetaFrame[thetaFrameNum].FollowTheta / RADIAN_COEF;
 4203              		.loc 1 572 9 is_stmt 1 view .LVU1243
 572:Application/chassis_task.c ****         preFollowTheta = Chassis.thetaFrame[thetaFrameNum].FollowTheta / RADIAN_COEF;
 4204              		.loc 1 572 72 is_stmt 0 view .LVU1244
 4205 0d90 FFF7FEFF 		bl	HAL_GetTick
 4206              	.LVL173:
ARM GAS  C:\Users\86152\AppData\Local\Temp\ccWGVtEI.s 			page 219


 572:Application/chassis_task.c ****         preFollowTheta = Chassis.thetaFrame[thetaFrameNum].FollowTheta / RADIAN_COEF;
 4207              		.loc 1 572 25 view .LVU1245
 4208 0d94 7C4B     		ldr	r3, .L257+96
 4209 0d96 1968     		ldr	r1, [r3]
 4210 0d98 411A     		subs	r1, r0, r1
 4211 0d9a 05F50560 		add	r0, r5, #2128
 4212 0d9e FFF7FEFF 		bl	Find_thetaFrame
 4213              	.LVL174:
 572:Application/chassis_task.c ****         preFollowTheta = Chassis.thetaFrame[thetaFrameNum].FollowTheta / RADIAN_COEF;
 4214              		.loc 1 572 23 view .LVU1246
 4215 0da2 C0B2     		uxtb	r0, r0
 4216 0da4 794B     		ldr	r3, .L257+100
 4217 0da6 1870     		strb	r0, [r3]
 573:Application/chassis_task.c ****         SpinningValidTheta = STD_RADIAN(-preFollowTheta + Chassis.posZ);
 4218              		.loc 1 573 9 is_stmt 1 view .LVU1247
 573:Application/chassis_task.c ****         SpinningValidTheta = STD_RADIAN(-preFollowTheta + Chassis.posZ);
 4219              		.loc 1 573 59 is_stmt 0 view .LVU1248
 4220 0da8 00F20A30 		addw	r0, r0, #778
 4221 0dac 04EBC000 		add	r0, r4, r0, lsl #3
 4222 0db0 D0ED006A 		vldr.32	s13, [r0]
 573:Application/chassis_task.c ****         SpinningValidTheta = STD_RADIAN(-preFollowTheta + Chassis.posZ);
 4223              		.loc 1 573 72 view .LVU1249
 4224 0db4 9FED767A 		vldr.32	s14, .L257+104
 4225 0db8 C6EE877A 		vdiv.f32	s15, s13, s14
 573:Application/chassis_task.c ****         SpinningValidTheta = STD_RADIAN(-preFollowTheta + Chassis.posZ);
 4226              		.loc 1 573 24 view .LVU1250
 4227 0dbc 754B     		ldr	r3, .L257+108
 4228 0dbe C3ED007A 		vstr.32	s15, [r3]
 574:Application/chassis_task.c **** 
 4229              		.loc 1 574 9 is_stmt 1 view .LVU1251
 574:Application/chassis_task.c **** 
 4230              		.loc 1 574 30 is_stmt 0 view .LVU1252
 4231 0dc2 05F63805 		addw	r5, r5, #2104
 4232 0dc6 D5ED008A 		vldr.32	s17, [r5]
 4233 0dca 78EEE78A 		vsub.f32	s17, s17, s15
 4234 0dce 18EE900A 		vmov	r0, s17
 4235 0dd2 FFF7FEFF 		bl	__aeabi_f2d
 4236              	.LVL175:
 4237 0dd6 8046     		mov	r8, r0
 4238 0dd8 8946     		mov	r9, r1
 4239 0dda 38EE688A 		vsub.f32	s16, s16, s17
 4240 0dde DFED6E7A 		vldr.32	s15, .L257+112
 4241 0de2 C8EE277A 		vdiv.f32	s15, s16, s15
 4242 0de6 17EE900A 		vmov	r0, s15
 4243 0dea FFF7FEFF 		bl	__aeabi_f2d
 4244              	.LVL176:
 4245 0dee 41EC100B 		vmov	d0, r0, r1
 4246 0df2 FFF7FEFF 		bl	round
 4247              	.LVL177:
 4248 0df6 51EC100B 		vmov	r0, r1, d0
 4249 0dfa 4BA3     		adr	r3, .L257
 4250 0dfc D3E90023 		ldrd	r2, [r3]
 4251 0e00 FFF7FEFF 		bl	__aeabi_dmul
 4252              	.LVL178:
 4253 0e04 0246     		mov	r2, r0
 4254 0e06 0B46     		mov	r3, r1
 4255 0e08 4046     		mov	r0, r8
ARM GAS  C:\Users\86152\AppData\Local\Temp\ccWGVtEI.s 			page 220


 4256 0e0a 4946     		mov	r1, r9
 4257 0e0c FFF7FEFF 		bl	__aeabi_dadd
 4258              	.LVL179:
 4259 0e10 FFF7FEFF 		bl	__aeabi_d2f
 4260              	.LVL180:
 4261 0e14 00EE100A 		vmov	s0, r0
 574:Application/chassis_task.c **** 
 4262              		.loc 1 574 28 view .LVU1253
 4263 0e18 604D     		ldr	r5, .L257+116
 4264 0e1a 2860     		str	r0, [r5]	@ float
 576:Application/chassis_task.c ****                              user_sin(SpinningValidTheta) * (Chassis.Vy + SpinningValidVy * 10.0f *
 4265              		.loc 1 576 9 is_stmt 1 view .LVU1254
 576:Application/chassis_task.c ****                              user_sin(SpinningValidTheta) * (Chassis.Vy + SpinningValidVy * 10.0f *
 4266              		.loc 1 576 30 is_stmt 0 view .LVU1255
 4267 0e1c FFF7FEFF 		bl	arm_cos_f32
 4268              	.LVL181:
 576:Application/chassis_task.c ****                              user_sin(SpinningValidTheta) * (Chassis.Vy + SpinningValidVy * 10.0f *
 4269              		.loc 1 576 69 view .LVU1256
 4270 0e20 B4F90030 		ldrsh	r3, [r4]
 4271 0e24 08EE103A 		vmov	s16, r3	@ int
 576:Application/chassis_task.c ****                              user_sin(SpinningValidTheta) * (Chassis.Vy + SpinningValidVy * 10.0f *
 4272              		.loc 1 576 91 view .LVU1257
 4273 0e28 D7ED007A 		vldr.32	s15, [r7]
 4274 0e2c F2EE048A 		vmov.f32	s17, #1.0e+1
 4275 0e30 67EEA87A 		vmul.f32	s15, s15, s17
 576:Application/chassis_task.c ****                              user_sin(SpinningValidTheta) * (Chassis.Vy + SpinningValidVy * 10.0f *
 4276              		.loc 1 576 99 view .LVU1258
 4277 0e34 67EEA87A 		vmul.f32	s15, s15, s17
 576:Application/chassis_task.c ****                              user_sin(SpinningValidTheta) * (Chassis.Vy + SpinningValidVy * 10.0f *
 4278              		.loc 1 576 107 view .LVU1259
 4279 0e38 9FED59AA 		vldr.32	s20, .L257+120
 4280 0e3c 87EE8A7A 		vdiv.f32	s14, s15, s20
 576:Application/chassis_task.c ****                              user_sin(SpinningValidTheta) * (Chassis.Vy + SpinningValidVy * 10.0f *
 4281              		.loc 1 576 122 view .LVU1260
 4282 0e40 F6EE009A 		vmov.f32	s19, #5.0e-1
 4283 0e44 67EE297A 		vmul.f32	s15, s14, s19
 576:Application/chassis_task.c ****                              user_sin(SpinningValidTheta) * (Chassis.Vy + SpinningValidVy * 10.0f *
 4284              		.loc 1 576 126 view .LVU1261
 4285 0e48 9FED569A 		vldr.32	s18, .L257+124
 4286 0e4c 87EE897A 		vdiv.f32	s14, s15, s18
 576:Application/chassis_task.c ****                              user_sin(SpinningValidTheta) * (Chassis.Vy + SpinningValidVy * 10.0f *
 4287              		.loc 1 576 73 view .LVU1262
 4288 0e50 B8EEC88A 		vcvt.f32.s32	s16, s16
 4289 0e54 38EE078A 		vadd.f32	s16, s16, s14
 576:Application/chassis_task.c ****                              user_sin(SpinningValidTheta) * (Chassis.Vy + SpinningValidVy * 10.0f *
 4290              		.loc 1 576 59 view .LVU1263
 4291 0e58 20EE088A 		vmul.f32	s16, s0, s16
 577:Application/chassis_task.c ****         Chassis.VyTransfer = -user_sin(SpinningValidTheta) * (Chassis.Vx + SpinningValidVx * 10.0f 
 4292              		.loc 1 577 30 view .LVU1264
 4293 0e5c 95ED000A 		vldr.32	s0, [r5]
 4294 0e60 FFF7FEFF 		bl	arm_sin_f32
 4295              	.LVL182:
 577:Application/chassis_task.c ****         Chassis.VyTransfer = -user_sin(SpinningValidTheta) * (Chassis.Vx + SpinningValidVx * 10.0f 
 4296              		.loc 1 577 69 view .LVU1265
 4297 0e64 B4F90230 		ldrsh	r3, [r4, #2]
 4298 0e68 07EE903A 		vmov	s15, r3	@ int
 577:Application/chassis_task.c ****         Chassis.VyTransfer = -user_sin(SpinningValidTheta) * (Chassis.Vx + SpinningValidVx * 10.0f 
ARM GAS  C:\Users\86152\AppData\Local\Temp\ccWGVtEI.s 			page 221


 4299              		.loc 1 577 91 view .LVU1266
 4300 0e6c 96ED007A 		vldr.32	s14, [r6]
 4301 0e70 27EE287A 		vmul.f32	s14, s14, s17
 577:Application/chassis_task.c ****         Chassis.VyTransfer = -user_sin(SpinningValidTheta) * (Chassis.Vx + SpinningValidVx * 10.0f 
 4302              		.loc 1 577 99 view .LVU1267
 4303 0e74 27EE287A 		vmul.f32	s14, s14, s17
 577:Application/chassis_task.c ****         Chassis.VyTransfer = -user_sin(SpinningValidTheta) * (Chassis.Vx + SpinningValidVx * 10.0f 
 4304              		.loc 1 577 107 view .LVU1268
 4305 0e78 C7EE0A6A 		vdiv.f32	s13, s14, s20
 577:Application/chassis_task.c ****         Chassis.VyTransfer = -user_sin(SpinningValidTheta) * (Chassis.Vx + SpinningValidVx * 10.0f 
 4306              		.loc 1 577 122 view .LVU1269
 4307 0e7c 26EEA97A 		vmul.f32	s14, s13, s19
 577:Application/chassis_task.c ****         Chassis.VyTransfer = -user_sin(SpinningValidTheta) * (Chassis.Vx + SpinningValidVx * 10.0f 
 4308              		.loc 1 577 126 view .LVU1270
 4309 0e80 C7EE096A 		vdiv.f32	s13, s14, s18
 577:Application/chassis_task.c ****         Chassis.VyTransfer = -user_sin(SpinningValidTheta) * (Chassis.Vx + SpinningValidVx * 10.0f 
 4310              		.loc 1 577 73 view .LVU1271
 4311 0e84 F8EEE77A 		vcvt.f32.s32	s15, s15
 4312 0e88 77EEA67A 		vadd.f32	s15, s15, s13
 577:Application/chassis_task.c ****         Chassis.VyTransfer = -user_sin(SpinningValidTheta) * (Chassis.Vx + SpinningValidVx * 10.0f 
 4313              		.loc 1 577 59 view .LVU1272
 4314 0e8c 60EE277A 		vmul.f32	s15, s0, s15
 576:Application/chassis_task.c ****                              user_sin(SpinningValidTheta) * (Chassis.Vy + SpinningValidVy * 10.0f *
 4315              		.loc 1 576 139 view .LVU1273
 4316 0e90 38EE278A 		vadd.f32	s16, s16, s15
 576:Application/chassis_task.c ****                              user_sin(SpinningValidTheta) * (Chassis.Vy + SpinningValidVy * 10.0f *
 4317              		.loc 1 576 28 view .LVU1274
 4318 0e94 84ED028A 		vstr.32	s16, [r4, #8]
 578:Application/chassis_task.c ****                              user_cos(SpinningValidTheta) * (Chassis.Vy + SpinningValidVy * 10.0f *
 4319              		.loc 1 578 9 is_stmt 1 view .LVU1275
 578:Application/chassis_task.c ****                              user_cos(SpinningValidTheta) * (Chassis.Vy + SpinningValidVy * 10.0f *
 4320              		.loc 1 578 31 is_stmt 0 view .LVU1276
 4321 0e98 95ED000A 		vldr.32	s0, [r5]
 4322 0e9c FFF7FEFF 		bl	arm_sin_f32
 4323              	.LVL183:
 578:Application/chassis_task.c ****                              user_cos(SpinningValidTheta) * (Chassis.Vy + SpinningValidVy * 10.0f *
 4324              		.loc 1 578 70 view .LVU1277
 4325 0ea0 B4F90030 		ldrsh	r3, [r4]
 4326 0ea4 08EE103A 		vmov	s16, r3	@ int
 578:Application/chassis_task.c ****                              user_cos(SpinningValidTheta) * (Chassis.Vy + SpinningValidVy * 10.0f *
 4327              		.loc 1 578 92 view .LVU1278
 4328 0ea8 D7ED007A 		vldr.32	s15, [r7]
 4329 0eac 67EEA87A 		vmul.f32	s15, s15, s17
 578:Application/chassis_task.c ****                              user_cos(SpinningValidTheta) * (Chassis.Vy + SpinningValidVy * 10.0f *
 4330              		.loc 1 578 100 view .LVU1279
 4331 0eb0 67EEA87A 		vmul.f32	s15, s15, s17
 578:Application/chassis_task.c ****                              user_cos(SpinningValidTheta) * (Chassis.Vy + SpinningValidVy * 10.0f *
 4332              		.loc 1 578 108 view .LVU1280
 4333 0eb4 87EE8A7A 		vdiv.f32	s14, s15, s20
 578:Application/chassis_task.c ****                              user_cos(SpinningValidTheta) * (Chassis.Vy + SpinningValidVy * 10.0f *
 4334              		.loc 1 578 123 view .LVU1281
 4335 0eb8 67EE297A 		vmul.f32	s15, s14, s19
 578:Application/chassis_task.c ****                              user_cos(SpinningValidTheta) * (Chassis.Vy + SpinningValidVy * 10.0f *
 4336              		.loc 1 578 127 view .LVU1282
 4337 0ebc 87EE897A 		vdiv.f32	s14, s15, s18
 578:Application/chassis_task.c ****                              user_cos(SpinningValidTheta) * (Chassis.Vy + SpinningValidVy * 10.0f *
 4338              		.loc 1 578 74 view .LVU1283
ARM GAS  C:\Users\86152\AppData\Local\Temp\ccWGVtEI.s 			page 222


 4339 0ec0 B8EEC88A 		vcvt.f32.s32	s16, s16
 4340 0ec4 38EE078A 		vadd.f32	s16, s16, s14
 578:Application/chassis_task.c ****                              user_cos(SpinningValidTheta) * (Chassis.Vy + SpinningValidVy * 10.0f *
 4341              		.loc 1 578 60 view .LVU1284
 4342 0ec8 20EE488A 		vnmul.f32	s16, s0, s16
 579:Application/chassis_task.c **** 
 4343              		.loc 1 579 30 view .LVU1285
 4344 0ecc 95ED000A 		vldr.32	s0, [r5]
 4345 0ed0 FFF7FEFF 		bl	arm_cos_f32
 4346              	.LVL184:
 579:Application/chassis_task.c **** 
 4347              		.loc 1 579 69 view .LVU1286
 4348 0ed4 B4F90230 		ldrsh	r3, [r4, #2]
 4349 0ed8 07EE903A 		vmov	s15, r3	@ int
 579:Application/chassis_task.c **** 
 4350              		.loc 1 579 91 view .LVU1287
 4351 0edc 96ED007A 		vldr.32	s14, [r6]
 4352 0ee0 27EE287A 		vmul.f32	s14, s14, s17
 579:Application/chassis_task.c **** 
 4353              		.loc 1 579 99 view .LVU1288
 4354 0ee4 67EE288A 		vmul.f32	s17, s14, s17
 579:Application/chassis_task.c **** 
 4355              		.loc 1 579 107 view .LVU1289
 4356 0ee8 88EE8A7A 		vdiv.f32	s14, s17, s20
 579:Application/chassis_task.c **** 
 4357              		.loc 1 579 122 view .LVU1290
 4358 0eec 67EE299A 		vmul.f32	s19, s14, s19
 579:Application/chassis_task.c **** 
 4359              		.loc 1 579 126 view .LVU1291
 4360 0ef0 89EE897A 		vdiv.f32	s14, s19, s18
 579:Application/chassis_task.c **** 
 4361              		.loc 1 579 73 view .LVU1292
 4362 0ef4 F8EEE77A 		vcvt.f32.s32	s15, s15
 4363 0ef8 77EE877A 		vadd.f32	s15, s15, s14
 579:Application/chassis_task.c **** 
 4364              		.loc 1 579 59 view .LVU1293
 4365 0efc 20EE270A 		vmul.f32	s0, s0, s15
 578:Application/chassis_task.c ****                              user_cos(SpinningValidTheta) * (Chassis.Vy + SpinningValidVy * 10.0f *
 4366              		.loc 1 578 140 view .LVU1294
 4367 0f00 38EE000A 		vadd.f32	s0, s16, s0
 578:Application/chassis_task.c ****                              user_cos(SpinningValidTheta) * (Chassis.Vy + SpinningValidVy * 10.0f *
 4368              		.loc 1 578 28 view .LVU1295
 4369 0f04 84ED030A 		vstr.32	s0, [r4, #12]
 581:Application/chassis_task.c ****         Chassis.VyTransfer *= move_ratio;
 4370              		.loc 1 581 9 is_stmt 1 view .LVU1296
 581:Application/chassis_task.c ****         Chassis.VyTransfer *= move_ratio;
 4371              		.loc 1 581 28 is_stmt 0 view .LVU1297
 4372 0f08 274B     		ldr	r3, .L257+128
 4373 0f0a 93ED007A 		vldr.32	s14, [r3]
 4374 0f0e D4ED027A 		vldr.32	s15, [r4, #8]
 4375 0f12 67EE877A 		vmul.f32	s15, s15, s14
 4376 0f16 C4ED027A 		vstr.32	s15, [r4, #8]
 582:Application/chassis_task.c ****         break;
 4377              		.loc 1 582 9 is_stmt 1 view .LVU1298
 582:Application/chassis_task.c ****         break;
 4378              		.loc 1 582 28 is_stmt 0 view .LVU1299
 4379 0f1a 20EE070A 		vmul.f32	s0, s0, s14
ARM GAS  C:\Users\86152\AppData\Local\Temp\ccWGVtEI.s 			page 223


 4380 0f1e 84ED030A 		vstr.32	s0, [r4, #12]
 583:Application/chassis_task.c **** 
 4381              		.loc 1 583 9 is_stmt 1 view .LVU1300
 4382 0f22 FFF78FB9 		b	.L144
 4383              	.L258:
 4384 0f26 00BF     		.align	3
 4385              	.L257:
 4386 0f28 00000060 		.word	1610612736
 4387 0f2c FB211940 		.word	1075388923
 4388 0f30 00000000 		.word	.LANCHOR26
 4389 0f34 00000000 		.word	.LANCHOR30
 4390 0f38 00000000 		.word	.LANCHOR29
 4391 0f3c 00000000 		.word	.LANCHOR34
 4392 0f40 0080BB44 		.word	1153138688
 4393 0f44 00000000 		.word	.LANCHOR23
 4394 0f48 0000E143 		.word	1138819072
 4395 0f4c 00000000 		.word	.LANCHOR24
 4396 0f50 00409C45 		.word	1167867904
 4397 0f54 00000000 		.word	.LANCHOR35
 4398 0f58 00000000 		.word	Chassis
 4399 0f5c 00401C46 		.word	1176256512
 4400 0f60 00000000 		.word	.LANCHOR36
 4401 0f64 00002F44 		.word	1143930880
 4402 0f68 00001643 		.word	1125515264
 4403 0f6c 00000000 		.word	.LANCHOR37
 4404 0f70 00000000 		.word	.LANCHOR38
 4405 0f74 CDCC4C3E 		.word	1045220557
 4406 0f78 00000000 		.word	0
 4407 0f7c 00007A44 		.word	1148846080
 4408 0f80 00000000 		.word	.LANCHOR39
 4409 0f84 00000000 		.word	.LANCHOR40
 4410 0f88 00000000 		.word	.LANCHOR41
 4411 0f8c 00000000 		.word	.LANCHOR42
 4412 0f90 E12E6542 		.word	1113927393
 4413 0f94 00000000 		.word	.LANCHOR43
 4414 0f98 DB0FC940 		.word	1086918619
 4415 0f9c 00000000 		.word	.LANCHOR44
 4416 0fa0 00009842 		.word	1117257728
 4417 0fa4 4F77563D 		.word	1029076815
 4418 0fa8 00000000 		.word	.LANCHOR25
 4419              	.L148:
 586:Application/chassis_task.c ****         Chassis.FollowTheta = 0.0f;
 4420              		.loc 1 586 9 view .LVU1301
 586:Application/chassis_task.c ****         Chassis.FollowTheta = 0.0f;
 4421              		.loc 1 586 20 is_stmt 0 view .LVU1302
 4422 0fac D04C     		ldr	r4, .L259
 4423 0fae 0023     		movs	r3, #0
 4424 0fb0 A380     		strh	r3, [r4, #4]	@ movhi
 587:Application/chassis_task.c ****         Chassis.VxTransfer = user_cos(-Chassis.FollowTheta / RADIAN_COEF) * Chassis.Vx +
 4425              		.loc 1 587 9 is_stmt 1 view .LVU1303
 587:Application/chassis_task.c ****         Chassis.VxTransfer = user_cos(-Chassis.FollowTheta / RADIAN_COEF) * Chassis.Vx +
 4426              		.loc 1 587 29 is_stmt 0 view .LVU1304
 4427 0fb2 0023     		movs	r3, #0
 4428 0fb4 C4F8EC31 		str	r3, [r4, #492]	@ float
 588:Application/chassis_task.c ****                              user_sin(-Chassis.FollowTheta / RADIAN_COEF) * Chassis.Vy;
 4429              		.loc 1 588 9 is_stmt 1 view .LVU1305
 588:Application/chassis_task.c ****                              user_sin(-Chassis.FollowTheta / RADIAN_COEF) * Chassis.Vy;
ARM GAS  C:\Users\86152\AppData\Local\Temp\ccWGVtEI.s 			page 224


 4430              		.loc 1 588 30 is_stmt 0 view .LVU1306
 4431 0fb8 9FEDCE0A 		vldr.32	s0, .L259+4
 4432 0fbc FFF7FEFF 		bl	arm_cos_f32
 4433              	.LVL185:
 588:Application/chassis_task.c ****                              user_sin(-Chassis.FollowTheta / RADIAN_COEF) * Chassis.Vy;
 4434              		.loc 1 588 84 view .LVU1307
 4435 0fc0 B4F90030 		ldrsh	r3, [r4]
 4436 0fc4 08EE103A 		vmov	s16, r3	@ int
 588:Application/chassis_task.c ****                              user_sin(-Chassis.FollowTheta / RADIAN_COEF) * Chassis.Vy;
 4437              		.loc 1 588 75 view .LVU1308
 4438 0fc8 B8EEC88A 		vcvt.f32.s32	s16, s16
 4439 0fcc 28EE008A 		vmul.f32	s16, s16, s0
 589:Application/chassis_task.c ****         Chassis.VyTransfer = -user_sin(-Chassis.FollowTheta / RADIAN_COEF) * Chassis.Vx +
 4440              		.loc 1 589 47 view .LVU1309
 4441 0fd0 94ED7B0A 		vldr.32	s0, [r4, #492]
 589:Application/chassis_task.c ****         Chassis.VyTransfer = -user_sin(-Chassis.FollowTheta / RADIAN_COEF) * Chassis.Vx +
 4442              		.loc 1 589 39 view .LVU1310
 4443 0fd4 B1EE400A 		vneg.f32	s0, s0
 589:Application/chassis_task.c ****         Chassis.VyTransfer = -user_sin(-Chassis.FollowTheta / RADIAN_COEF) * Chassis.Vx +
 4444              		.loc 1 589 30 view .LVU1311
 4445 0fd8 DFEDC78A 		vldr.32	s17, .L259+8
 4446 0fdc 80EE280A 		vdiv.f32	s0, s0, s17
 4447 0fe0 FFF7FEFF 		bl	arm_sin_f32
 4448              	.LVL186:
 589:Application/chassis_task.c ****         Chassis.VyTransfer = -user_sin(-Chassis.FollowTheta / RADIAN_COEF) * Chassis.Vx +
 4449              		.loc 1 589 84 view .LVU1312
 4450 0fe4 B4F90230 		ldrsh	r3, [r4, #2]
 4451 0fe8 07EE903A 		vmov	s15, r3	@ int
 589:Application/chassis_task.c ****         Chassis.VyTransfer = -user_sin(-Chassis.FollowTheta / RADIAN_COEF) * Chassis.Vx +
 4452              		.loc 1 589 75 view .LVU1313
 4453 0fec F8EEE77A 		vcvt.f32.s32	s15, s15
 4454 0ff0 67EE807A 		vmul.f32	s15, s15, s0
 588:Application/chassis_task.c ****                              user_sin(-Chassis.FollowTheta / RADIAN_COEF) * Chassis.Vy;
 4455              		.loc 1 588 88 view .LVU1314
 4456 0ff4 38EE278A 		vadd.f32	s16, s16, s15
 588:Application/chassis_task.c ****                              user_sin(-Chassis.FollowTheta / RADIAN_COEF) * Chassis.Vy;
 4457              		.loc 1 588 28 view .LVU1315
 4458 0ff8 84ED028A 		vstr.32	s16, [r4, #8]
 590:Application/chassis_task.c ****                              user_cos(-Chassis.FollowTheta / RADIAN_COEF) * Chassis.Vy;
 4459              		.loc 1 590 9 is_stmt 1 view .LVU1316
 590:Application/chassis_task.c ****                              user_cos(-Chassis.FollowTheta / RADIAN_COEF) * Chassis.Vy;
 4460              		.loc 1 590 48 is_stmt 0 view .LVU1317
 4461 0ffc 94ED7B0A 		vldr.32	s0, [r4, #492]
 590:Application/chassis_task.c ****                              user_cos(-Chassis.FollowTheta / RADIAN_COEF) * Chassis.Vy;
 4462              		.loc 1 590 40 view .LVU1318
 4463 1000 B1EE400A 		vneg.f32	s0, s0
 590:Application/chassis_task.c ****                              user_cos(-Chassis.FollowTheta / RADIAN_COEF) * Chassis.Vy;
 4464              		.loc 1 590 31 view .LVU1319
 4465 1004 80EE280A 		vdiv.f32	s0, s0, s17
 4466 1008 FFF7FEFF 		bl	arm_sin_f32
 4467              	.LVL187:
 590:Application/chassis_task.c ****                              user_cos(-Chassis.FollowTheta / RADIAN_COEF) * Chassis.Vy;
 4468              		.loc 1 590 85 view .LVU1320
 4469 100c B4F90030 		ldrsh	r3, [r4]
 4470 1010 08EE103A 		vmov	s16, r3	@ int
 590:Application/chassis_task.c ****                              user_cos(-Chassis.FollowTheta / RADIAN_COEF) * Chassis.Vy;
 4471              		.loc 1 590 76 view .LVU1321
ARM GAS  C:\Users\86152\AppData\Local\Temp\ccWGVtEI.s 			page 225


 4472 1014 B8EEC88A 		vcvt.f32.s32	s16, s16
 4473 1018 20EE488A 		vnmul.f32	s16, s0, s16
 591:Application/chassis_task.c ****         break;
 4474              		.loc 1 591 47 view .LVU1322
 4475 101c 94ED7B0A 		vldr.32	s0, [r4, #492]
 591:Application/chassis_task.c ****         break;
 4476              		.loc 1 591 39 view .LVU1323
 4477 1020 B1EE400A 		vneg.f32	s0, s0
 591:Application/chassis_task.c ****         break;
 4478              		.loc 1 591 30 view .LVU1324
 4479 1024 80EE280A 		vdiv.f32	s0, s0, s17
 4480 1028 FFF7FEFF 		bl	arm_cos_f32
 4481              	.LVL188:
 591:Application/chassis_task.c ****         break;
 4482              		.loc 1 591 84 view .LVU1325
 4483 102c B4F90230 		ldrsh	r3, [r4, #2]
 4484 1030 07EE903A 		vmov	s15, r3	@ int
 591:Application/chassis_task.c ****         break;
 4485              		.loc 1 591 75 view .LVU1326
 4486 1034 F8EEE77A 		vcvt.f32.s32	s15, s15
 4487 1038 67EE807A 		vmul.f32	s15, s15, s0
 590:Application/chassis_task.c ****                              user_cos(-Chassis.FollowTheta / RADIAN_COEF) * Chassis.Vy;
 4488              		.loc 1 590 89 view .LVU1327
 4489 103c 38EE278A 		vadd.f32	s16, s16, s15
 590:Application/chassis_task.c ****                              user_cos(-Chassis.FollowTheta / RADIAN_COEF) * Chassis.Vy;
 4490              		.loc 1 590 28 view .LVU1328
 4491 1040 84ED038A 		vstr.32	s16, [r4, #12]
 592:Application/chassis_task.c ****     case Count_Mode:
 4492              		.loc 1 592 9 is_stmt 1 view .LVU1329
 4493 1044 FFF7FEB8 		b	.L144
 4494              	.L145:
 613:Application/chassis_task.c ****         //        if (aimassist_online == 1 && lostaim == 0)
 4495              		.loc 1 613 9 view .LVU1330
 613:Application/chassis_task.c ****         //        if (aimassist_online == 1 && lostaim == 0)
 4496              		.loc 1 613 25 is_stmt 0 view .LVU1331
 4497 1048 AC4B     		ldr	r3, .L259+12
 4498 104a D3ED007A 		vldr.32	s15, [r3]
 4499 104e AC4B     		ldr	r3, .L259+16
 4500 1050 93ED007A 		vldr.32	s14, [r3]
 4501 1054 37EE277A 		vadd.f32	s14, s14, s15
 4502 1058 83ED007A 		vstr.32	s14, [r3]
 616:Application/chassis_task.c ****         if (ReachFinished == 0)
 4503              		.loc 1 616 9 is_stmt 1 view .LVU1332
 616:Application/chassis_task.c ****         if (ReachFinished == 0)
 4504              		.loc 1 616 27 is_stmt 0 view .LVU1333
 4505 105c A94B     		ldr	r3, .L259+20
 4506 105e 0022     		movs	r2, #0
 4507 1060 1A60     		str	r2, [r3]
 617:Application/chassis_task.c ****         {
 4508              		.loc 1 617 9 is_stmt 1 view .LVU1334
 617:Application/chassis_task.c ****         {
 4509              		.loc 1 617 27 is_stmt 0 view .LVU1335
 4510 1062 A94B     		ldr	r3, .L259+24
 4511 1064 1B78     		ldrb	r3, [r3]	@ zero_extendqisi2
 617:Application/chassis_task.c ****         {
 4512              		.loc 1 617 12 view .LVU1336
 4513 1066 002B     		cmp	r3, #0
ARM GAS  C:\Users\86152\AppData\Local\Temp\ccWGVtEI.s 			page 226


 4514 1068 40F01F81 		bne	.L206
 619:Application/chassis_task.c ****             if (Chassis.geto_des == 0)
 4515              		.loc 1 619 13 is_stmt 1 view .LVU1337
 619:Application/chassis_task.c ****             if (Chassis.geto_des == 0)
 4516              		.loc 1 619 32 is_stmt 0 view .LVU1338
 4517 106c A74B     		ldr	r3, .L259+28
 4518 106e 03F26472 		addw	r2, r3, #1892
 4519 1072 4FF07E51 		mov	r1, #1065353216
 4520 1076 1160     		str	r1, [r2]	@ float
 620:Application/chassis_task.c ****             {
 4521              		.loc 1 620 13 is_stmt 1 view .LVU1339
 620:Application/chassis_task.c ****             {
 4522              		.loc 1 620 24 is_stmt 0 view .LVU1340
 4523 1078 93F86837 		ldrb	r3, [r3, #1896]	@ zero_extendqisi2
 620:Application/chassis_task.c ****             {
 4524              		.loc 1 620 16 view .LVU1341
 4525 107c 4BB9     		cbnz	r3, .L207
 622:Application/chassis_task.c ****                 {
 4526              		.loc 1 622 17 is_stmt 1 view .LVU1342
 622:Application/chassis_task.c ****                 {
 4527              		.loc 1 622 28 is_stmt 0 view .LVU1343
 4528 107e A2F26472 		subw	r2, r2, #1892
 4529 1082 92F86A27 		ldrb	r2, [r2, #1898]	@ zero_extendqisi2
 622:Application/chassis_task.c ****                 {
 4530              		.loc 1 622 20 view .LVU1344
 4531 1086 002A     		cmp	r2, #0
 4532 1088 00F00681 		beq	.L208
 625:Application/chassis_task.c ****                 }
 4533              		.loc 1 625 21 is_stmt 1 view .LVU1345
 625:Application/chassis_task.c ****                 }
 4534              		.loc 1 625 32 is_stmt 0 view .LVU1346
 4535 108c 984A     		ldr	r2, .L259
 4536 108e DC21     		movs	r1, #220
 4537 1090 9180     		strh	r1, [r2, #4]	@ movhi
 4538              	.L207:
 632:Application/chassis_task.c ****             {
 4539              		.loc 1 632 13 is_stmt 1 view .LVU1347
 632:Application/chassis_task.c ****             {
 4540              		.loc 1 632 16 is_stmt 0 view .LVU1348
 4541 1092 012B     		cmp	r3, #1
 4542 1094 00F00481 		beq	.L247
 4543              	.L209:
 636:Application/chassis_task.c ****             {
 4544              		.loc 1 636 13 is_stmt 1 view .LVU1349
 636:Application/chassis_task.c ****             {
 4545              		.loc 1 636 28 is_stmt 0 view .LVU1350
 4546 1098 9D4B     		ldr	r3, .L259+32
 4547 109a 1B88     		ldrh	r3, [r3]
 636:Application/chassis_task.c ****             {
 4548              		.loc 1 636 16 view .LVU1351
 4549 109c 092B     		cmp	r3, #9
 4550 109e 05D9     		bls	.L210
 638:Application/chassis_task.c ****                 ReachCount = 0;
 4551              		.loc 1 638 17 is_stmt 1 view .LVU1352
 638:Application/chassis_task.c ****                 ReachCount = 0;
 4552              		.loc 1 638 31 is_stmt 0 view .LVU1353
 4553 10a0 994B     		ldr	r3, .L259+24
ARM GAS  C:\Users\86152\AppData\Local\Temp\ccWGVtEI.s 			page 227


 4554 10a2 0122     		movs	r2, #1
 4555 10a4 1A70     		strb	r2, [r3]
 639:Application/chassis_task.c ****             }
 4556              		.loc 1 639 17 is_stmt 1 view .LVU1354
 639:Application/chassis_task.c ****             }
 4557              		.loc 1 639 28 is_stmt 0 view .LVU1355
 4558 10a6 9A4B     		ldr	r3, .L259+32
 4559 10a8 0022     		movs	r2, #0
 4560 10aa 1A80     		strh	r2, [r3]	@ movhi
 4561              	.L210:
 675:Application/chassis_task.c ****         Chassis.FollowXVelocity = float_constrain(Chassis.FollowXVelocity, -20.25f, 20.25f);
 4562              		.loc 1 675 9 is_stmt 1 view .LVU1356
 675:Application/chassis_task.c ****         Chassis.FollowXVelocity = float_constrain(Chassis.FollowXVelocity, -20.25f, 20.25f);
 4563              		.loc 1 675 43 is_stmt 0 view .LVU1357
 4564 10ac 904C     		ldr	r4, .L259
 4565 10ae 04F58055 		add	r5, r4, #4096
 4566 10b2 B5F95837 		ldrsh	r3, [r5, #1880]
 4567 10b6 06EE903A 		vmov	s13, r3	@ int
 675:Application/chassis_task.c ****         Chassis.FollowXVelocity = float_constrain(Chassis.FollowXVelocity, -20.25f, 20.25f);
 4568              		.loc 1 675 64 view .LVU1358
 4569 10ba F8EEE66A 		vcvt.f32.s32	s13, s13
 4570 10be B2EE048A 		vmov.f32	s16, #1.0e+1
 4571 10c2 86EE887A 		vdiv.f32	s14, s13, s16
 675:Application/chassis_task.c ****         Chassis.FollowXVelocity = float_constrain(Chassis.FollowXVelocity, -20.25f, 20.25f);
 4572              		.loc 1 675 73 view .LVU1359
 4573 10c6 27EE877A 		vmul.f32	s14, s15, s14
 675:Application/chassis_task.c ****         Chassis.FollowXVelocity = float_constrain(Chassis.FollowXVelocity, -20.25f, 20.25f);
 4574              		.loc 1 675 84 view .LVU1360
 4575 10ca DFED928A 		vldr.32	s17, .L259+36
 4576 10ce 77EEA87A 		vadd.f32	s15, s15, s17
 675:Application/chassis_task.c ****         Chassis.FollowXVelocity = float_constrain(Chassis.FollowXVelocity, -20.25f, 20.25f);
 4577              		.loc 1 675 78 view .LVU1361
 4578 10d2 87EE270A 		vdiv.f32	s0, s14, s15
 675:Application/chassis_task.c ****         Chassis.FollowXVelocity = float_constrain(Chassis.FollowXVelocity, -20.25f, 20.25f);
 4579              		.loc 1 675 103 view .LVU1362
 4580 10d6 05F25C77 		addw	r7, r5, #1884
 4581 10da 97ED007A 		vldr.32	s14, [r7]
 675:Application/chassis_task.c ****         Chassis.FollowXVelocity = float_constrain(Chassis.FollowXVelocity, -20.25f, 20.25f);
 4582              		.loc 1 675 120 view .LVU1363
 4583 10de 27EE287A 		vmul.f32	s14, s14, s17
 675:Application/chassis_task.c ****         Chassis.FollowXVelocity = float_constrain(Chassis.FollowXVelocity, -20.25f, 20.25f);
 4584              		.loc 1 675 129 view .LVU1364
 4585 10e2 C7EE276A 		vdiv.f32	s13, s14, s15
 675:Application/chassis_task.c ****         Chassis.FollowXVelocity = float_constrain(Chassis.FollowXVelocity, -20.25f, 20.25f);
 4586              		.loc 1 675 94 view .LVU1365
 4587 10e6 30EE260A 		vadd.f32	s0, s0, s13
 675:Application/chassis_task.c ****         Chassis.FollowXVelocity = float_constrain(Chassis.FollowXVelocity, -20.25f, 20.25f);
 4588              		.loc 1 675 33 view .LVU1366
 4589 10ea 87ED000A 		vstr.32	s0, [r7]
 676:Application/chassis_task.c ****         Chassis.FollowYVelocity = (Chassis.FollowYVelocity1000 / 10.0f) * dt / (dt + 0.005f) + Chas
 4590              		.loc 1 676 9 is_stmt 1 view .LVU1367
 676:Application/chassis_task.c ****         Chassis.FollowYVelocity = (Chassis.FollowYVelocity1000 / 10.0f) * dt / (dt + 0.005f) + Chas
 4591              		.loc 1 676 35 is_stmt 0 view .LVU1368
 4592 10ee DFED8A9A 		vldr.32	s19, .L259+40
 4593 10f2 9FED8A9A 		vldr.32	s18, .L259+44
 4594 10f6 B0EE691A 		vmov.f32	s2, s19
 4595 10fa F0EE490A 		vmov.f32	s1, s18
ARM GAS  C:\Users\86152\AppData\Local\Temp\ccWGVtEI.s 			page 228


 4596 10fe FFF7FEFF 		bl	float_constrain
 4597              	.LVL189:
 676:Application/chassis_task.c ****         Chassis.FollowYVelocity = (Chassis.FollowYVelocity1000 / 10.0f) * dt / (dt + 0.005f) + Chas
 4598              		.loc 1 676 33 view .LVU1369
 4599 1102 87ED000A 		vstr.32	s0, [r7]
 677:Application/chassis_task.c ****         Chassis.FollowYVelocity = float_constrain(Chassis.FollowYVelocity, -20.25f, 20.25f);
 4600              		.loc 1 677 9 is_stmt 1 view .LVU1370
 677:Application/chassis_task.c ****         Chassis.FollowYVelocity = float_constrain(Chassis.FollowYVelocity, -20.25f, 20.25f);
 4601              		.loc 1 677 43 is_stmt 0 view .LVU1371
 4602 1106 B5F95A37 		ldrsh	r3, [r5, #1882]
 4603 110a 07EE903A 		vmov	s15, r3	@ int
 677:Application/chassis_task.c ****         Chassis.FollowYVelocity = float_constrain(Chassis.FollowYVelocity, -20.25f, 20.25f);
 4604              		.loc 1 677 64 view .LVU1372
 4605 110e F8EEE77A 		vcvt.f32.s32	s15, s15
 4606 1112 87EE887A 		vdiv.f32	s14, s15, s16
 677:Application/chassis_task.c ****         Chassis.FollowYVelocity = float_constrain(Chassis.FollowYVelocity, -20.25f, 20.25f);
 4607              		.loc 1 677 73 view .LVU1373
 4608 1116 794B     		ldr	r3, .L259+12
 4609 1118 D3ED007A 		vldr.32	s15, [r3]
 4610 111c 27EE277A 		vmul.f32	s14, s14, s15
 677:Application/chassis_task.c ****         Chassis.FollowYVelocity = float_constrain(Chassis.FollowYVelocity, -20.25f, 20.25f);
 4611              		.loc 1 677 84 view .LVU1374
 4612 1120 77EEA87A 		vadd.f32	s15, s15, s17
 677:Application/chassis_task.c ****         Chassis.FollowYVelocity = float_constrain(Chassis.FollowYVelocity, -20.25f, 20.25f);
 4613              		.loc 1 677 78 view .LVU1375
 4614 1124 87EE270A 		vdiv.f32	s0, s14, s15
 677:Application/chassis_task.c ****         Chassis.FollowYVelocity = float_constrain(Chassis.FollowYVelocity, -20.25f, 20.25f);
 4615              		.loc 1 677 103 view .LVU1376
 4616 1128 04F5BB56 		add	r6, r4, #5984
 4617 112c 96ED007A 		vldr.32	s14, [r6]
 677:Application/chassis_task.c ****         Chassis.FollowYVelocity = float_constrain(Chassis.FollowYVelocity, -20.25f, 20.25f);
 4618              		.loc 1 677 120 view .LVU1377
 4619 1130 67EE288A 		vmul.f32	s17, s14, s17
 677:Application/chassis_task.c ****         Chassis.FollowYVelocity = float_constrain(Chassis.FollowYVelocity, -20.25f, 20.25f);
 4620              		.loc 1 677 129 view .LVU1378
 4621 1134 88EEA77A 		vdiv.f32	s14, s17, s15
 677:Application/chassis_task.c ****         Chassis.FollowYVelocity = float_constrain(Chassis.FollowYVelocity, -20.25f, 20.25f);
 4622              		.loc 1 677 94 view .LVU1379
 4623 1138 30EE070A 		vadd.f32	s0, s0, s14
 677:Application/chassis_task.c ****         Chassis.FollowYVelocity = float_constrain(Chassis.FollowYVelocity, -20.25f, 20.25f);
 4624              		.loc 1 677 33 view .LVU1380
 4625 113c 86ED000A 		vstr.32	s0, [r6]
 678:Application/chassis_task.c ****         Chassis.VxTransfer = user_cos(-Chassis.FollowTheta / RADIAN_COEF) * (Chassis.Vx + Chassis.F
 4626              		.loc 1 678 9 is_stmt 1 view .LVU1381
 678:Application/chassis_task.c ****         Chassis.VxTransfer = user_cos(-Chassis.FollowTheta / RADIAN_COEF) * (Chassis.Vx + Chassis.F
 4627              		.loc 1 678 35 is_stmt 0 view .LVU1382
 4628 1140 B0EE691A 		vmov.f32	s2, s19
 4629 1144 F0EE490A 		vmov.f32	s1, s18
 4630 1148 FFF7FEFF 		bl	float_constrain
 4631              	.LVL190:
 678:Application/chassis_task.c ****         Chassis.VxTransfer = user_cos(-Chassis.FollowTheta / RADIAN_COEF) * (Chassis.Vx + Chassis.F
 4632              		.loc 1 678 33 view .LVU1383
 4633 114c 86ED000A 		vstr.32	s0, [r6]
 679:Application/chassis_task.c ****                              user_sin(-Chassis.FollowTheta / RADIAN_COEF) * (Chassis.Vy + Chassis.F
 4634              		.loc 1 679 9 is_stmt 1 view .LVU1384
 679:Application/chassis_task.c ****                              user_sin(-Chassis.FollowTheta / RADIAN_COEF) * (Chassis.Vy + Chassis.F
 4635              		.loc 1 679 47 is_stmt 0 view .LVU1385
ARM GAS  C:\Users\86152\AppData\Local\Temp\ccWGVtEI.s 			page 229


 4636 1150 94ED7B0A 		vldr.32	s0, [r4, #492]
 679:Application/chassis_task.c ****                              user_sin(-Chassis.FollowTheta / RADIAN_COEF) * (Chassis.Vy + Chassis.F
 4637              		.loc 1 679 39 view .LVU1386
 4638 1154 B1EE400A 		vneg.f32	s0, s0
 679:Application/chassis_task.c ****                              user_sin(-Chassis.FollowTheta / RADIAN_COEF) * (Chassis.Vy + Chassis.F
 4639              		.loc 1 679 30 view .LVU1387
 4640 1158 DFED67AA 		vldr.32	s21, .L259+8
 4641 115c 80EE2A0A 		vdiv.f32	s0, s0, s21
 4642 1160 FFF7FEFF 		bl	arm_cos_f32
 4643              	.LVL191:
 679:Application/chassis_task.c ****                              user_sin(-Chassis.FollowTheta / RADIAN_COEF) * (Chassis.Vy + Chassis.F
 4644              		.loc 1 679 85 view .LVU1388
 4645 1164 B4F90030 		ldrsh	r3, [r4]
 4646 1168 0BEE103A 		vmov	s22, r3	@ int
 679:Application/chassis_task.c ****                              user_sin(-Chassis.FollowTheta / RADIAN_COEF) * (Chassis.Vy + Chassis.F
 4647              		.loc 1 679 98 view .LVU1389
 4648 116c D7ED007A 		vldr.32	s15, [r7]
 679:Application/chassis_task.c ****                              user_sin(-Chassis.FollowTheta / RADIAN_COEF) * (Chassis.Vy + Chassis.F
 4649              		.loc 1 679 124 view .LVU1390
 4650 1170 05F26475 		addw	r5, r5, #1892
 4651 1174 95ED007A 		vldr.32	s14, [r5]
 679:Application/chassis_task.c ****                              user_sin(-Chassis.FollowTheta / RADIAN_COEF) * (Chassis.Vy + Chassis.F
 4652              		.loc 1 679 115 view .LVU1391
 4653 1178 67EE877A 		vmul.f32	s15, s15, s14
 679:Application/chassis_task.c ****                              user_sin(-Chassis.FollowTheta / RADIAN_COEF) * (Chassis.Vy + Chassis.F
 4654              		.loc 1 679 136 view .LVU1392
 4655 117c B2EE0CAA 		vmov.f32	s20, #1.4e+1
 4656 1180 67EE8A7A 		vmul.f32	s15, s15, s20
 679:Application/chassis_task.c ****                              user_sin(-Chassis.FollowTheta / RADIAN_COEF) * (Chassis.Vy + Chassis.F
 4657              		.loc 1 679 144 view .LVU1393
 4658 1184 67EE887A 		vmul.f32	s15, s15, s16
 679:Application/chassis_task.c ****                              user_sin(-Chassis.FollowTheta / RADIAN_COEF) * (Chassis.Vy + Chassis.F
 4659              		.loc 1 679 152 view .LVU1394
 4660 1188 9FED659A 		vldr.32	s18, .L259+48
 4661 118c 87EE897A 		vdiv.f32	s14, s15, s18
 679:Application/chassis_task.c ****                              user_sin(-Chassis.FollowTheta / RADIAN_COEF) * (Chassis.Vy + Chassis.F
 4662              		.loc 1 679 167 view .LVU1395
 4663 1190 F6EE009A 		vmov.f32	s19, #5.0e-1
 4664 1194 27EE297A 		vmul.f32	s14, s14, s19
 679:Application/chassis_task.c ****                              user_sin(-Chassis.FollowTheta / RADIAN_COEF) * (Chassis.Vy + Chassis.F
 4665              		.loc 1 679 171 view .LVU1396
 4666 1198 DFED628A 		vldr.32	s17, .L259+52
 4667 119c C7EE286A 		vdiv.f32	s13, s14, s17
 679:Application/chassis_task.c ****                              user_sin(-Chassis.FollowTheta / RADIAN_COEF) * (Chassis.Vy + Chassis.F
 4668              		.loc 1 679 89 view .LVU1397
 4669 11a0 F8EECB7A 		vcvt.f32.s32	s15, s22
 4670 11a4 77EEA67A 		vadd.f32	s15, s15, s13
 679:Application/chassis_task.c ****                              user_sin(-Chassis.FollowTheta / RADIAN_COEF) * (Chassis.Vy + Chassis.F
 4671              		.loc 1 679 75 view .LVU1398
 4672 11a8 20EE27BA 		vmul.f32	s22, s0, s15
 680:Application/chassis_task.c ****         Chassis.VyTransfer = -user_sin(-Chassis.FollowTheta / RADIAN_COEF) * (Chassis.Vx + Chassis.
 4673              		.loc 1 680 47 view .LVU1399
 4674 11ac 94ED7B0A 		vldr.32	s0, [r4, #492]
 680:Application/chassis_task.c ****         Chassis.VyTransfer = -user_sin(-Chassis.FollowTheta / RADIAN_COEF) * (Chassis.Vx + Chassis.
 4675              		.loc 1 680 39 view .LVU1400
 4676 11b0 B1EE400A 		vneg.f32	s0, s0
 680:Application/chassis_task.c ****         Chassis.VyTransfer = -user_sin(-Chassis.FollowTheta / RADIAN_COEF) * (Chassis.Vx + Chassis.
ARM GAS  C:\Users\86152\AppData\Local\Temp\ccWGVtEI.s 			page 230


 4677              		.loc 1 680 30 view .LVU1401
 4678 11b4 80EE2A0A 		vdiv.f32	s0, s0, s21
 4679 11b8 FFF7FEFF 		bl	arm_sin_f32
 4680              	.LVL192:
 680:Application/chassis_task.c ****         Chassis.VyTransfer = -user_sin(-Chassis.FollowTheta / RADIAN_COEF) * (Chassis.Vx + Chassis.
 4681              		.loc 1 680 85 view .LVU1402
 4682 11bc B4F90230 		ldrsh	r3, [r4, #2]
 680:Application/chassis_task.c ****         Chassis.VyTransfer = -user_sin(-Chassis.FollowTheta / RADIAN_COEF) * (Chassis.Vx + Chassis.
 4683              		.loc 1 680 98 view .LVU1403
 4684 11c0 D6ED007A 		vldr.32	s15, [r6]
 680:Application/chassis_task.c ****         Chassis.VyTransfer = -user_sin(-Chassis.FollowTheta / RADIAN_COEF) * (Chassis.Vx + Chassis.
 4685              		.loc 1 680 124 view .LVU1404
 4686 11c4 95ED007A 		vldr.32	s14, [r5]
 680:Application/chassis_task.c ****         Chassis.VyTransfer = -user_sin(-Chassis.FollowTheta / RADIAN_COEF) * (Chassis.Vx + Chassis.
 4687              		.loc 1 680 115 view .LVU1405
 4688 11c8 67EE877A 		vmul.f32	s15, s15, s14
 680:Application/chassis_task.c ****         Chassis.VyTransfer = -user_sin(-Chassis.FollowTheta / RADIAN_COEF) * (Chassis.Vx + Chassis.
 4689              		.loc 1 680 136 view .LVU1406
 4690 11cc 67EE8A7A 		vmul.f32	s15, s15, s20
 680:Application/chassis_task.c ****         Chassis.VyTransfer = -user_sin(-Chassis.FollowTheta / RADIAN_COEF) * (Chassis.Vx + Chassis.
 4691              		.loc 1 680 144 view .LVU1407
 4692 11d0 67EE887A 		vmul.f32	s15, s15, s16
 680:Application/chassis_task.c ****         Chassis.VyTransfer = -user_sin(-Chassis.FollowTheta / RADIAN_COEF) * (Chassis.Vx + Chassis.
 4693              		.loc 1 680 152 view .LVU1408
 4694 11d4 87EE897A 		vdiv.f32	s14, s15, s18
 680:Application/chassis_task.c ****         Chassis.VyTransfer = -user_sin(-Chassis.FollowTheta / RADIAN_COEF) * (Chassis.Vx + Chassis.
 4695              		.loc 1 680 167 view .LVU1409
 4696 11d8 27EE297A 		vmul.f32	s14, s14, s19
 680:Application/chassis_task.c ****         Chassis.VyTransfer = -user_sin(-Chassis.FollowTheta / RADIAN_COEF) * (Chassis.Vx + Chassis.
 4697              		.loc 1 680 171 view .LVU1410
 4698 11dc C7EE286A 		vdiv.f32	s13, s14, s17
 680:Application/chassis_task.c ****         Chassis.VyTransfer = -user_sin(-Chassis.FollowTheta / RADIAN_COEF) * (Chassis.Vx + Chassis.
 4699              		.loc 1 680 89 view .LVU1411
 4700 11e0 07EE903A 		vmov	s15, r3	@ int
 4701 11e4 F8EEE77A 		vcvt.f32.s32	s15, s15
 4702 11e8 77EEA67A 		vadd.f32	s15, s15, s13
 680:Application/chassis_task.c ****         Chassis.VyTransfer = -user_sin(-Chassis.FollowTheta / RADIAN_COEF) * (Chassis.Vx + Chassis.
 4703              		.loc 1 680 75 view .LVU1412
 4704 11ec 60EE277A 		vmul.f32	s15, s0, s15
 679:Application/chassis_task.c ****                              user_sin(-Chassis.FollowTheta / RADIAN_COEF) * (Chassis.Vy + Chassis.F
 4705              		.loc 1 679 184 view .LVU1413
 4706 11f0 3BEE27BA 		vadd.f32	s22, s22, s15
 679:Application/chassis_task.c ****                              user_sin(-Chassis.FollowTheta / RADIAN_COEF) * (Chassis.Vy + Chassis.F
 4707              		.loc 1 679 28 view .LVU1414
 4708 11f4 84ED02BA 		vstr.32	s22, [r4, #8]
 681:Application/chassis_task.c ****                              user_cos(-Chassis.FollowTheta / RADIAN_COEF) * (Chassis.Vy + Chassis.F
 4709              		.loc 1 681 9 is_stmt 1 view .LVU1415
 681:Application/chassis_task.c ****                              user_cos(-Chassis.FollowTheta / RADIAN_COEF) * (Chassis.Vy + Chassis.F
 4710              		.loc 1 681 48 is_stmt 0 view .LVU1416
 4711 11f8 94ED7B0A 		vldr.32	s0, [r4, #492]
 681:Application/chassis_task.c ****                              user_cos(-Chassis.FollowTheta / RADIAN_COEF) * (Chassis.Vy + Chassis.F
 4712              		.loc 1 681 40 view .LVU1417
 4713 11fc B1EE400A 		vneg.f32	s0, s0
 681:Application/chassis_task.c ****                              user_cos(-Chassis.FollowTheta / RADIAN_COEF) * (Chassis.Vy + Chassis.F
 4714              		.loc 1 681 31 view .LVU1418
 4715 1200 80EE2A0A 		vdiv.f32	s0, s0, s21
 4716 1204 FFF7FEFF 		bl	arm_sin_f32
ARM GAS  C:\Users\86152\AppData\Local\Temp\ccWGVtEI.s 			page 231


 4717              	.LVL193:
 681:Application/chassis_task.c ****                              user_cos(-Chassis.FollowTheta / RADIAN_COEF) * (Chassis.Vy + Chassis.F
 4718              		.loc 1 681 86 view .LVU1419
 4719 1208 B4F90030 		ldrsh	r3, [r4]
 4720 120c 0BEE103A 		vmov	s22, r3	@ int
 681:Application/chassis_task.c ****                              user_cos(-Chassis.FollowTheta / RADIAN_COEF) * (Chassis.Vy + Chassis.F
 4721              		.loc 1 681 99 view .LVU1420
 4722 1210 D7ED007A 		vldr.32	s15, [r7]
 681:Application/chassis_task.c ****                              user_cos(-Chassis.FollowTheta / RADIAN_COEF) * (Chassis.Vy + Chassis.F
 4723              		.loc 1 681 125 view .LVU1421
 4724 1214 95ED007A 		vldr.32	s14, [r5]
 681:Application/chassis_task.c ****                              user_cos(-Chassis.FollowTheta / RADIAN_COEF) * (Chassis.Vy + Chassis.F
 4725              		.loc 1 681 116 view .LVU1422
 4726 1218 67EE877A 		vmul.f32	s15, s15, s14
 681:Application/chassis_task.c ****                              user_cos(-Chassis.FollowTheta / RADIAN_COEF) * (Chassis.Vy + Chassis.F
 4727              		.loc 1 681 137 view .LVU1423
 4728 121c 67EE8A7A 		vmul.f32	s15, s15, s20
 681:Application/chassis_task.c ****                              user_cos(-Chassis.FollowTheta / RADIAN_COEF) * (Chassis.Vy + Chassis.F
 4729              		.loc 1 681 145 view .LVU1424
 4730 1220 67EE887A 		vmul.f32	s15, s15, s16
 681:Application/chassis_task.c ****                              user_cos(-Chassis.FollowTheta / RADIAN_COEF) * (Chassis.Vy + Chassis.F
 4731              		.loc 1 681 153 view .LVU1425
 4732 1224 87EE897A 		vdiv.f32	s14, s15, s18
 681:Application/chassis_task.c ****                              user_cos(-Chassis.FollowTheta / RADIAN_COEF) * (Chassis.Vy + Chassis.F
 4733              		.loc 1 681 168 view .LVU1426
 4734 1228 27EE297A 		vmul.f32	s14, s14, s19
 681:Application/chassis_task.c ****                              user_cos(-Chassis.FollowTheta / RADIAN_COEF) * (Chassis.Vy + Chassis.F
 4735              		.loc 1 681 172 view .LVU1427
 4736 122c C7EE286A 		vdiv.f32	s13, s14, s17
 681:Application/chassis_task.c ****                              user_cos(-Chassis.FollowTheta / RADIAN_COEF) * (Chassis.Vy + Chassis.F
 4737              		.loc 1 681 90 view .LVU1428
 4738 1230 F8EECB7A 		vcvt.f32.s32	s15, s22
 4739 1234 77EEA67A 		vadd.f32	s15, s15, s13
 681:Application/chassis_task.c ****                              user_cos(-Chassis.FollowTheta / RADIAN_COEF) * (Chassis.Vy + Chassis.F
 4740              		.loc 1 681 76 view .LVU1429
 4741 1238 20EE67BA 		vnmul.f32	s22, s0, s15
 682:Application/chassis_task.c ****         last_game_status = game_status.game_progress;
 4742              		.loc 1 682 47 view .LVU1430
 4743 123c 94ED7B0A 		vldr.32	s0, [r4, #492]
 682:Application/chassis_task.c ****         last_game_status = game_status.game_progress;
 4744              		.loc 1 682 39 view .LVU1431
 4745 1240 B1EE400A 		vneg.f32	s0, s0
 682:Application/chassis_task.c ****         last_game_status = game_status.game_progress;
 4746              		.loc 1 682 30 view .LVU1432
 4747 1244 80EE2A0A 		vdiv.f32	s0, s0, s21
 4748 1248 FFF7FEFF 		bl	arm_cos_f32
 4749              	.LVL194:
 682:Application/chassis_task.c ****         last_game_status = game_status.game_progress;
 4750              		.loc 1 682 85 view .LVU1433
 4751 124c B4F90230 		ldrsh	r3, [r4, #2]
 682:Application/chassis_task.c ****         last_game_status = game_status.game_progress;
 4752              		.loc 1 682 98 view .LVU1434
 4753 1250 D6ED007A 		vldr.32	s15, [r6]
 682:Application/chassis_task.c ****         last_game_status = game_status.game_progress;
 4754              		.loc 1 682 124 view .LVU1435
 4755 1254 95ED007A 		vldr.32	s14, [r5]
 682:Application/chassis_task.c ****         last_game_status = game_status.game_progress;
ARM GAS  C:\Users\86152\AppData\Local\Temp\ccWGVtEI.s 			page 232


 4756              		.loc 1 682 115 view .LVU1436
 4757 1258 67EE877A 		vmul.f32	s15, s15, s14
 682:Application/chassis_task.c ****         last_game_status = game_status.game_progress;
 4758              		.loc 1 682 136 view .LVU1437
 4759 125c 67EE8A7A 		vmul.f32	s15, s15, s20
 682:Application/chassis_task.c ****         last_game_status = game_status.game_progress;
 4760              		.loc 1 682 144 view .LVU1438
 4761 1260 67EE887A 		vmul.f32	s15, s15, s16
 682:Application/chassis_task.c ****         last_game_status = game_status.game_progress;
 4762              		.loc 1 682 152 view .LVU1439
 4763 1264 87EE897A 		vdiv.f32	s14, s15, s18
 682:Application/chassis_task.c ****         last_game_status = game_status.game_progress;
 4764              		.loc 1 682 167 view .LVU1440
 4765 1268 67EE299A 		vmul.f32	s19, s14, s19
 682:Application/chassis_task.c ****         last_game_status = game_status.game_progress;
 4766              		.loc 1 682 171 view .LVU1441
 4767 126c 89EEA87A 		vdiv.f32	s14, s19, s17
 682:Application/chassis_task.c ****         last_game_status = game_status.game_progress;
 4768              		.loc 1 682 89 view .LVU1442
 4769 1270 07EE903A 		vmov	s15, r3	@ int
 4770 1274 F8EEE77A 		vcvt.f32.s32	s15, s15
 4771 1278 77EE877A 		vadd.f32	s15, s15, s14
 682:Application/chassis_task.c ****         last_game_status = game_status.game_progress;
 4772              		.loc 1 682 75 view .LVU1443
 4773 127c 60EE277A 		vmul.f32	s15, s0, s15
 681:Application/chassis_task.c ****                              user_cos(-Chassis.FollowTheta / RADIAN_COEF) * (Chassis.Vy + Chassis.F
 4774              		.loc 1 681 185 view .LVU1444
 4775 1280 3BEE27BA 		vadd.f32	s22, s22, s15
 681:Application/chassis_task.c ****                              user_cos(-Chassis.FollowTheta / RADIAN_COEF) * (Chassis.Vy + Chassis.F
 4776              		.loc 1 681 28 view .LVU1445
 4777 1284 84ED03BA 		vstr.32	s22, [r4, #12]
 683:Application/chassis_task.c ****         break;
 4778              		.loc 1 683 9 is_stmt 1 view .LVU1446
 683:Application/chassis_task.c ****         break;
 4779              		.loc 1 683 39 is_stmt 0 view .LVU1447
 4780 1288 274B     		ldr	r3, .L259+56
 4781 128a 1B78     		ldrb	r3, [r3]	@ zero_extendqisi2
 4782 128c C3F30313 		ubfx	r3, r3, #4, #4
 683:Application/chassis_task.c ****         break;
 4783              		.loc 1 683 26 view .LVU1448
 4784 1290 264A     		ldr	r2, .L259+60
 4785 1292 1370     		strb	r3, [r2]
 684:Application/chassis_task.c ****     }
 4786              		.loc 1 684 9 is_stmt 1 view .LVU1449
 4787 1294 FEF7D6BF 		b	.L144
 4788              	.L208:
 629:Application/chassis_task.c ****                 }
 4789              		.loc 1 629 21 view .LVU1450
 629:Application/chassis_task.c ****                 }
 4790              		.loc 1 629 32 is_stmt 0 view .LVU1451
 4791 1298 154A     		ldr	r2, .L259
 4792 129a 0021     		movs	r1, #0
 4793 129c 9180     		strh	r1, [r2, #4]	@ movhi
 4794 129e F8E6     		b	.L207
 4795              	.L247:
 634:Application/chassis_task.c ****             }
 4796              		.loc 1 634 17 is_stmt 1 view .LVU1452
ARM GAS  C:\Users\86152\AppData\Local\Temp\ccWGVtEI.s 			page 233


 634:Application/chassis_task.c ****             }
 4797              		.loc 1 634 27 is_stmt 0 view .LVU1453
 4798 12a0 1B4A     		ldr	r2, .L259+32
 4799 12a2 1388     		ldrh	r3, [r2]
 4800 12a4 0133     		adds	r3, r3, #1
 4801 12a6 1380     		strh	r3, [r2]	@ movhi
 4802 12a8 F6E6     		b	.L209
 4803              	.L206:
 644:Application/chassis_task.c ****             if (Chassis.geto_des == 1)
 4804              		.loc 1 644 13 is_stmt 1 view .LVU1454
 644:Application/chassis_task.c ****             if (Chassis.geto_des == 1)
 4805              		.loc 1 644 32 is_stmt 0 view .LVU1455
 4806 12aa 184B     		ldr	r3, .L259+28
 4807 12ac 03F26472 		addw	r2, r3, #1892
 4808 12b0 0021     		movs	r1, #0
 4809 12b2 1160     		str	r1, [r2]	@ float
 645:Application/chassis_task.c ****             {
 4810              		.loc 1 645 13 is_stmt 1 view .LVU1456
 645:Application/chassis_task.c ****             {
 4811              		.loc 1 645 24 is_stmt 0 view .LVU1457
 4812 12b4 93F86837 		ldrb	r3, [r3, #1896]	@ zero_extendqisi2
 645:Application/chassis_task.c ****             {
 4813              		.loc 1 645 16 view .LVU1458
 4814 12b8 012B     		cmp	r3, #1
 4815 12ba 0ED0     		beq	.L248
 651:Application/chassis_task.c ****             }
 4816              		.loc 1 651 17 is_stmt 1 view .LVU1459
 651:Application/chassis_task.c ****             }
 4817              		.loc 1 651 27 is_stmt 0 view .LVU1460
 4818 12bc 144A     		ldr	r2, .L259+32
 4819 12be 1388     		ldrh	r3, [r2]
 4820 12c0 0133     		adds	r3, r3, #1
 4821 12c2 1380     		strh	r3, [r2]	@ movhi
 4822              	.L212:
 653:Application/chassis_task.c ****             {
 4823              		.loc 1 653 13 is_stmt 1 view .LVU1461
 653:Application/chassis_task.c ****             {
 4824              		.loc 1 653 28 is_stmt 0 view .LVU1462
 4825 12c4 124B     		ldr	r3, .L259+32
 4826 12c6 1B88     		ldrh	r3, [r3]
 653:Application/chassis_task.c ****             {
 4827              		.loc 1 653 16 view .LVU1463
 4828 12c8 052B     		cmp	r3, #5
 4829 12ca 7FF6EFAE 		bls	.L210
 655:Application/chassis_task.c ****                 // Chassis.Vr = 0;
 4830              		.loc 1 655 17 is_stmt 1 view .LVU1464
 655:Application/chassis_task.c ****                 // Chassis.Vr = 0;
 4831              		.loc 1 655 31 is_stmt 0 view .LVU1465
 4832 12ce 0023     		movs	r3, #0
 4833 12d0 0D4A     		ldr	r2, .L259+24
 4834 12d2 1370     		strb	r3, [r2]
 657:Application/chassis_task.c ****             }
 4835              		.loc 1 657 17 is_stmt 1 view .LVU1466
 657:Application/chassis_task.c ****             }
 4836              		.loc 1 657 28 is_stmt 0 view .LVU1467
 4837 12d4 0E4A     		ldr	r2, .L259+32
 4838 12d6 1380     		strh	r3, [r2]	@ movhi
ARM GAS  C:\Users\86152\AppData\Local\Temp\ccWGVtEI.s 			page 234


 4839 12d8 E8E6     		b	.L210
 4840              	.L248:
 647:Application/chassis_task.c ****             }
 4841              		.loc 1 647 17 is_stmt 1 view .LVU1468
 647:Application/chassis_task.c ****             }
 4842              		.loc 1 647 28 is_stmt 0 view .LVU1469
 4843 12da 054B     		ldr	r3, .L259
 4844 12dc 40F2EE22 		movw	r2, #750
 4845 12e0 9A80     		strh	r2, [r3, #4]	@ movhi
 4846 12e2 EFE7     		b	.L212
 4847              	.L240:
 747:Application/chassis_task.c **** 
 4848              		.loc 1 747 9 is_stmt 1 view .LVU1470
 747:Application/chassis_task.c **** 
 4849              		.loc 1 747 21 is_stmt 0 view .LVU1471
 4850 12e4 FFF7FEFF 		bl	xTaskGetTickCount
 4851              	.LVL195:
 747:Application/chassis_task.c **** 
 4852              		.loc 1 747 19 view .LVU1472
 4853 12e8 114B     		ldr	r3, .L259+64
 4854 12ea 1860     		str	r0, [r3]
 4855 12ec FFF7B9B8 		b	.L219
 4856              	.L260:
 4857              		.align	2
 4858              	.L259:
 4859 12f0 00000000 		.word	Chassis
 4860 12f4 00000080 		.word	-2147483648
 4861 12f8 E12E6542 		.word	1113927393
 4862 12fc 00000000 		.word	.LANCHOR12
 4863 1300 00000000 		.word	.LANCHOR45
 4864 1304 00000000 		.word	.LANCHOR46
 4865 1308 00000000 		.word	.LANCHOR47
 4866 130c 00100000 		.word	Chassis+4096
 4867 1310 00000000 		.word	.LANCHOR48
 4868 1314 0AD7A33B 		.word	1000593162
 4869 1318 0000A241 		.word	1101135872
 4870 131c 0000A2C1 		.word	-1046347776
 4871 1320 00009842 		.word	1117257728
 4872 1324 4F77563D 		.word	1029076815
 4873 1328 00000000 		.word	game_status
 4874 132c 00000000 		.word	.LANCHOR49
 4875 1330 00000000 		.word	.LANCHOR16
 4876              		.cfi_endproc
 4877              	.LFE177:
 4879              		.section	.text.AerialKeyBoardCmd,"ax",%progbits
 4880              		.align	1
 4881              		.global	AerialKeyBoardCmd
 4882              		.syntax unified
 4883              		.thumb
 4884              		.thumb_func
 4886              	AerialKeyBoardCmd:
 4887              	.LFB186:
 975:Application/chassis_task.c **** 
 976:Application/chassis_task.c **** void AerialKeyBoardCmd(void)
 977:Application/chassis_task.c **** {
 4888              		.loc 1 977 1 is_stmt 1 view -0
 4889              		.cfi_startproc
ARM GAS  C:\Users\86152\AppData\Local\Temp\ccWGVtEI.s 			page 235


 4890              		@ args = 0, pretend = 0, frame = 0
 4891              		@ frame_needed = 0, uses_anonymous_args = 0
 4892              		@ link register save eliminated.
 978:Application/chassis_task.c ****     switch (map_interactivity.commd_keyboard)
 4893              		.loc 1 978 5 view .LVU1474
 4894              		.loc 1 978 30 is_stmt 0 view .LVU1475
 4895 0000 184B     		ldr	r3, .L267
 4896 0002 1B7B     		ldrb	r3, [r3, #12]	@ zero_extendqisi2
 4897              		.loc 1 978 5 view .LVU1476
 4898 0004 452B     		cmp	r3, #69
 4899 0006 13D0     		beq	.L262
 4900 0008 512B     		cmp	r3, #81
 4901 000a 23D1     		bne	.L263
 979:Application/chassis_task.c ****     {
 980:Application/chassis_task.c ****     case 'Q':                          // 吊射高地
 981:Application/chassis_task.c ****         if (robot_state.robot_id <= 7) // red
 4902              		.loc 1 981 9 is_stmt 1 view .LVU1477
 4903              		.loc 1 981 24 is_stmt 0 view .LVU1478
 4904 000c 164B     		ldr	r3, .L267+4
 4905 000e 1B78     		ldrb	r3, [r3]	@ zero_extendqisi2
 4906              		.loc 1 981 12 view .LVU1479
 4907 0010 072B     		cmp	r3, #7
 4908 0012 06D8     		bhi	.L264
 982:Application/chassis_task.c ****         {
 983:Application/chassis_task.c ****             TempAerialX = 7.89f;
 4909              		.loc 1 983 13 is_stmt 1 view .LVU1480
 4910              		.loc 1 983 25 is_stmt 0 view .LVU1481
 4911 0014 154B     		ldr	r3, .L267+8
 4912 0016 164A     		ldr	r2, .L267+12
 4913 0018 1A60     		str	r2, [r3]	@ float
 984:Application/chassis_task.c ****             TempAerialY = 14.46f;
 4914              		.loc 1 984 13 is_stmt 1 view .LVU1482
 4915              		.loc 1 984 25 is_stmt 0 view .LVU1483
 4916 001a 164B     		ldr	r3, .L267+16
 4917 001c 164A     		ldr	r2, .L267+20
 4918 001e 1A60     		str	r2, [r3]	@ float
 4919 0020 7047     		bx	lr
 4920              	.L264:
 985:Application/chassis_task.c ****         }
 986:Application/chassis_task.c ****         else
 987:Application/chassis_task.c ****         {
 988:Application/chassis_task.c ****             TempAerialX = 21.84f;
 4921              		.loc 1 988 13 is_stmt 1 view .LVU1484
 4922              		.loc 1 988 25 is_stmt 0 view .LVU1485
 4923 0022 124B     		ldr	r3, .L267+8
 4924 0024 154A     		ldr	r2, .L267+24
 4925 0026 1A60     		str	r2, [r3]	@ float
 989:Application/chassis_task.c ****             TempAerialY = 2.58f;
 4926              		.loc 1 989 13 is_stmt 1 view .LVU1486
 4927              		.loc 1 989 25 is_stmt 0 view .LVU1487
 4928 0028 124B     		ldr	r3, .L267+16
 4929 002a 154A     		ldr	r2, .L267+28
 4930 002c 1A60     		str	r2, [r3]	@ float
 4931 002e 7047     		bx	lr
 4932              	.L262:
 990:Application/chassis_task.c ****         }
 991:Application/chassis_task.c ****         break;
ARM GAS  C:\Users\86152\AppData\Local\Temp\ccWGVtEI.s 			page 236


 992:Application/chassis_task.c ****     case 'E':                          // 工程银矿处
 993:Application/chassis_task.c ****         if (robot_state.robot_id <= 7) // red
 4933              		.loc 1 993 9 is_stmt 1 view .LVU1488
 4934              		.loc 1 993 24 is_stmt 0 view .LVU1489
 4935 0030 0D4B     		ldr	r3, .L267+4
 4936 0032 1B78     		ldrb	r3, [r3]	@ zero_extendqisi2
 4937              		.loc 1 993 12 view .LVU1490
 4938 0034 072B     		cmp	r3, #7
 4939 0036 06D8     		bhi	.L266
 994:Application/chassis_task.c ****         {
 995:Application/chassis_task.c ****             TempAerialX = 9.28f;
 4940              		.loc 1 995 13 is_stmt 1 view .LVU1491
 4941              		.loc 1 995 25 is_stmt 0 view .LVU1492
 4942 0038 0C4B     		ldr	r3, .L267+8
 4943 003a 124A     		ldr	r2, .L267+32
 4944 003c 1A60     		str	r2, [r3]	@ float
 996:Application/chassis_task.c ****             TempAerialY = 12.10f;
 4945              		.loc 1 996 13 is_stmt 1 view .LVU1493
 4946              		.loc 1 996 25 is_stmt 0 view .LVU1494
 4947 003e 0D4B     		ldr	r3, .L267+16
 4948 0040 114A     		ldr	r2, .L267+36
 4949 0042 1A60     		str	r2, [r3]	@ float
 4950 0044 7047     		bx	lr
 4951              	.L266:
 997:Application/chassis_task.c ****         }
 998:Application/chassis_task.c ****         else
 999:Application/chassis_task.c ****         {
1000:Application/chassis_task.c ****             TempAerialX = 19.17f;
 4952              		.loc 1 1000 13 is_stmt 1 view .LVU1495
 4953              		.loc 1 1000 25 is_stmt 0 view .LVU1496
 4954 0046 094B     		ldr	r3, .L267+8
 4955 0048 104A     		ldr	r2, .L267+40
 4956 004a 1A60     		str	r2, [r3]	@ float
1001:Application/chassis_task.c ****             TempAerialY = 5.02f;
 4957              		.loc 1 1001 13 is_stmt 1 view .LVU1497
 4958              		.loc 1 1001 25 is_stmt 0 view .LVU1498
 4959 004c 094B     		ldr	r3, .L267+16
 4960 004e 104A     		ldr	r2, .L267+44
 4961 0050 1A60     		str	r2, [r3]	@ float
 4962 0052 7047     		bx	lr
 4963              	.L263:
1002:Application/chassis_task.c ****         }
1003:Application/chassis_task.c ****         break;
1004:Application/chassis_task.c ****     default:
1005:Application/chassis_task.c ****         TempAerialX = map_interactivity.target_position_x;
 4964              		.loc 1 1005 9 is_stmt 1 view .LVU1499
 4965              		.loc 1 1005 40 is_stmt 0 view .LVU1500
 4966 0054 034B     		ldr	r3, .L267
 4967 0056 1968     		ldr	r1, [r3]	@ float
 4968              		.loc 1 1005 21 view .LVU1501
 4969 0058 044A     		ldr	r2, .L267+8
 4970 005a 1160     		str	r1, [r2]	@ float
1006:Application/chassis_task.c ****         TempAerialY = map_interactivity.target_position_y;
 4971              		.loc 1 1006 9 is_stmt 1 view .LVU1502
 4972              		.loc 1 1006 40 is_stmt 0 view .LVU1503
 4973 005c 5A68     		ldr	r2, [r3, #4]	@ float
 4974              		.loc 1 1006 21 view .LVU1504
ARM GAS  C:\Users\86152\AppData\Local\Temp\ccWGVtEI.s 			page 237


 4975 005e 054B     		ldr	r3, .L267+16
 4976 0060 1A60     		str	r2, [r3]	@ float
1007:Application/chassis_task.c ****     }
1008:Application/chassis_task.c **** }...
 4977              		.loc 1 1008 1 view .LVU1505
 4978 0062 7047     		bx	lr
 4979              	.L268:
 4980              		.align	2
 4981              	.L267:
 4982 0064 00000000 		.word	map_interactivity
 4983 0068 00000000 		.word	robot_state
 4984 006c 00000000 		.word	.LANCHOR52
 4985 0070 E17AFC40 		.word	1090288353
 4986 0074 00000000 		.word	.LANCHOR53
 4987 0078 295C6741 		.word	1097292841
 4988 007c 52B8AE41 		.word	1101969490
 4989 0080 B81E2540 		.word	1076174520
 4990 0084 E17A1441 		.word	1091861217
 4991 0088 9A994141 		.word	1094818202
 4992 008c 295C9941 		.word	1100569641
 4993 0090 D7A3A040 		.word	1084269527
 4994              		.cfi_endproc
 4995              	.LFE186:
 4997              		.section	.text.Chassis_Set_Mode,"ax",%progbits
 4998              		.align	1
 4999              		.syntax unified
 5000              		.thumb
 5001              		.thumb_func
 5003              	Chassis_Set_Mode:
 5004              	.LFB176:
 291:Application/chassis_task.c **** {
 5005              		.loc 1 291 1 is_stmt 1 view -0
 5006              		.cfi_startproc
 5007              		@ args = 0, pretend = 0, frame = 0
 5008              		@ frame_needed = 0, uses_anonymous_args = 0
 5009 0000 08B5     		push	{r3, lr}
 5010              	.LCFI27:
 5011              		.cfi_def_cfa_offset 8
 5012              		.cfi_offset 3, -8
 5013              		.cfi_offset 14, -4
 292:Application/chassis_task.c ****     static uint16_t LastKeyCode = 0;
 5014              		.loc 1 292 5 view .LVU1507
 294:Application/chassis_task.c ****     if (is_TOE_Error(CHASSIS_MOTOR1_TOE) && is_TOE_Error(CHASSIS_MOTOR2_TOE) && is_TOE_Error(CHASSI
 5015              		.loc 1 294 5 view .LVU1508
 294:Application/chassis_task.c ****     if (is_TOE_Error(CHASSIS_MOTOR1_TOE) && is_TOE_Error(CHASSIS_MOTOR2_TOE) && is_TOE_Error(CHASSI
 5016              		.loc 1 294 9 is_stmt 0 view .LVU1509
 5017 0002 0920     		movs	r0, #9
 5018 0004 FFF7FEFF 		bl	is_TOE_Error
 5019              	.LVL196:
 294:Application/chassis_task.c ****     if (is_TOE_Error(CHASSIS_MOTOR1_TOE) && is_TOE_Error(CHASSIS_MOTOR2_TOE) && is_TOE_Error(CHASSI
 5020              		.loc 1 294 8 view .LVU1510
 5021 0008 C8B9     		cbnz	r0, .L276
 5022              	.L270:
 298:Application/chassis_task.c ****     switch (remote_control.switch_right)
 5023              		.loc 1 298 5 is_stmt 1 view .LVU1511
 298:Application/chassis_task.c ****     switch (remote_control.switch_right)
 5024              		.loc 1 298 27 is_stmt 0 view .LVU1512
ARM GAS  C:\Users\86152\AppData\Local\Temp\ccWGVtEI.s 			page 238


 5025 000a 254B     		ldr	r3, .L279
 5026 000c 5B7B     		ldrb	r3, [r3, #13]	@ zero_extendqisi2
 298:Application/chassis_task.c ****     switch (remote_control.switch_right)
 5027              		.loc 1 298 5 view .LVU1513
 5028 000e 022B     		cmp	r3, #2
 5029 0010 37D0     		beq	.L271
 5030 0012 032B     		cmp	r3, #3
 5031 0014 2CD0     		beq	.L272
 5032 0016 012B     		cmp	r3, #1
 5033 0018 25D0     		beq	.L277
 5034              	.L273:
 315:Application/chassis_task.c ****     if ((remote_control.switch_left == Switch_Down) && (remote_control.switch_right == Switch_Up))
 5035              		.loc 1 315 5 is_stmt 1 view .LVU1514
 315:Application/chassis_task.c ****     if ((remote_control.switch_left == Switch_Down) && (remote_control.switch_right == Switch_Up))
 5036              		.loc 1 315 53 is_stmt 0 view .LVU1515
 5037 001a 214B     		ldr	r3, .L279
 5038 001c 9B89     		ldrh	r3, [r3, #12]
 315:Application/chassis_task.c ****     if ((remote_control.switch_left == Switch_Down) && (remote_control.switch_right == Switch_Up))
 5039              		.loc 1 315 8 view .LVU1516
 5040 001e B3F5817F 		cmp	r3, #258
 5041 0022 37D0     		beq	.L278
 5042              	.L274:
 320:Application/chassis_task.c ****     AerialKeyBoardCmd();
 5043              		.loc 1 320 5 is_stmt 1 view .LVU1517
 5044 0024 FFF7FEFF 		bl	AerialKeyBoardCmd
 5045              	.LVL197:
 322:Application/chassis_task.c ****     last_game_status = game_status.game_progress;
 5046              		.loc 1 322 5 view .LVU1518
 322:Application/chassis_task.c ****     last_game_status = game_status.game_progress;
 5047              		.loc 1 322 35 is_stmt 0 view .LVU1519
 5048 0028 1E4B     		ldr	r3, .L279+4
 5049 002a 1B78     		ldrb	r3, [r3]	@ zero_extendqisi2
 5050 002c C3F30313 		ubfx	r3, r3, #4, #4
 322:Application/chassis_task.c ****     last_game_status = game_status.game_progress;
 5051              		.loc 1 322 22 view .LVU1520
 5052 0030 1D4A     		ldr	r2, .L279+8
 5053 0032 1370     		strb	r3, [r2]
 323:Application/chassis_task.c ****     LastKeyCode = remote_control.key_code;
 5054              		.loc 1 323 5 is_stmt 1 view .LVU1521
 323:Application/chassis_task.c ****     LastKeyCode = remote_control.key_code;
 5055              		.loc 1 323 33 is_stmt 0 view .LVU1522
 5056 0034 1A4B     		ldr	r3, .L279
 5057 0036 DA8A     		ldrh	r2, [r3, #22]
 323:Application/chassis_task.c ****     LastKeyCode = remote_control.key_code;
 5058              		.loc 1 323 17 view .LVU1523
 5059 0038 1C4B     		ldr	r3, .L279+12
 5060 003a 1A80     		strh	r2, [r3]	@ movhi
 324:Application/chassis_task.c **** }
 5061              		.loc 1 324 1 view .LVU1524
 5062 003c 08BD     		pop	{r3, pc}
 5063              	.L276:
 294:Application/chassis_task.c ****     if (is_TOE_Error(CHASSIS_MOTOR1_TOE) && is_TOE_Error(CHASSIS_MOTOR2_TOE) && is_TOE_Error(CHASSI
 5064              		.loc 1 294 45 discriminator 1 view .LVU1525
 5065 003e 0A20     		movs	r0, #10
 5066 0040 FFF7FEFF 		bl	is_TOE_Error
 5067              	.LVL198:
 294:Application/chassis_task.c ****     if (is_TOE_Error(CHASSIS_MOTOR1_TOE) && is_TOE_Error(CHASSIS_MOTOR2_TOE) && is_TOE_Error(CHASSI
ARM GAS  C:\Users\86152\AppData\Local\Temp\ccWGVtEI.s 			page 239


 5068              		.loc 1 294 42 discriminator 1 view .LVU1526
 5069 0044 0028     		cmp	r0, #0
 5070 0046 E0D0     		beq	.L270
 294:Application/chassis_task.c ****     if (is_TOE_Error(CHASSIS_MOTOR1_TOE) && is_TOE_Error(CHASSIS_MOTOR2_TOE) && is_TOE_Error(CHASSI
 5071              		.loc 1 294 81 discriminator 2 view .LVU1527
 5072 0048 0B20     		movs	r0, #11
 5073 004a FFF7FEFF 		bl	is_TOE_Error
 5074              	.LVL199:
 294:Application/chassis_task.c ****     if (is_TOE_Error(CHASSIS_MOTOR1_TOE) && is_TOE_Error(CHASSIS_MOTOR2_TOE) && is_TOE_Error(CHASSI
 5075              		.loc 1 294 78 discriminator 2 view .LVU1528
 5076 004e 0028     		cmp	r0, #0
 5077 0050 DBD0     		beq	.L270
 294:Application/chassis_task.c ****     if (is_TOE_Error(CHASSIS_MOTOR1_TOE) && is_TOE_Error(CHASSIS_MOTOR2_TOE) && is_TOE_Error(CHASSI
 5078              		.loc 1 294 117 discriminator 3 view .LVU1529
 5079 0052 0C20     		movs	r0, #12
 5080 0054 FFF7FEFF 		bl	is_TOE_Error
 5081              	.LVL200:
 294:Application/chassis_task.c ****     if (is_TOE_Error(CHASSIS_MOTOR1_TOE) && is_TOE_Error(CHASSIS_MOTOR2_TOE) && is_TOE_Error(CHASSI
 5082              		.loc 1 294 114 discriminator 3 view .LVU1530
 5083 0058 0028     		cmp	r0, #0
 5084 005a D6D0     		beq	.L270
 295:Application/chassis_task.c ****         Chassis.Mode = Silence_Mode;
 5085              		.loc 1 295 9 is_stmt 1 view .LVU1531
 295:Application/chassis_task.c ****         Chassis.Mode = Silence_Mode;
 5086              		.loc 1 295 22 is_stmt 0 view .LVU1532
 5087 005c 144B     		ldr	r3, .L279+16
 5088 005e 0322     		movs	r2, #3
 5089 0060 83F8D421 		strb	r2, [r3, #468]
 5090 0064 D1E7     		b	.L270
 5091              	.L277:
 301:Application/chassis_task.c ****         Chassis.Mode = Spinning_Mode;
 5092              		.loc 1 301 9 is_stmt 1 view .LVU1533
 301:Application/chassis_task.c ****         Chassis.Mode = Spinning_Mode;
 5093              		.loc 1 301 22 is_stmt 0 view .LVU1534
 5094 0066 124B     		ldr	r3, .L279+16
 5095 0068 0122     		movs	r2, #1
 5096 006a 83F8D421 		strb	r2, [r3, #468]
 303:Application/chassis_task.c ****         break;
 5097              		.loc 1 303 9 is_stmt 1 view .LVU1535
 5098 006e D4E7     		b	.L273
 5099              	.L272:
 306:Application/chassis_task.c ****         Chassis.Mode = Follow_Mode;
 5100              		.loc 1 306 9 view .LVU1536
 306:Application/chassis_task.c ****         Chassis.Mode = Follow_Mode;
 5101              		.loc 1 306 22 is_stmt 0 view .LVU1537
 5102 0070 0F4B     		ldr	r3, .L279+16
 5103 0072 0022     		movs	r2, #0
 5104 0074 83F8D421 		strb	r2, [r3, #468]
 307:Application/chassis_task.c ****         Chassis.FollowCoef = 0;
 5105              		.loc 1 307 9 is_stmt 1 view .LVU1538
 307:Application/chassis_task.c ****         Chassis.FollowCoef = 0;
 5106              		.loc 1 307 28 is_stmt 0 view .LVU1539
 5107 0078 03F5BB53 		add	r3, r3, #5984
 5108 007c 0022     		movs	r2, #0
 5109 007e 5A60     		str	r2, [r3, #4]	@ float
 308:Application/chassis_task.c ****         break;
 5110              		.loc 1 308 9 is_stmt 1 view .LVU1540
ARM GAS  C:\Users\86152\AppData\Local\Temp\ccWGVtEI.s 			page 240


 5111 0080 CBE7     		b	.L273
 5112              	.L271:
 311:Application/chassis_task.c ****         Chassis.Mode = Follow_Mode;
 5113              		.loc 1 311 9 view .LVU1541
 311:Application/chassis_task.c ****         Chassis.Mode = Follow_Mode;
 5114              		.loc 1 311 22 is_stmt 0 view .LVU1542
 5115 0082 0B4B     		ldr	r3, .L279+16
 5116 0084 0022     		movs	r2, #0
 5117 0086 83F8D421 		strb	r2, [r3, #468]
 312:Application/chassis_task.c ****         Chassis.FollowCoef = 0;
 5118              		.loc 1 312 9 is_stmt 1 view .LVU1543
 312:Application/chassis_task.c ****         Chassis.FollowCoef = 0;
 5119              		.loc 1 312 28 is_stmt 0 view .LVU1544
 5120 008a 03F5BB53 		add	r3, r3, #5984
 5121 008e 0022     		movs	r2, #0
 5122 0090 5A60     		str	r2, [r3, #4]	@ float
 313:Application/chassis_task.c ****         break;
 5123              		.loc 1 313 9 is_stmt 1 view .LVU1545
 5124 0092 C2E7     		b	.L273
 5125              	.L278:
 317:Application/chassis_task.c ****         Chassis.Mode = Debug_Mode;
 5126              		.loc 1 317 9 view .LVU1546
 317:Application/chassis_task.c ****         Chassis.Mode = Debug_Mode;
 5127              		.loc 1 317 22 is_stmt 0 view .LVU1547
 5128 0094 064B     		ldr	r3, .L279+16
 5129 0096 0522     		movs	r2, #5
 5130 0098 83F8D421 		strb	r2, [r3, #468]
 5131 009c C2E7     		b	.L274
 5132              	.L280:
 5133 009e 00BF     		.align	2
 5134              	.L279:
 5135 00a0 00000000 		.word	remote_control
 5136 00a4 00000000 		.word	game_status
 5137 00a8 00000000 		.word	.LANCHOR49
 5138 00ac 00000000 		.word	.LANCHOR54
 5139 00b0 00000000 		.word	Chassis
 5140              		.cfi_endproc
 5141              	.LFE176:
 5143              		.section	.text.Chassis_Control,"ax",%progbits
 5144              		.align	1
 5145              		.global	Chassis_Control
 5146              		.syntax unified
 5147              		.thumb
 5148              		.thumb_func
 5150              	Chassis_Control:
 5151              	.LFB173:
 184:Application/chassis_task.c **** {
 5152              		.loc 1 184 1 is_stmt 1 view -0
 5153              		.cfi_startproc
 5154              		@ args = 0, pretend = 0, frame = 0
 5155              		@ frame_needed = 0, uses_anonymous_args = 0
 5156 0000 08B5     		push	{r3, lr}
 5157              	.LCFI28:
 5158              		.cfi_def_cfa_offset 8
 5159              		.cfi_offset 3, -8
 5160              		.cfi_offset 14, -4
 185:Application/chassis_task.c ****     dt = DWT_GetDeltaT(&Chassis_DWT_Count);
ARM GAS  C:\Users\86152\AppData\Local\Temp\ccWGVtEI.s 			page 241


 5161              		.loc 1 185 5 view .LVU1549
 185:Application/chassis_task.c ****     dt = DWT_GetDeltaT(&Chassis_DWT_Count);
 5162              		.loc 1 185 10 is_stmt 0 view .LVU1550
 5163 0002 1048     		ldr	r0, .L283
 5164 0004 FFF7FEFF 		bl	DWT_GetDeltaT
 5165              	.LVL201:
 185:Application/chassis_task.c ****     dt = DWT_GetDeltaT(&Chassis_DWT_Count);
 5166              		.loc 1 185 8 view .LVU1551
 5167 0008 0F4B     		ldr	r3, .L283+4
 5168 000a 83ED000A 		vstr.32	s0, [r3]
 186:Application/chassis_task.c ****     t += dt;
 5169              		.loc 1 186 5 is_stmt 1 view .LVU1552
 186:Application/chassis_task.c ****     t += dt;
 5170              		.loc 1 186 7 is_stmt 0 view .LVU1553
 5171 000e 0F4B     		ldr	r3, .L283+8
 5172 0010 93ED007A 		vldr.32	s14, [r3]
 5173 0014 77EE007A 		vadd.f32	s15, s14, s0
 5174 0018 C3ED007A 		vstr.32	s15, [r3]
 187:Application/chassis_task.c ****     ChassisMotionEst_Update(dt);
 5175              		.loc 1 187 5 is_stmt 1 view .LVU1554
 5176 001c FFF7FEFF 		bl	ChassisMotionEst_Update
 5177              	.LVL202:
 189:Application/chassis_task.c ****     Chassis_Get_Theta();
 5178              		.loc 1 189 5 view .LVU1555
 5179 0020 FFF7FEFF 		bl	Chassis_Get_Theta
 5180              	.LVL203:
 191:Application/chassis_task.c ****     Chassis_Set_Mode();
 5181              		.loc 1 191 5 view .LVU1556
 5182 0024 FFF7FEFF 		bl	Chassis_Set_Mode
 5183              	.LVL204:
 193:Application/chassis_task.c ****     Chassis_Get_CtrlValue();
 5184              		.loc 1 193 5 view .LVU1557
 5185 0028 FFF7FEFF 		bl	Chassis_Get_CtrlValue
 5186              	.LVL205:
 195:Application/chassis_task.c ****     Chassis_Set_Control();
 5187              		.loc 1 195 5 view .LVU1558
 5188 002c FFF7FEFF 		bl	Chassis_Set_Control
 5189              	.LVL206:
 197:Application/chassis_task.c ****     Send_Chassis_Current();
 5190              		.loc 1 197 5 view .LVU1559
 5191 0030 FFF7FEFF 		bl	Send_Chassis_Current
 5192              	.LVL207:
 199:Application/chassis_task.c ****     SendAerialData(&hcan2, &TempAerialX, &TempAerialY, &map_interactivity.commd_keyboard);
 5193              		.loc 1 199 5 view .LVU1560
 5194 0034 064B     		ldr	r3, .L283+12
 5195 0036 074A     		ldr	r2, .L283+16
 5196 0038 0749     		ldr	r1, .L283+20
 5197 003a 0848     		ldr	r0, .L283+24
 5198 003c FFF7FEFF 		bl	SendAerialData
 5199              	.LVL208:
 200:Application/chassis_task.c **** }
 5200              		.loc 1 200 1 is_stmt 0 view .LVU1561
 5201 0040 08BD     		pop	{r3, pc}
 5202              	.L284:
 5203 0042 00BF     		.align	2
 5204              	.L283:
 5205 0044 00000000 		.word	.LANCHOR55
ARM GAS  C:\Users\86152\AppData\Local\Temp\ccWGVtEI.s 			page 242


 5206 0048 00000000 		.word	.LANCHOR12
 5207 004c 00000000 		.word	.LANCHOR33
 5208 0050 0C000000 		.word	map_interactivity+12
 5209 0054 00000000 		.word	.LANCHOR53
 5210 0058 00000000 		.word	.LANCHOR52
 5211 005c 00000000 		.word	hcan2
 5212              		.cfi_endproc
 5213              	.LFE173:
 5215              		.global	aimssistLoseCount
 5216              		.global	aimassist_online
 5217              		.global	xhat_data_obsv
 5218              		.global	ChiSquare
 5219              		.global	ChassisMotionEst_H
 5220              		.global	ChassisMotionEst_R
 5221              		.global	ChassisMotionEst_Q
 5222              		.global	ChassisMotionEst_Sigma
 5223              		.global	ChassisMotionEst_Pinit
 5224              		.global	ChassisMotionEst_P
 5225              		.global	ChassisMotionEst_F
 5226              		.global	ReachFinished
 5227              		.global	ReachCount
 5228              		.global	lostaim
 5229              		.global	last_game_status
 5230              		.global	method
 5231              		.global	walktodes
 5232              		.global	user_count_time
 5233              		.global	Tempvx
 5234              		.global	Tempvy
 5235              		.global	Gimbal_Position_Modification
 5236              		.global	count_press
 5237              		.global	c
 5238              		.global	Vr_MAX
 5239              		.global	Vr_k
 5240              		.global	Vy_k
 5241              		.global	Vx_k
 5242              		.global	MAX_RPM
 5243              		.global	VR
 5244              		.global	AMP
 5245              		.global	last_Vy
 5246              		.global	last_Vx
 5247              		.global	Vy_ref
 5248              		.global	Vx_ref
 5249              		.global	Stamp
 5250              		.global	sentry_HP
 5251              		.global	outpost_HP
 5252              		.global	TempAerialY
 5253              		.global	TempAerialX
 5254              		.global	InPosFlag
 5255              		.global	InPosCount
 5256              		.global	TempA
 5257              		.global	TempVyTransfer
 5258              		.global	TempVxTransfer
 5259              		.global	SpinningValidVy
 5260              		.global	SpinningValidVx
 5261              		.global	use_spinningmove
 5262              		.global	SpinningValidTheta
 5263              		.global	preFollowTheta
ARM GAS  C:\Users\86152\AppData\Local\Temp\ccWGVtEI.s 			page 243


 5264              		.global	debugvalue
 5265              		.global	nanCount
 5266              		.global	V_coef
 5267              		.global	Vxy_Coef
 5268              		.global	time_temp
 5269              		.global	tempTime_Sprint
 5270              		.global	Chassis_DWT_Count
 5271              		.global	Chassis
 5272              		.global	RC_Lost
 5273              		.global	chassis_debug_mode
 5274              		.section	.bss.Chassis,"aw",%nobits
 5275              		.align	3
 5278              	Chassis:
 5279 0000 00000000 		.space	7824
 5279      00000000 
 5279      00000000 
 5279      00000000 
 5279      00000000 
 5280              		.section	.bss.ChassisMotionEst_P,"aw",%nobits
 5281              		.align	2
 5284              	ChassisMotionEst_P:
 5285 0000 00000000 		.space	144
 5285      00000000 
 5285      00000000 
 5285      00000000 
 5285      00000000 
 5286              		.section	.bss.Chassis_DWT_Count,"aw",%nobits
 5287              		.align	2
 5288              		.set	.LANCHOR55,. + 0
 5291              	Chassis_DWT_Count:
 5292 0000 00000000 		.space	4
 5293              		.section	.bss.ChiSquare,"aw",%nobits
 5294              		.align	2
 5297              	ChiSquare:
 5298 0000 00000000 		.space	4
 5299              		.section	.bss.InPosCount,"aw",%nobits
 5300              		.align	2
 5301              		.set	.LANCHOR37,. + 0
 5304              	InPosCount:
 5305 0000 00000000 		.space	4
 5306              		.section	.bss.InPosFlag,"aw",%nobits
 5307              		.set	.LANCHOR38,. + 0
 5310              	InPosFlag:
 5311 0000 00       		.space	1
 5312              		.section	.bss.LastKeyCode.22,"aw",%nobits
 5313              		.align	1
 5314              		.set	.LANCHOR54,. + 0
 5317              	LastKeyCode.22:
 5318 0000 0000     		.space	2
 5319              		.section	.bss.RC_Lost,"aw",%nobits
 5320              		.align	2
 5323              	RC_Lost:
 5324 0000 00000000 		.space	4
 5325              		.section	.bss.ReachCount,"aw",%nobits
 5326              		.align	1
 5327              		.set	.LANCHOR48,. + 0
 5330              	ReachCount:
ARM GAS  C:\Users\86152\AppData\Local\Temp\ccWGVtEI.s 			page 244


 5331 0000 0000     		.space	2
 5332              		.section	.bss.ReachFinished,"aw",%nobits
 5333              		.set	.LANCHOR47,. + 0
 5336              	ReachFinished:
 5337 0000 00       		.space	1
 5338              		.section	.bss.SpiningDistance.11,"aw",%nobits
 5339              		.align	2
 5340              		.set	.LANCHOR29,. + 0
 5343              	SpiningDistance.11:
 5344 0000 00000000 		.space	4
 5345              		.section	.bss.SpinningValidTheta,"aw",%nobits
 5346              		.align	2
 5347              		.set	.LANCHOR44,. + 0
 5350              	SpinningValidTheta:
 5351 0000 00000000 		.space	4
 5352              		.section	.bss.SpinningValidVx,"aw",%nobits
 5353              		.align	2
 5354              		.set	.LANCHOR39,. + 0
 5357              	SpinningValidVx:
 5358 0000 00000000 		.space	4
 5359              		.section	.bss.SpinningValidVy,"aw",%nobits
 5360              		.align	2
 5361              		.set	.LANCHOR40,. + 0
 5364              	SpinningValidVy:
 5365 0000 00000000 		.space	4
 5366              		.section	.bss.Stamp,"aw",%nobits
 5367              		.align	2
 5370              	Stamp:
 5371 0000 00000000 		.space	4
 5372              		.section	.bss.TempAerialX,"aw",%nobits
 5373              		.align	2
 5374              		.set	.LANCHOR52,. + 0
 5377              	TempAerialX:
 5378 0000 00000000 		.space	4
 5379              		.section	.bss.TempAerialY,"aw",%nobits
 5380              		.align	2
 5381              		.set	.LANCHOR53,. + 0
 5384              	TempAerialY:
 5385 0000 00000000 		.space	4
 5386              		.section	.bss.TempMaxVelocity.3,"aw",%nobits
 5387              		.align	2
 5388              		.set	.LANCHOR2,. + 0
 5391              	TempMaxVelocity.3:
 5392 0000 00000000 		.space	4
 5393              		.section	.bss.TempVxTransfer,"aw",%nobits
 5394              		.align	2
 5397              	TempVxTransfer:
 5398 0000 00000000 		.space	4
 5399              		.section	.bss.TempVyTransfer,"aw",%nobits
 5400              		.align	2
 5403              	TempVyTransfer:
 5404 0000 00000000 		.space	4
 5405              		.section	.bss.Temp_Vx.21,"aw",%nobits
 5406              		.align	2
 5407              		.set	.LANCHOR10,. + 0
 5410              	Temp_Vx.21:
 5411 0000 00000000 		.space	4
ARM GAS  C:\Users\86152\AppData\Local\Temp\ccWGVtEI.s 			page 245


 5412              		.section	.bss.Temp_Vy.20,"aw",%nobits
 5413              		.align	2
 5414              		.set	.LANCHOR11,. + 0
 5417              	Temp_Vy.20:
 5418 0000 00000000 		.space	4
 5419              		.section	.bss.Tempvx,"aw",%nobits
 5420              		.align	2
 5423              	Tempvx:
 5424 0000 00000000 		.space	4
 5425              		.section	.bss.Tempvy,"aw",%nobits
 5426              		.align	2
 5429              	Tempvy:
 5430 0000 00000000 		.space	4
 5431              		.section	.bss.Vx_ref,"aw",%nobits
 5432              		.align	2
 5435              	Vx_ref:
 5436 0000 00000000 		.space	4
 5437              		.section	.bss.Vy_ref,"aw",%nobits
 5438              		.align	2
 5441              	Vy_ref:
 5442 0000 00000000 		.space	4
 5443              		.section	.bss.aimassist_online,"aw",%nobits
 5446              	aimassist_online:
 5447 0000 00       		.space	1
 5448              		.section	.bss.aimssistLoseCount,"aw",%nobits
 5449              		.align	2
 5450              		.set	.LANCHOR46,. + 0
 5453              	aimssistLoseCount:
 5454 0000 00000000 		.space	4
 5455              		.section	.bss.center_count.7,"aw",%nobits
 5456              		.align	2
 5457              		.set	.LANCHOR34,. + 0
 5460              	center_count.7:
 5461 0000 00000000 		.space	4
 5462              		.section	.bss.count.0,"aw",%nobits
 5463              		.align	2
 5464              		.set	.LANCHOR19,. + 0
 5467              	count.0:
 5468 0000 00000000 		.space	4
 5469              		.section	.bss.count_press,"aw",%nobits
 5472              	count_press:
 5473 0000 00       		.space	1
 5474              		.section	.bss.data_novalid_count.5,"aw",%nobits
 5475              		.align	2
 5476              		.set	.LANCHOR36,. + 0
 5479              	data_novalid_count.5:
 5480 0000 00000000 		.space	4
 5481              		.section	.bss.dt,"aw",%nobits
 5482              		.align	2
 5483              		.set	.LANCHOR12,. + 0
 5486              	dt:
 5487 0000 00000000 		.space	4
 5488              		.section	.bss.edge_count.6,"aw",%nobits
 5489              		.align	2
 5490              		.set	.LANCHOR35,. + 0
 5493              	edge_count.6:
 5494 0000 00000000 		.space	4
ARM GAS  C:\Users\86152\AppData\Local\Temp\ccWGVtEI.s 			page 246


 5495              		.section	.bss.is_velocity.16,"aw",%nobits
 5496              		.set	.LANCHOR24,. + 0
 5499              	is_velocity.16:
 5500 0000 00       		.space	1
 5501              		.section	.bss.last_Vx,"aw",%nobits
 5502              		.align	2
 5505              	last_Vx:
 5506 0000 00000000 		.space	4
 5507              		.section	.bss.last_Vy,"aw",%nobits
 5508              		.align	2
 5511              	last_Vy:
 5512 0000 00000000 		.space	4
 5513              		.section	.bss.last_game_status,"aw",%nobits
 5514              		.set	.LANCHOR49,. + 0
 5517              	last_game_status:
 5518 0000 00       		.space	1
 5519              		.section	.bss.lostaim,"aw",%nobits
 5522              	lostaim:
 5523 0000 00       		.space	1
 5524              		.section	.bss.max_num.2,"aw",%nobits
 5525              		.align	2
 5526              		.set	.LANCHOR0,. + 0
 5529              	max_num.2:
 5530 0000 00000000 		.space	4
 5531              		.section	.bss.method,"aw",%nobits
 5534              	method:
 5535 0000 00       		.space	1
 5536              		.section	.bss.move_ratio.15,"aw",%nobits
 5537              		.align	2
 5538              		.set	.LANCHOR25,. + 0
 5541              	move_ratio.15:
 5542 0000 00000000 		.space	4
 5543              		.section	.bss.nanCount,"aw",%nobits
 5544              		.align	2
 5545              		.set	.LANCHOR51,. + 0
 5548              	nanCount:
 5549 0000 00000000 		.space	4
 5550              		.section	.bss.outpost_HP,"aw",%nobits
 5551              		.align	1
 5552              		.set	.LANCHOR20,. + 0
 5555              	outpost_HP:
 5556 0000 0000     		.space	2
 5557              		.section	.bss.posX100.13,"aw",%nobits
 5558              		.align	2
 5559              		.set	.LANCHOR27,. + 0
 5562              	posX100.13:
 5563 0000 00000000 		.space	4
 5564              		.section	.bss.posY100.12,"aw",%nobits
 5565              		.align	2
 5566              		.set	.LANCHOR28,. + 0
 5569              	posY100.12:
 5570 0000 00000000 		.space	4
 5571              		.section	.bss.preFollowTheta,"aw",%nobits
 5572              		.align	2
 5573              		.set	.LANCHOR43,. + 0
 5576              	preFollowTheta:
 5577 0000 00000000 		.space	4
ARM GAS  C:\Users\86152\AppData\Local\Temp\ccWGVtEI.s 			page 247


 5578              		.section	.bss.reach_count.10,"aw",%nobits
 5579              		.align	2
 5580              		.set	.LANCHOR30,. + 0
 5583              	reach_count.10:
 5584 0000 00000000 		.space	4
 5585              		.section	.bss.reach_num.14,"aw",%nobits
 5586              		.set	.LANCHOR26,. + 0
 5589              	reach_num.14:
 5590 0000 00       		.space	1
 5591              		.section	.bss.sentry_HP,"aw",%nobits
 5592              		.align	1
 5593              		.set	.LANCHOR21,. + 0
 5596              	sentry_HP:
 5597 0000 0000     		.space	2
 5598              		.section	.bss.sigmaSqrt.23,"aw",%nobits
 5599              		.align	2
 5600              		.set	.LANCHOR9,. + 0
 5603              	sigmaSqrt.23:
 5604 0000 00000000 		.space	8
 5604      00000000 
 5605              		.section	.bss.spinnig_center0_temp.9,"aw",%nobits
 5606              		.align	2
 5607              		.set	.LANCHOR31,. + 0
 5610              	spinnig_center0_temp.9:
 5611 0000 00000000 		.space	4
 5612              		.section	.bss.spinnig_center1_temp.8,"aw",%nobits
 5613              		.align	2
 5614              		.set	.LANCHOR32,. + 0
 5617              	spinnig_center1_temp.8:
 5618 0000 00000000 		.space	4
 5619              		.section	.bss.t,"aw",%nobits
 5620              		.align	2
 5621              		.set	.LANCHOR33,. + 0
 5624              	t:
 5625 0000 00000000 		.space	4
 5626              		.section	.bss.tempTime_Sprint,"aw",%nobits
 5627              		.align	2
 5628              		.set	.LANCHOR17,. + 0
 5631              	tempTime_Sprint:
 5632 0000 00000000 		.space	4
 5633              		.section	.bss.tempVal.18,"aw",%nobits
 5634              		.align	2
 5635              		.set	.LANCHOR13,. + 0
 5638              	tempVal.18:
 5639 0000 00000000 		.space	4
 5640              		.section	.bss.tempVr.17,"aw",%nobits
 5641              		.align	2
 5642              		.set	.LANCHOR23,. + 0
 5645              	tempVr.17:
 5646 0000 00000000 		.space	4
 5647              		.section	.bss.thetaFrameNum.4,"aw",%nobits
 5648              		.set	.LANCHOR42,. + 0
 5651              	thetaFrameNum.4:
 5652 0000 00       		.space	1
 5653              		.section	.bss.time_temp,"aw",%nobits
 5654              		.align	2
 5655              		.set	.LANCHOR16,. + 0
ARM GAS  C:\Users\86152\AppData\Local\Temp\ccWGVtEI.s 			page 248


 5658              	time_temp:
 5659 0000 00000000 		.space	4
 5660              		.section	.bss.user_count_time,"aw",%nobits
 5661              		.align	2
 5662              		.set	.LANCHOR45,. + 0
 5665              	user_count_time:
 5666 0000 00000000 		.space	4
 5667              		.section	.bss.walktodes,"aw",%nobits
 5670              	walktodes:
 5671 0000 00       		.space	1
 5672              		.section	.bss.xhat_data_obsv,"aw",%nobits
 5673              		.align	2
 5676              	xhat_data_obsv:
 5677 0000 00000000 		.space	24
 5677      00000000 
 5677      00000000 
 5677      00000000 
 5677      00000000 
 5678              		.section	.data.AMP,"aw"
 5681              	AMP:
 5682 0000 32       		.byte	50
 5683              		.section	.data.ChassisMotionEst_F,"aw"
 5684              		.align	2
 5685              		.set	.LANCHOR3,. + 0
 5688              	ChassisMotionEst_F:
 5689 0000 0000803F 		.word	1065353216
 5690 0004 00000000 		.word	0
 5691 0008 00000000 		.word	0
 5692 000c 00000000 		.word	0
 5693 0010 00000000 		.word	0
 5694 0014 00000000 		.word	0
 5695 0018 00000000 		.word	0
 5696 001c 0000803F 		.word	1065353216
 5697 0020 00000000 		.word	0
 5698 0024 00000000 		.word	0
 5699 0028 00000000 		.word	0
 5700 002c 00000000 		.word	0
 5701 0030 00000000 		.word	0
 5702 0034 00000000 		.word	0
 5703 0038 0000803F 		.word	1065353216
 5704 003c 00000000 		.word	0
 5705 0040 00000000 		.word	0
 5706 0044 00000000 		.word	0
 5707 0048 00000000 		.word	0
 5708 004c 00000000 		.word	0
 5709 0050 00000000 		.word	0
 5710 0054 0000803F 		.word	1065353216
 5711 0058 00000000 		.word	0
 5712 005c 00000000 		.word	0
 5713 0060 00000000 		.word	0
 5714 0064 00000000 		.word	0
 5715 0068 00000000 		.word	0
 5716 006c 00000000 		.word	0
 5717 0070 0000803F 		.word	1065353216
 5718 0074 00000000 		.word	0
 5719 0078 00000000 		.word	0
 5720 007c 00000000 		.word	0
ARM GAS  C:\Users\86152\AppData\Local\Temp\ccWGVtEI.s 			page 249


 5721 0080 00000000 		.word	0
 5722 0084 00000000 		.word	0
 5723 0088 00000000 		.word	0
 5724 008c 0000803F 		.word	1065353216
 5725              		.section	.data.ChassisMotionEst_H,"aw"
 5726              		.align	2
 5727              		.set	.LANCHOR7,. + 0
 5730              	ChassisMotionEst_H:
 5731 0000 00000000 		.word	0
 5732 0004 0000803F 		.word	1065353216
 5733 0008 00000000 		.word	0
 5734 000c 00000000 		.word	0
 5735 0010 00000000 		.word	0
 5736 0014 00000000 		.word	0
 5737 0018 00000000 		.word	0
 5738 001c 00000000 		.word	0
 5739 0020 0000803F 		.word	1065353216
 5740 0024 00000000 		.word	0
 5741 0028 00000000 		.word	0
 5742 002c 00000000 		.word	0
 5743 0030 00000000 		.word	0
 5744 0034 00000000 		.word	0
 5745 0038 00000000 		.word	0
 5746 003c 00000000 		.word	0
 5747 0040 0000803F 		.word	1065353216
 5748 0044 00000000 		.word	0
 5749 0048 00000000 		.word	0
 5750 004c 00000000 		.word	0
 5751 0050 00000000 		.word	0
 5752 0054 00000000 		.word	0
 5753 0058 00000000 		.word	0
 5754 005c 0000803F 		.word	1065353216
 5755              		.section	.data.ChassisMotionEst_Pinit,"aw"
 5756              		.align	2
 5757              		.set	.LANCHOR4,. + 0
 5760              	ChassisMotionEst_Pinit:
 5761 0000 00007A44 		.word	1148846080
 5762 0004 CDCCCC3D 		.word	1036831949
 5763 0008 CDCCCC3D 		.word	1036831949
 5764 000c CDCCCC3D 		.word	1036831949
 5765 0010 CDCCCC3D 		.word	1036831949
 5766 0014 CDCCCC3D 		.word	1036831949
 5767 0018 CDCCCC3D 		.word	1036831949
 5768 001c 00401C46 		.word	1176256512
 5769 0020 CDCCCC3D 		.word	1036831949
 5770 0024 CDCCCC3D 		.word	1036831949
 5771 0028 CDCCCC3D 		.word	1036831949
 5772 002c CDCCCC3D 		.word	1036831949
 5773 0030 CDCCCC3D 		.word	1036831949
 5774 0034 CDCCCC3D 		.word	1036831949
 5775 0038 00401C46 		.word	1176256512
 5776 003c CDCCCC3D 		.word	1036831949
 5777 0040 CDCCCC3D 		.word	1036831949
 5778 0044 CDCCCC3D 		.word	1036831949
 5779 0048 CDCCCC3D 		.word	1036831949
 5780 004c CDCCCC3D 		.word	1036831949
 5781 0050 CDCCCC3D 		.word	1036831949
ARM GAS  C:\Users\86152\AppData\Local\Temp\ccWGVtEI.s 			page 250


 5782 0054 00007A44 		.word	1148846080
 5783 0058 CDCCCC3D 		.word	1036831949
 5784 005c CDCCCC3D 		.word	1036831949
 5785 0060 CDCCCC3D 		.word	1036831949
 5786 0064 CDCCCC3D 		.word	1036831949
 5787 0068 CDCCCC3D 		.word	1036831949
 5788 006c CDCCCC3D 		.word	1036831949
 5789 0070 00401C46 		.word	1176256512
 5790 0074 CDCCCC3D 		.word	1036831949
 5791 0078 CDCCCC3D 		.word	1036831949
 5792 007c CDCCCC3D 		.word	1036831949
 5793 0080 CDCCCC3D 		.word	1036831949
 5794 0084 CDCCCC3D 		.word	1036831949
 5795 0088 CDCCCC3D 		.word	1036831949
 5796 008c 00401C46 		.word	1176256512
 5797              		.section	.data.ChassisMotionEst_Q,"aw"
 5798              		.align	2
 5799              		.set	.LANCHOR5,. + 0
 5802              	ChassisMotionEst_Q:
 5803 0000 00002041 		.word	1092616192
 5804 0004 00000000 		.word	0
 5805 0008 00000000 		.word	0
 5806 000c 00000000 		.word	0
 5807 0010 00000000 		.word	0
 5808 0014 00000000 		.word	0
 5809 0018 00000000 		.word	0
 5810 001c 00007A44 		.word	1148846080
 5811 0020 00000000 		.word	0
 5812 0024 00000000 		.word	0
 5813 0028 00000000 		.word	0
 5814 002c 00000000 		.word	0
 5815 0030 00000000 		.word	0
 5816 0034 00000000 		.word	0
 5817 0038 00002041 		.word	1092616192
 5818 003c 00000000 		.word	0
 5819 0040 00000000 		.word	0
 5820 0044 00000000 		.word	0
 5821 0048 00000000 		.word	0
 5822 004c 00000000 		.word	0
 5823 0050 00000000 		.word	0
 5824 0054 00002041 		.word	1092616192
 5825 0058 00000000 		.word	0
 5826 005c 00000000 		.word	0
 5827 0060 00000000 		.word	0
 5828 0064 00000000 		.word	0
 5829 0068 00000000 		.word	0
 5830 006c 00000000 		.word	0
 5831 0070 00007A44 		.word	1148846080
 5832 0074 00000000 		.word	0
 5833 0078 00000000 		.word	0
 5834 007c 00000000 		.word	0
 5835 0080 00000000 		.word	0
 5836 0084 00000000 		.word	0
 5837 0088 00000000 		.word	0
 5838 008c 00002041 		.word	1092616192
 5839              		.section	.data.ChassisMotionEst_R,"aw"
 5840              		.align	2
ARM GAS  C:\Users\86152\AppData\Local\Temp\ccWGVtEI.s 			page 251


 5841              		.set	.LANCHOR6,. + 0
 5844              	ChassisMotionEst_R:
 5845 0000 0050C347 		.word	1203982336
 5846 0004 00000000 		.word	0
 5847 0008 00000000 		.word	0
 5848 000c 00000000 		.word	0
 5849 0010 00000000 		.word	0
 5850 0014 0000C842 		.word	1120403456
 5851 0018 00000000 		.word	0
 5852 001c 00000000 		.word	0
 5853 0020 00000000 		.word	0
 5854 0024 00000000 		.word	0
 5855 0028 0050C347 		.word	1203982336
 5856 002c 00000000 		.word	0
 5857 0030 00000000 		.word	0
 5858 0034 00000000 		.word	0
 5859 0038 00000000 		.word	0
 5860 003c 0000C842 		.word	1120403456
 5861              		.section	.data.ChassisMotionEst_Sigma,"aw"
 5862              		.align	2
 5863              		.set	.LANCHOR8,. + 0
 5866              	ChassisMotionEst_Sigma:
 5867 0000 0000C842 		.word	1120403456
 5868 0004 0000C842 		.word	1120403456
 5869              		.section	.data.Gimbal_Position_Modification,"aw"
 5870              		.align	2
 5871              		.set	.LANCHOR50,. + 0
 5874              	Gimbal_Position_Modification:
 5875 0000 0000803F 		.word	1065353216
 5876              		.section	.data.MAX_RPM,"aw"
 5877              		.align	2
 5878              		.set	.LANCHOR1,. + 0
 5881              	MAX_RPM:
 5882 0000 0000FA45 		.word	1174011904
 5883              		.section	.data.TempA,"aw"
 5884              		.align	2
 5887              	TempA:
 5888 0000 CDCCCC3D 		.word	1036831949
 5889              		.section	.data.VR,"aw"
 5890              		.align	1
 5893              	VR:
 5894 0000 5802     		.short	600
 5895              		.section	.data.V_coef,"aw"
 5896              		.align	2
 5899              	V_coef:
 5900 0000 0000803F 		.word	1065353216
 5901              		.section	.data.Vr_MAX,"aw"
 5902              		.align	2
 5905              	Vr_MAX:
 5906 0000 00001643 		.word	1125515264
 5907              		.section	.data.Vr_k,"aw"
 5908              		.align	2
 5911              	Vr_k:
 5912 0000 00009643 		.word	1133903872
 5913              		.section	.data.Vx_k,"aw"
 5914              		.align	2
 5915              		.set	.LANCHOR14,. + 0
ARM GAS  C:\Users\86152\AppData\Local\Temp\ccWGVtEI.s 			page 252


 5918              	Vx_k:
 5919 0000 00007A44 		.word	1148846080
 5920              		.section	.data.Vxy_Coef,"aw"
 5921              		.align	2
 5924              	Vxy_Coef:
 5925 0000 0000803F 		.word	1065353216
 5926              		.section	.data.Vy_k,"aw"
 5927              		.align	2
 5928              		.set	.LANCHOR15,. + 0
 5931              	Vy_k:
 5932 0000 00007A44 		.word	1148846080
 5933              		.section	.data.c,"aw"
 5934              		.align	2
 5937              	c:
 5938 0000 0000803F 		.word	1065353216
 5939 0004 0000803F 		.word	1065353216
 5940 0008 0000803F 		.word	1065353216
 5941              		.section	.data.chassis_debug_mode,"aw"
 5944              	chassis_debug_mode:
 5945 0000 01       		.byte	1
 5946              		.section	.data.debugvalue,"aw"
 5947              		.align	2
 5948              		.set	.LANCHOR41,. + 0
 5951              	debugvalue:
 5952 0000 67000000 		.word	103
 5953              		.section	.data.use_spinningmove,"aw"
 5954              		.set	.LANCHOR22,. + 0
 5957              	use_spinningmove:
 5958 0000 01       		.byte	1
 5959              		.section	.rodata.coef.1,"a"
 5960              		.align	2
 5961              		.set	.LANCHOR18,. + 0
 5964              	coef.1:
 5965 0000 0000803F 		.word	1065353216
 5966 0004 0000803F 		.word	1065353216
 5967 0008 0000803F 		.word	1065353216
 5968 000c 0000803F 		.word	1065353216
 5969              		.text
 5970              	.Letext0:
 5971              		.file 3 "c:\\program files (x86)\\gnu arm embedded toolchain\\10 2021.10\\arm-none-eabi\\include\\
 5972              		.file 4 "c:\\program files (x86)\\gnu arm embedded toolchain\\10 2021.10\\arm-none-eabi\\include\\
 5973              		.file 5 "Drivers/CMSIS/Device/ST/STM32F4xx/Include/stm32f407xx.h"
 5974              		.file 6 "Drivers/CMSIS/Device/ST/STM32F4xx/Include/stm32f4xx.h"
 5975              		.file 7 "Drivers/STM32F4xx_HAL_Driver/Inc/stm32f4xx_hal_def.h"
 5976              		.file 8 "Drivers/STM32F4xx_HAL_Driver/Inc/stm32f4xx_hal_dma.h"
 5977              		.file 9 "Drivers/STM32F4xx_HAL_Driver/Inc/stm32f4xx_hal_can.h"
 5978              		.file 10 "Drivers/STM32F4xx_HAL_Driver/Inc/stm32f4xx_hal_iwdg.h"
 5979              		.file 11 "Drivers/STM32F4xx_HAL_Driver/Inc/stm32f4xx_hal_uart.h"
 5980              		.file 12 "Inc/can.h"
 5981              		.file 13 "Inc/iwdg.h"
 5982              		.file 14 "Components/Devices/BMI088driver.h"
 5983              		.file 15 "Components/user_lib.h"
 5984              		.file 16 "Components/Controller/controller.h"
 5985              		.file 17 "Application/motor.h"
 5986              		.file 18 "Application/detect_task.h"
 5987              		.file 19 "Application/gimbal_task.h"
 5988              		.file 20 "Application/ins_task.h"
ARM GAS  C:\Users\86152\AppData\Local\Temp\ccWGVtEI.s 			page 253


 5989              		.file 21 "Application/judgement_info.h"
 5990              		.file 22 "Application/remote_control.h"
 5991              		.file 23 "Application/power_measure.h"
 5992              		.file 24 "Components/kalman_filter.h"
 5993              		.file 25 "Application/chassis_task.h"
 5994              		.file 26 "c:\\program files (x86)\\gnu arm embedded toolchain\\10 2021.10\\arm-none-eabi\\include\
 5995              		.file 27 "Middlewares/Third_Party/FreeRTOS/Source/include/task.h"
 5996              		.file 28 "Bsp/bsp_CAN.h"
 5997              		.file 29 "c:\\program files (x86)\\gnu arm embedded toolchain\\10 2021.10\\arm-none-eabi\\include\
 5998              		.file 30 "Drivers/STM32F4xx_HAL_Driver/Inc/stm32f4xx_hal.h"
 5999              		.file 31 "Bsp/bsp_dwt.h"
 6000              		.file 32 "<built-in>"
ARM GAS  C:\Users\86152\AppData\Local\Temp\ccWGVtEI.s 			page 254


DEFINED SYMBOLS
                            *ABS*:00000000 chassis_task.c
C:\Users\86152\AppData\Local\Temp\ccWGVtEI.s:20     .text.Max_4:00000000 $t
C:\Users\86152\AppData\Local\Temp\ccWGVtEI.s:25     .text.Max_4:00000000 Max_4
C:\Users\86152\AppData\Local\Temp\ccWGVtEI.s:92     .text.Max_4:00000054 $d
C:\Users\86152\AppData\Local\Temp\ccWGVtEI.s:97     .text.Velocity_MAXLimit:00000000 $t
C:\Users\86152\AppData\Local\Temp\ccWGVtEI.s:102    .text.Velocity_MAXLimit:00000000 Velocity_MAXLimit
C:\Users\86152\AppData\Local\Temp\ccWGVtEI.s:191    .text.Velocity_MAXLimit:000000a4 $d
C:\Users\86152\AppData\Local\Temp\ccWGVtEI.s:5278   .bss.Chassis:00000000 Chassis
C:\Users\86152\AppData\Local\Temp\ccWGVtEI.s:198    .text.ChassisMotionEst_Init:00000000 $t
C:\Users\86152\AppData\Local\Temp\ccWGVtEI.s:203    .text.ChassisMotionEst_Init:00000000 ChassisMotionEst_Init
C:\Users\86152\AppData\Local\Temp\ccWGVtEI.s:318    .text.ChassisMotionEst_Init:00000094 $d
C:\Users\86152\AppData\Local\Temp\ccWGVtEI.s:329    .text.ChassisMotionEst_Update:00000000 $t
C:\Users\86152\AppData\Local\Temp\ccWGVtEI.s:334    .text.ChassisMotionEst_Update:00000000 ChassisMotionEst_Update
C:\Users\86152\AppData\Local\Temp\ccWGVtEI.s:825    .text.ChassisMotionEst_Update:00000324 $d
C:\Users\86152\AppData\Local\Temp\ccWGVtEI.s:841    .text.Chassis_Power_Exp:00000000 $t
C:\Users\86152\AppData\Local\Temp\ccWGVtEI.s:846    .text.Chassis_Power_Exp:00000000 Chassis_Power_Exp
C:\Users\86152\AppData\Local\Temp\ccWGVtEI.s:956    .text.Chassis_Power_Exp:0000009c $d
C:\Users\86152\AppData\Local\Temp\ccWGVtEI.s:966    .text.Chassis_Get_CtrlValue:00000000 $t
C:\Users\86152\AppData\Local\Temp\ccWGVtEI.s:971    .text.Chassis_Get_CtrlValue:00000000 Chassis_Get_CtrlValue
C:\Users\86152\AppData\Local\Temp\ccWGVtEI.s:1383   .text.Chassis_Get_CtrlValue:0000030c $d
C:\Users\86152\AppData\Local\Temp\ccWGVtEI.s:1405   .text.Chassis_Power_Limit:00000000 $t
C:\Users\86152\AppData\Local\Temp\ccWGVtEI.s:1410   .text.Chassis_Power_Limit:00000000 Chassis_Power_Limit
C:\Users\86152\AppData\Local\Temp\ccWGVtEI.s:1613   .text.Chassis_Power_Limit:00000130 $d
C:\Users\86152\AppData\Local\Temp\ccWGVtEI.s:1626   .text.Send_Chassis_Current:00000000 $t
C:\Users\86152\AppData\Local\Temp\ccWGVtEI.s:1631   .text.Send_Chassis_Current:00000000 Send_Chassis_Current
C:\Users\86152\AppData\Local\Temp\ccWGVtEI.s:1801   .text.Send_Chassis_Current:000000d4 $d
C:\Users\86152\AppData\Local\Temp\ccWGVtEI.s:1815   .text.Chassis_Init:00000000 $t
C:\Users\86152\AppData\Local\Temp\ccWGVtEI.s:1821   .text.Chassis_Init:00000000 Chassis_Init
C:\Users\86152\AppData\Local\Temp\ccWGVtEI.s:2032   .text.Chassis_Init:00000194 $d
C:\Users\86152\AppData\Local\Temp\ccWGVtEI.s:2060   .text.Insert_thetaFrame:00000000 $t
C:\Users\86152\AppData\Local\Temp\ccWGVtEI.s:2066   .text.Insert_thetaFrame:00000000 Insert_thetaFrame
C:\Users\86152\AppData\Local\Temp\ccWGVtEI.s:2120   .text.Chassis_Get_Theta:00000000 $t
C:\Users\86152\AppData\Local\Temp\ccWGVtEI.s:2125   .text.Chassis_Get_Theta:00000000 Chassis_Get_Theta
C:\Users\86152\AppData\Local\Temp\ccWGVtEI.s:2216   .text.Chassis_Get_Theta:0000008c $d
C:\Users\86152\AppData\Local\Temp\ccWGVtEI.s:2228   .text.Find_thetaFrame:00000000 $t
C:\Users\86152\AppData\Local\Temp\ccWGVtEI.s:2234   .text.Find_thetaFrame:00000000 Find_thetaFrame
C:\Users\86152\AppData\Local\Temp\ccWGVtEI.s:2316   .text.Chassis_Set_Control:00000000 $t
C:\Users\86152\AppData\Local\Temp\ccWGVtEI.s:2321   .text.Chassis_Set_Control:00000000 Chassis_Set_Control
C:\Users\86152\AppData\Local\Temp\ccWGVtEI.s:2365   .text.Chassis_Set_Control:00000018 $d
C:\Users\86152\AppData\Local\Temp\ccWGVtEI.s:2370   .text.Chassis_Set_Control:00000022 $t
C:\Users\86152\AppData\Local\Temp\ccWGVtEI.s:2614   .text.Chassis_Set_Control:00000214 $d
C:\Users\86152\AppData\Local\Temp\ccWGVtEI.s:2626   .text.Chassis_Set_Control:00000238 $t
C:\Users\86152\AppData\Local\Temp\ccWGVtEI.s:3068   .text.Chassis_Set_Control:00000550 $d
C:\Users\86152\AppData\Local\Temp\ccWGVtEI.s:3093   .text.Chassis_Set_Control:000005a8 $t
C:\Users\86152\AppData\Local\Temp\ccWGVtEI.s:3433   .text.Chassis_Set_Control:00000848 $d
C:\Users\86152\AppData\Local\Temp\ccWGVtEI.s:3455   .text.Chassis_Set_Control:00000894 $t
C:\Users\86152\AppData\Local\Temp\ccWGVtEI.s:3597   .text.Chassis_Set_Control:000009a8 $d
C:\Users\86152\AppData\Local\Temp\ccWGVtEI.s:3603   .text.Chassis_Set_Control:000009ae $t
C:\Users\86152\AppData\Local\Temp\ccWGVtEI.s:3919   .text.Chassis_Set_Control:00000b60 $d
C:\Users\86152\AppData\Local\Temp\ccWGVtEI.s:3957   .text.Chassis_Set_Control:00000bec $t
C:\Users\86152\AppData\Local\Temp\ccWGVtEI.s:4386   .text.Chassis_Set_Control:00000f28 $d
C:\Users\86152\AppData\Local\Temp\ccWGVtEI.s:4422   .text.Chassis_Set_Control:00000fac $t
C:\Users\86152\AppData\Local\Temp\ccWGVtEI.s:4859   .text.Chassis_Set_Control:000012f0 $d
C:\Users\86152\AppData\Local\Temp\ccWGVtEI.s:4880   .text.AerialKeyBoardCmd:00000000 $t
C:\Users\86152\AppData\Local\Temp\ccWGVtEI.s:4886   .text.AerialKeyBoardCmd:00000000 AerialKeyBoardCmd
C:\Users\86152\AppData\Local\Temp\ccWGVtEI.s:4982   .text.AerialKeyBoardCmd:00000064 $d
ARM GAS  C:\Users\86152\AppData\Local\Temp\ccWGVtEI.s 			page 255


C:\Users\86152\AppData\Local\Temp\ccWGVtEI.s:4998   .text.Chassis_Set_Mode:00000000 $t
C:\Users\86152\AppData\Local\Temp\ccWGVtEI.s:5003   .text.Chassis_Set_Mode:00000000 Chassis_Set_Mode
C:\Users\86152\AppData\Local\Temp\ccWGVtEI.s:5135   .text.Chassis_Set_Mode:000000a0 $d
C:\Users\86152\AppData\Local\Temp\ccWGVtEI.s:5144   .text.Chassis_Control:00000000 $t
C:\Users\86152\AppData\Local\Temp\ccWGVtEI.s:5150   .text.Chassis_Control:00000000 Chassis_Control
C:\Users\86152\AppData\Local\Temp\ccWGVtEI.s:5205   .text.Chassis_Control:00000044 $d
C:\Users\86152\AppData\Local\Temp\ccWGVtEI.s:5453   .bss.aimssistLoseCount:00000000 aimssistLoseCount
C:\Users\86152\AppData\Local\Temp\ccWGVtEI.s:5446   .bss.aimassist_online:00000000 aimassist_online
C:\Users\86152\AppData\Local\Temp\ccWGVtEI.s:5676   .bss.xhat_data_obsv:00000000 xhat_data_obsv
C:\Users\86152\AppData\Local\Temp\ccWGVtEI.s:5297   .bss.ChiSquare:00000000 ChiSquare
C:\Users\86152\AppData\Local\Temp\ccWGVtEI.s:5730   .data.ChassisMotionEst_H:00000000 ChassisMotionEst_H
C:\Users\86152\AppData\Local\Temp\ccWGVtEI.s:5844   .data.ChassisMotionEst_R:00000000 ChassisMotionEst_R
C:\Users\86152\AppData\Local\Temp\ccWGVtEI.s:5802   .data.ChassisMotionEst_Q:00000000 ChassisMotionEst_Q
C:\Users\86152\AppData\Local\Temp\ccWGVtEI.s:5866   .data.ChassisMotionEst_Sigma:00000000 ChassisMotionEst_Sigma
C:\Users\86152\AppData\Local\Temp\ccWGVtEI.s:5760   .data.ChassisMotionEst_Pinit:00000000 ChassisMotionEst_Pinit
C:\Users\86152\AppData\Local\Temp\ccWGVtEI.s:5284   .bss.ChassisMotionEst_P:00000000 ChassisMotionEst_P
C:\Users\86152\AppData\Local\Temp\ccWGVtEI.s:5688   .data.ChassisMotionEst_F:00000000 ChassisMotionEst_F
C:\Users\86152\AppData\Local\Temp\ccWGVtEI.s:5336   .bss.ReachFinished:00000000 ReachFinished
C:\Users\86152\AppData\Local\Temp\ccWGVtEI.s:5330   .bss.ReachCount:00000000 ReachCount
C:\Users\86152\AppData\Local\Temp\ccWGVtEI.s:5522   .bss.lostaim:00000000 lostaim
C:\Users\86152\AppData\Local\Temp\ccWGVtEI.s:5517   .bss.last_game_status:00000000 last_game_status
C:\Users\86152\AppData\Local\Temp\ccWGVtEI.s:5534   .bss.method:00000000 method
C:\Users\86152\AppData\Local\Temp\ccWGVtEI.s:5670   .bss.walktodes:00000000 walktodes
C:\Users\86152\AppData\Local\Temp\ccWGVtEI.s:5665   .bss.user_count_time:00000000 user_count_time
C:\Users\86152\AppData\Local\Temp\ccWGVtEI.s:5423   .bss.Tempvx:00000000 Tempvx
C:\Users\86152\AppData\Local\Temp\ccWGVtEI.s:5429   .bss.Tempvy:00000000 Tempvy
C:\Users\86152\AppData\Local\Temp\ccWGVtEI.s:5874   .data.Gimbal_Position_Modification:00000000 Gimbal_Position_Modification
C:\Users\86152\AppData\Local\Temp\ccWGVtEI.s:5472   .bss.count_press:00000000 count_press
C:\Users\86152\AppData\Local\Temp\ccWGVtEI.s:5937   .data.c:00000000 c
C:\Users\86152\AppData\Local\Temp\ccWGVtEI.s:5905   .data.Vr_MAX:00000000 Vr_MAX
C:\Users\86152\AppData\Local\Temp\ccWGVtEI.s:5911   .data.Vr_k:00000000 Vr_k
C:\Users\86152\AppData\Local\Temp\ccWGVtEI.s:5931   .data.Vy_k:00000000 Vy_k
C:\Users\86152\AppData\Local\Temp\ccWGVtEI.s:5918   .data.Vx_k:00000000 Vx_k
C:\Users\86152\AppData\Local\Temp\ccWGVtEI.s:5881   .data.MAX_RPM:00000000 MAX_RPM
C:\Users\86152\AppData\Local\Temp\ccWGVtEI.s:5893   .data.VR:00000000 VR
C:\Users\86152\AppData\Local\Temp\ccWGVtEI.s:5681   .data.AMP:00000000 AMP
C:\Users\86152\AppData\Local\Temp\ccWGVtEI.s:5511   .bss.last_Vy:00000000 last_Vy
C:\Users\86152\AppData\Local\Temp\ccWGVtEI.s:5505   .bss.last_Vx:00000000 last_Vx
C:\Users\86152\AppData\Local\Temp\ccWGVtEI.s:5441   .bss.Vy_ref:00000000 Vy_ref
C:\Users\86152\AppData\Local\Temp\ccWGVtEI.s:5435   .bss.Vx_ref:00000000 Vx_ref
C:\Users\86152\AppData\Local\Temp\ccWGVtEI.s:5370   .bss.Stamp:00000000 Stamp
C:\Users\86152\AppData\Local\Temp\ccWGVtEI.s:5596   .bss.sentry_HP:00000000 sentry_HP
C:\Users\86152\AppData\Local\Temp\ccWGVtEI.s:5555   .bss.outpost_HP:00000000 outpost_HP
C:\Users\86152\AppData\Local\Temp\ccWGVtEI.s:5384   .bss.TempAerialY:00000000 TempAerialY
C:\Users\86152\AppData\Local\Temp\ccWGVtEI.s:5377   .bss.TempAerialX:00000000 TempAerialX
C:\Users\86152\AppData\Local\Temp\ccWGVtEI.s:5310   .bss.InPosFlag:00000000 InPosFlag
C:\Users\86152\AppData\Local\Temp\ccWGVtEI.s:5304   .bss.InPosCount:00000000 InPosCount
C:\Users\86152\AppData\Local\Temp\ccWGVtEI.s:5887   .data.TempA:00000000 TempA
C:\Users\86152\AppData\Local\Temp\ccWGVtEI.s:5403   .bss.TempVyTransfer:00000000 TempVyTransfer
C:\Users\86152\AppData\Local\Temp\ccWGVtEI.s:5397   .bss.TempVxTransfer:00000000 TempVxTransfer
C:\Users\86152\AppData\Local\Temp\ccWGVtEI.s:5364   .bss.SpinningValidVy:00000000 SpinningValidVy
C:\Users\86152\AppData\Local\Temp\ccWGVtEI.s:5357   .bss.SpinningValidVx:00000000 SpinningValidVx
C:\Users\86152\AppData\Local\Temp\ccWGVtEI.s:5957   .data.use_spinningmove:00000000 use_spinningmove
C:\Users\86152\AppData\Local\Temp\ccWGVtEI.s:5350   .bss.SpinningValidTheta:00000000 SpinningValidTheta
C:\Users\86152\AppData\Local\Temp\ccWGVtEI.s:5576   .bss.preFollowTheta:00000000 preFollowTheta
C:\Users\86152\AppData\Local\Temp\ccWGVtEI.s:5951   .data.debugvalue:00000000 debugvalue
C:\Users\86152\AppData\Local\Temp\ccWGVtEI.s:5548   .bss.nanCount:00000000 nanCount
ARM GAS  C:\Users\86152\AppData\Local\Temp\ccWGVtEI.s 			page 256


C:\Users\86152\AppData\Local\Temp\ccWGVtEI.s:5899   .data.V_coef:00000000 V_coef
C:\Users\86152\AppData\Local\Temp\ccWGVtEI.s:5924   .data.Vxy_Coef:00000000 Vxy_Coef
C:\Users\86152\AppData\Local\Temp\ccWGVtEI.s:5658   .bss.time_temp:00000000 time_temp
C:\Users\86152\AppData\Local\Temp\ccWGVtEI.s:5631   .bss.tempTime_Sprint:00000000 tempTime_Sprint
C:\Users\86152\AppData\Local\Temp\ccWGVtEI.s:5291   .bss.Chassis_DWT_Count:00000000 Chassis_DWT_Count
C:\Users\86152\AppData\Local\Temp\ccWGVtEI.s:5323   .bss.RC_Lost:00000000 RC_Lost
C:\Users\86152\AppData\Local\Temp\ccWGVtEI.s:5944   .data.chassis_debug_mode:00000000 chassis_debug_mode
C:\Users\86152\AppData\Local\Temp\ccWGVtEI.s:5275   .bss.Chassis:00000000 $d
C:\Users\86152\AppData\Local\Temp\ccWGVtEI.s:5281   .bss.ChassisMotionEst_P:00000000 $d
C:\Users\86152\AppData\Local\Temp\ccWGVtEI.s:5287   .bss.Chassis_DWT_Count:00000000 $d
C:\Users\86152\AppData\Local\Temp\ccWGVtEI.s:5294   .bss.ChiSquare:00000000 $d
C:\Users\86152\AppData\Local\Temp\ccWGVtEI.s:5300   .bss.InPosCount:00000000 $d
C:\Users\86152\AppData\Local\Temp\ccWGVtEI.s:5311   .bss.InPosFlag:00000000 $d
C:\Users\86152\AppData\Local\Temp\ccWGVtEI.s:5313   .bss.LastKeyCode.22:00000000 $d
C:\Users\86152\AppData\Local\Temp\ccWGVtEI.s:5317   .bss.LastKeyCode.22:00000000 LastKeyCode.22
C:\Users\86152\AppData\Local\Temp\ccWGVtEI.s:5320   .bss.RC_Lost:00000000 $d
C:\Users\86152\AppData\Local\Temp\ccWGVtEI.s:5326   .bss.ReachCount:00000000 $d
C:\Users\86152\AppData\Local\Temp\ccWGVtEI.s:5337   .bss.ReachFinished:00000000 $d
C:\Users\86152\AppData\Local\Temp\ccWGVtEI.s:5339   .bss.SpiningDistance.11:00000000 $d
C:\Users\86152\AppData\Local\Temp\ccWGVtEI.s:5343   .bss.SpiningDistance.11:00000000 SpiningDistance.11
C:\Users\86152\AppData\Local\Temp\ccWGVtEI.s:5346   .bss.SpinningValidTheta:00000000 $d
C:\Users\86152\AppData\Local\Temp\ccWGVtEI.s:5353   .bss.SpinningValidVx:00000000 $d
C:\Users\86152\AppData\Local\Temp\ccWGVtEI.s:5360   .bss.SpinningValidVy:00000000 $d
C:\Users\86152\AppData\Local\Temp\ccWGVtEI.s:5367   .bss.Stamp:00000000 $d
C:\Users\86152\AppData\Local\Temp\ccWGVtEI.s:5373   .bss.TempAerialX:00000000 $d
C:\Users\86152\AppData\Local\Temp\ccWGVtEI.s:5380   .bss.TempAerialY:00000000 $d
C:\Users\86152\AppData\Local\Temp\ccWGVtEI.s:5387   .bss.TempMaxVelocity.3:00000000 $d
C:\Users\86152\AppData\Local\Temp\ccWGVtEI.s:5391   .bss.TempMaxVelocity.3:00000000 TempMaxVelocity.3
C:\Users\86152\AppData\Local\Temp\ccWGVtEI.s:5394   .bss.TempVxTransfer:00000000 $d
C:\Users\86152\AppData\Local\Temp\ccWGVtEI.s:5400   .bss.TempVyTransfer:00000000 $d
C:\Users\86152\AppData\Local\Temp\ccWGVtEI.s:5406   .bss.Temp_Vx.21:00000000 $d
C:\Users\86152\AppData\Local\Temp\ccWGVtEI.s:5410   .bss.Temp_Vx.21:00000000 Temp_Vx.21
C:\Users\86152\AppData\Local\Temp\ccWGVtEI.s:5413   .bss.Temp_Vy.20:00000000 $d
C:\Users\86152\AppData\Local\Temp\ccWGVtEI.s:5417   .bss.Temp_Vy.20:00000000 Temp_Vy.20
C:\Users\86152\AppData\Local\Temp\ccWGVtEI.s:5420   .bss.Tempvx:00000000 $d
C:\Users\86152\AppData\Local\Temp\ccWGVtEI.s:5426   .bss.Tempvy:00000000 $d
C:\Users\86152\AppData\Local\Temp\ccWGVtEI.s:5432   .bss.Vx_ref:00000000 $d
C:\Users\86152\AppData\Local\Temp\ccWGVtEI.s:5438   .bss.Vy_ref:00000000 $d
C:\Users\86152\AppData\Local\Temp\ccWGVtEI.s:5447   .bss.aimassist_online:00000000 $d
C:\Users\86152\AppData\Local\Temp\ccWGVtEI.s:5449   .bss.aimssistLoseCount:00000000 $d
C:\Users\86152\AppData\Local\Temp\ccWGVtEI.s:5456   .bss.center_count.7:00000000 $d
C:\Users\86152\AppData\Local\Temp\ccWGVtEI.s:5460   .bss.center_count.7:00000000 center_count.7
C:\Users\86152\AppData\Local\Temp\ccWGVtEI.s:5463   .bss.count.0:00000000 $d
C:\Users\86152\AppData\Local\Temp\ccWGVtEI.s:5467   .bss.count.0:00000000 count.0
C:\Users\86152\AppData\Local\Temp\ccWGVtEI.s:5473   .bss.count_press:00000000 $d
C:\Users\86152\AppData\Local\Temp\ccWGVtEI.s:5475   .bss.data_novalid_count.5:00000000 $d
C:\Users\86152\AppData\Local\Temp\ccWGVtEI.s:5479   .bss.data_novalid_count.5:00000000 data_novalid_count.5
C:\Users\86152\AppData\Local\Temp\ccWGVtEI.s:5482   .bss.dt:00000000 $d
C:\Users\86152\AppData\Local\Temp\ccWGVtEI.s:5486   .bss.dt:00000000 dt
C:\Users\86152\AppData\Local\Temp\ccWGVtEI.s:5489   .bss.edge_count.6:00000000 $d
C:\Users\86152\AppData\Local\Temp\ccWGVtEI.s:5493   .bss.edge_count.6:00000000 edge_count.6
C:\Users\86152\AppData\Local\Temp\ccWGVtEI.s:5499   .bss.is_velocity.16:00000000 is_velocity.16
C:\Users\86152\AppData\Local\Temp\ccWGVtEI.s:5500   .bss.is_velocity.16:00000000 $d
C:\Users\86152\AppData\Local\Temp\ccWGVtEI.s:5502   .bss.last_Vx:00000000 $d
C:\Users\86152\AppData\Local\Temp\ccWGVtEI.s:5508   .bss.last_Vy:00000000 $d
C:\Users\86152\AppData\Local\Temp\ccWGVtEI.s:5518   .bss.last_game_status:00000000 $d
C:\Users\86152\AppData\Local\Temp\ccWGVtEI.s:5523   .bss.lostaim:00000000 $d
ARM GAS  C:\Users\86152\AppData\Local\Temp\ccWGVtEI.s 			page 257


C:\Users\86152\AppData\Local\Temp\ccWGVtEI.s:5525   .bss.max_num.2:00000000 $d
C:\Users\86152\AppData\Local\Temp\ccWGVtEI.s:5529   .bss.max_num.2:00000000 max_num.2
C:\Users\86152\AppData\Local\Temp\ccWGVtEI.s:5535   .bss.method:00000000 $d
C:\Users\86152\AppData\Local\Temp\ccWGVtEI.s:5537   .bss.move_ratio.15:00000000 $d
C:\Users\86152\AppData\Local\Temp\ccWGVtEI.s:5541   .bss.move_ratio.15:00000000 move_ratio.15
C:\Users\86152\AppData\Local\Temp\ccWGVtEI.s:5544   .bss.nanCount:00000000 $d
C:\Users\86152\AppData\Local\Temp\ccWGVtEI.s:5551   .bss.outpost_HP:00000000 $d
C:\Users\86152\AppData\Local\Temp\ccWGVtEI.s:5558   .bss.posX100.13:00000000 $d
C:\Users\86152\AppData\Local\Temp\ccWGVtEI.s:5562   .bss.posX100.13:00000000 posX100.13
C:\Users\86152\AppData\Local\Temp\ccWGVtEI.s:5565   .bss.posY100.12:00000000 $d
C:\Users\86152\AppData\Local\Temp\ccWGVtEI.s:5569   .bss.posY100.12:00000000 posY100.12
C:\Users\86152\AppData\Local\Temp\ccWGVtEI.s:5572   .bss.preFollowTheta:00000000 $d
C:\Users\86152\AppData\Local\Temp\ccWGVtEI.s:5579   .bss.reach_count.10:00000000 $d
C:\Users\86152\AppData\Local\Temp\ccWGVtEI.s:5583   .bss.reach_count.10:00000000 reach_count.10
C:\Users\86152\AppData\Local\Temp\ccWGVtEI.s:5589   .bss.reach_num.14:00000000 reach_num.14
C:\Users\86152\AppData\Local\Temp\ccWGVtEI.s:5590   .bss.reach_num.14:00000000 $d
C:\Users\86152\AppData\Local\Temp\ccWGVtEI.s:5592   .bss.sentry_HP:00000000 $d
C:\Users\86152\AppData\Local\Temp\ccWGVtEI.s:5599   .bss.sigmaSqrt.23:00000000 $d
C:\Users\86152\AppData\Local\Temp\ccWGVtEI.s:5603   .bss.sigmaSqrt.23:00000000 sigmaSqrt.23
C:\Users\86152\AppData\Local\Temp\ccWGVtEI.s:5606   .bss.spinnig_center0_temp.9:00000000 $d
C:\Users\86152\AppData\Local\Temp\ccWGVtEI.s:5610   .bss.spinnig_center0_temp.9:00000000 spinnig_center0_temp.9
C:\Users\86152\AppData\Local\Temp\ccWGVtEI.s:5613   .bss.spinnig_center1_temp.8:00000000 $d
C:\Users\86152\AppData\Local\Temp\ccWGVtEI.s:5617   .bss.spinnig_center1_temp.8:00000000 spinnig_center1_temp.8
C:\Users\86152\AppData\Local\Temp\ccWGVtEI.s:5620   .bss.t:00000000 $d
C:\Users\86152\AppData\Local\Temp\ccWGVtEI.s:5624   .bss.t:00000000 t
C:\Users\86152\AppData\Local\Temp\ccWGVtEI.s:5627   .bss.tempTime_Sprint:00000000 $d
C:\Users\86152\AppData\Local\Temp\ccWGVtEI.s:5634   .bss.tempVal.18:00000000 $d
C:\Users\86152\AppData\Local\Temp\ccWGVtEI.s:5638   .bss.tempVal.18:00000000 tempVal.18
C:\Users\86152\AppData\Local\Temp\ccWGVtEI.s:5641   .bss.tempVr.17:00000000 $d
C:\Users\86152\AppData\Local\Temp\ccWGVtEI.s:5645   .bss.tempVr.17:00000000 tempVr.17
C:\Users\86152\AppData\Local\Temp\ccWGVtEI.s:5651   .bss.thetaFrameNum.4:00000000 thetaFrameNum.4
C:\Users\86152\AppData\Local\Temp\ccWGVtEI.s:5652   .bss.thetaFrameNum.4:00000000 $d
C:\Users\86152\AppData\Local\Temp\ccWGVtEI.s:5654   .bss.time_temp:00000000 $d
C:\Users\86152\AppData\Local\Temp\ccWGVtEI.s:5661   .bss.user_count_time:00000000 $d
C:\Users\86152\AppData\Local\Temp\ccWGVtEI.s:5671   .bss.walktodes:00000000 $d
C:\Users\86152\AppData\Local\Temp\ccWGVtEI.s:5673   .bss.xhat_data_obsv:00000000 $d
C:\Users\86152\AppData\Local\Temp\ccWGVtEI.s:5684   .data.ChassisMotionEst_F:00000000 $d
C:\Users\86152\AppData\Local\Temp\ccWGVtEI.s:5726   .data.ChassisMotionEst_H:00000000 $d
C:\Users\86152\AppData\Local\Temp\ccWGVtEI.s:5756   .data.ChassisMotionEst_Pinit:00000000 $d
C:\Users\86152\AppData\Local\Temp\ccWGVtEI.s:5798   .data.ChassisMotionEst_Q:00000000 $d
C:\Users\86152\AppData\Local\Temp\ccWGVtEI.s:5840   .data.ChassisMotionEst_R:00000000 $d
C:\Users\86152\AppData\Local\Temp\ccWGVtEI.s:5862   .data.ChassisMotionEst_Sigma:00000000 $d
C:\Users\86152\AppData\Local\Temp\ccWGVtEI.s:5870   .data.Gimbal_Position_Modification:00000000 $d
C:\Users\86152\AppData\Local\Temp\ccWGVtEI.s:5877   .data.MAX_RPM:00000000 $d
C:\Users\86152\AppData\Local\Temp\ccWGVtEI.s:5884   .data.TempA:00000000 $d
C:\Users\86152\AppData\Local\Temp\ccWGVtEI.s:5890   .data.VR:00000000 $d
C:\Users\86152\AppData\Local\Temp\ccWGVtEI.s:5896   .data.V_coef:00000000 $d
C:\Users\86152\AppData\Local\Temp\ccWGVtEI.s:5902   .data.Vr_MAX:00000000 $d
C:\Users\86152\AppData\Local\Temp\ccWGVtEI.s:5908   .data.Vr_k:00000000 $d
C:\Users\86152\AppData\Local\Temp\ccWGVtEI.s:5914   .data.Vx_k:00000000 $d
C:\Users\86152\AppData\Local\Temp\ccWGVtEI.s:5921   .data.Vxy_Coef:00000000 $d
C:\Users\86152\AppData\Local\Temp\ccWGVtEI.s:5927   .data.Vy_k:00000000 $d
C:\Users\86152\AppData\Local\Temp\ccWGVtEI.s:5934   .data.c:00000000 $d
C:\Users\86152\AppData\Local\Temp\ccWGVtEI.s:5947   .data.debugvalue:00000000 $d
C:\Users\86152\AppData\Local\Temp\ccWGVtEI.s:5960   .rodata.coef.1:00000000 $d
C:\Users\86152\AppData\Local\Temp\ccWGVtEI.s:5964   .rodata.coef.1:00000000 coef.1

ARM GAS  C:\Users\86152\AppData\Local\Temp\ccWGVtEI.s 			page 258


UNDEFINED SYMBOLS
Kalman_Filter_Init
memcpy
Kalman_Filter_Update
BMI088
is_TOE_Error
ina226
float_constrain
robot_state
remote_control
__aeabi_f2d
__aeabi_dmul
__aeabi_d2f
xTaskGetTickCount
power_heat_data_t
Send_Motor_Current_1_4
HAL_IWDG_Refresh
Send_JudgeRxData
hcan1
hiwdg
JudgeRxValid
JudgeRxData
hcan2
TD_Init
loop_float_constrain
PID_Init
arm_mat_init_f32
Gimbal
memmove
float_deadband
HAL_GetTick
__aeabi_dadd
__aeabi_ddiv
arm_cos_f32
arm_sin_f32
PID_Calculate
Motor_Speed_Calculate
sqrtf
game_robot_HP
game_status
round
map_interactivity
DWT_GetDeltaT
SendAerialData
