ARM GAS  C:\Users\86152\AppData\Local\Temp\ccrmPoSV.s 			page 1


   1              		.cpu cortex-m4
   2              		.arch armv7e-m
   3              		.fpu fpv4-sp-d16
   4              		.eabi_attribute 27, 1
   5              		.eabi_attribute 28, 1
   6              		.eabi_attribute 20, 1
   7              		.eabi_attribute 21, 1
   8              		.eabi_attribute 23, 3
   9              		.eabi_attribute 24, 1
  10              		.eabi_attribute 25, 1
  11              		.eabi_attribute 26, 1
  12              		.eabi_attribute 30, 1
  13              		.eabi_attribute 34, 1
  14              		.eabi_attribute 18, 4
  15              		.file	"controller.c"
  16              		.text
  17              	.Ltext0:
  18              		.cfi_sections	.debug_frame
  19              		.section	.text.f_Trapezoid_Intergral,"ax",%progbits
  20              		.align	1
  21              		.syntax unified
  22              		.thumb
  23              		.thumb_func
  25              	f_Trapezoid_Intergral:
  26              	.LVL0:
  27              	.LFB172:
  28              		.file 1 "Components/Controller/controller.c"
   1:Components/Controller/controller.c **** /**
   2:Components/Controller/controller.c ****  ******************************************************************************
   3:Components/Controller/controller.c ****  * @file    controller.c
   4:Components/Controller/controller.c ****  * @author  Wang Hongxi
   5:Components/Controller/controller.c ****  * @author  Zhang Hongyu (fuzzy pid)
   6:Components/Controller/controller.c ****  * @version V1.1.3
   7:Components/Controller/controller.c ****  * @date    2021/7/3
   8:Components/Controller/controller.c ****  * @brief   DWT??????????????????? OLS?????????????
   9:Components/Controller/controller.c ****  ******************************************************************************
  10:Components/Controller/controller.c ****  * @attention
  11:Components/Controller/controller.c ****  *
  12:Components/Controller/controller.c ****  ******************************************************************************
  13:Components/Controller/controller.c ****  */
  14:Components/Controller/controller.c **** #include "controller.h"
  15:Components/Controller/controller.c **** 
  16:Components/Controller/controller.c **** /******************************** FUZZY PID **********************************/
  17:Components/Controller/controller.c **** // static float FuzzyRuleKpRAW[7][7] = {
  18:Components/Controller/controller.c **** //     PB, PB, PM, PM, PS, ZE, ZE,
  19:Components/Controller/controller.c **** //     PB, PB, PM, PS, PS, ZE, PS,
  20:Components/Controller/controller.c **** //     PM, PM, PM, PS, ZE, PS, PS,
  21:Components/Controller/controller.c **** //     PM, PM, PS, ZE, PS, PM, PM,
  22:Components/Controller/controller.c **** //     PS, PS, ZE, PS, PS, PM, PM,
  23:Components/Controller/controller.c **** //     PS, ZE, PS, PM, PM, PM, PB,
  24:Components/Controller/controller.c **** //     ZE, ZE, PM, PM, PM, PB, PB};
  25:Components/Controller/controller.c **** 
  26:Components/Controller/controller.c **** static float FuzzyRuleKpRAW[7][7] = {
  27:Components/Controller/controller.c ****     NB, NB, PM, PM, PS, ZE, ZE,
  28:Components/Controller/controller.c ****     NB, NB, PM, PS, PS, ZE, PS,
  29:Components/Controller/controller.c ****     NM, NM, PM, PS, ZE, PS, PS,
  30:Components/Controller/controller.c ****     NM, NM, PS, ZE, PS, PM, PM,
ARM GAS  C:\Users\86152\AppData\Local\Temp\ccrmPoSV.s 			page 2


  31:Components/Controller/controller.c ****     NS, NS, ZE, PS, PS, PM, PM,
  32:Components/Controller/controller.c ****     NS, ZE, PS, PM, PM, PM, PB,
  33:Components/Controller/controller.c ****     ZE, ZE, PM, PM, PM, PB, PB};
  34:Components/Controller/controller.c **** 
  35:Components/Controller/controller.c **** static float FuzzyRuleKiRAW[7][7] = {
  36:Components/Controller/controller.c ****     PB, PB, PM, PM, PS, ZE, ZE,
  37:Components/Controller/controller.c ****     PB, PB, PM, PS, PS, ZE, ZE,
  38:Components/Controller/controller.c ****     PB, PM, PM, PS, ZE, PS, PS,
  39:Components/Controller/controller.c ****     PM, PM, PS, ZE, PS, PM, PM,
  40:Components/Controller/controller.c ****     PS, PS, ZE, PS, PS, PM, PB,
  41:Components/Controller/controller.c ****     ZE, ZE, PS, PS, PM, PB, PB,
  42:Components/Controller/controller.c ****     ZE, ZE, PS, PM, PM, PB, PB};
  43:Components/Controller/controller.c **** 
  44:Components/Controller/controller.c **** static float FuzzyRuleKdRAW[7][7] = {
  45:Components/Controller/controller.c ****     PS, PS, PB, PB, PB, PM, PS,
  46:Components/Controller/controller.c ****     PS, PS, PB, PM, PM, PS, ZE,
  47:Components/Controller/controller.c ****     ZE, PS, PM, PM, PS, PS, ZE,
  48:Components/Controller/controller.c ****     ZE, PS, PS, PS, PS, PS, ZE,
  49:Components/Controller/controller.c ****     ZE, ZE, ZE, ZE, ZE, ZE, ZE,
  50:Components/Controller/controller.c ****     PB, PS, PS, PS, PS, PS, PB,
  51:Components/Controller/controller.c ****     PB, PM, PM, PM, PS, PS, PB};
  52:Components/Controller/controller.c **** 
  53:Components/Controller/controller.c **** void Fuzzy_Rule_Init(FuzzyRule_t *fuzzyRule, float (*fuzzyRuleKp)[7], float (*fuzzyRuleKi)[7], floa
  54:Components/Controller/controller.c ****                      float kpRatio, float kiRatio, float kdRatio,
  55:Components/Controller/controller.c ****                      float eStep, float ecStep)
  56:Components/Controller/controller.c **** {
  57:Components/Controller/controller.c ****     if (fuzzyRuleKp == NULL)
  58:Components/Controller/controller.c ****         fuzzyRule->FuzzyRuleKp = FuzzyRuleKpRAW;
  59:Components/Controller/controller.c ****     else
  60:Components/Controller/controller.c ****         fuzzyRule->FuzzyRuleKp = fuzzyRuleKp;
  61:Components/Controller/controller.c ****     if (fuzzyRuleKi == NULL)
  62:Components/Controller/controller.c ****         fuzzyRule->FuzzyRuleKi = FuzzyRuleKiRAW;
  63:Components/Controller/controller.c ****     else
  64:Components/Controller/controller.c ****         fuzzyRule->FuzzyRuleKi = fuzzyRuleKi;
  65:Components/Controller/controller.c ****     if (fuzzyRuleKd == NULL)
  66:Components/Controller/controller.c ****         fuzzyRule->FuzzyRuleKd = FuzzyRuleKdRAW;
  67:Components/Controller/controller.c ****     else
  68:Components/Controller/controller.c ****         fuzzyRule->FuzzyRuleKd = fuzzyRuleKd;
  69:Components/Controller/controller.c **** 
  70:Components/Controller/controller.c ****     fuzzyRule->KpRatio = kpRatio;
  71:Components/Controller/controller.c ****     fuzzyRule->KiRatio = kiRatio;
  72:Components/Controller/controller.c ****     fuzzyRule->KdRatio = kdRatio;
  73:Components/Controller/controller.c **** 
  74:Components/Controller/controller.c ****     if (eStep < 0.00001f)
  75:Components/Controller/controller.c ****         eStep = 1;
  76:Components/Controller/controller.c ****     if (ecStep < 0.00001f)
  77:Components/Controller/controller.c ****         ecStep = 1;
  78:Components/Controller/controller.c ****     fuzzyRule->eStep = eStep;
  79:Components/Controller/controller.c ****     fuzzyRule->ecStep = ecStep;
  80:Components/Controller/controller.c **** }
  81:Components/Controller/controller.c **** void Fuzzy_Rule_Implementation(FuzzyRule_t *fuzzyRule, float measure, float ref)
  82:Components/Controller/controller.c **** {
  83:Components/Controller/controller.c ****     float eLeftTemp, ecLeftTemp;
  84:Components/Controller/controller.c ****     float eRightTemp, ecRightTemp;
  85:Components/Controller/controller.c ****     int eLeftIndex, ecLeftIndex;
  86:Components/Controller/controller.c ****     int eRightIndex, ecRightIndex;
  87:Components/Controller/controller.c **** 
ARM GAS  C:\Users\86152\AppData\Local\Temp\ccrmPoSV.s 			page 3


  88:Components/Controller/controller.c ****     fuzzyRule->dt = DWT_GetDeltaT((void *)&fuzzyRule->DWT_CNT);
  89:Components/Controller/controller.c **** 
  90:Components/Controller/controller.c ****     fuzzyRule->e = ref - measure;
  91:Components/Controller/controller.c ****     fuzzyRule->ec = (fuzzyRule->e - fuzzyRule->eLast) / fuzzyRule->dt; //
  92:Components/Controller/controller.c ****     fuzzyRule->eLast = fuzzyRule->e;
  93:Components/Controller/controller.c **** 
  94:Components/Controller/controller.c ****     //????????
  95:Components/Controller/controller.c ****     eLeftIndex = fuzzyRule->e >= 3 * fuzzyRule->eStep ? 6 : (fuzzyRule->e <= -3 * fuzzyRule->eStep 
  96:Components/Controller/controller.c ****     eRightIndex = fuzzyRule->e >= 3 * fuzzyRule->eStep ? 6 : (fuzzyRule->e <= -3 * fuzzyRule->eStep
  97:Components/Controller/controller.c ****     ecLeftIndex = fuzzyRule->ec >= 3 * fuzzyRule->ecStep ? 6 : (fuzzyRule->ec <= -3 * fuzzyRule->ec
  98:Components/Controller/controller.c ****     ecRightIndex = fuzzyRule->ec >= 3 * fuzzyRule->ecStep ? 6 : (fuzzyRule->ec <= -3 * fuzzyRule->e
  99:Components/Controller/controller.c **** 
 100:Components/Controller/controller.c ****     //		fuzzyRule->eIntervalCount[eLeftIndex] ++;
 101:Components/Controller/controller.c ****     //		fuzzyRule->ecIntervalCount[ecLeftIndex] ++;
 102:Components/Controller/controller.c **** 
 103:Components/Controller/controller.c ****     //??????
 104:Components/Controller/controller.c ****     eLeftTemp = fuzzyRule->e >= 3 * fuzzyRule->eStep ? 0 : (fuzzyRule->e <= -3 * fuzzyRule->eStep ?
 105:Components/Controller/controller.c ****     eRightTemp = fuzzyRule->e >= 3 * fuzzyRule->eStep ? 1 : (fuzzyRule->e <= -3 * fuzzyRule->eStep 
 106:Components/Controller/controller.c ****     ecLeftTemp = fuzzyRule->ec >= 3 * fuzzyRule->ecStep ? 0 : (fuzzyRule->ec <= -3 * fuzzyRule->ecS
 107:Components/Controller/controller.c ****     ecRightTemp = fuzzyRule->ec >= 3 * fuzzyRule->ecStep ? 1 : (fuzzyRule->ec <= -3 * fuzzyRule->ec
 108:Components/Controller/controller.c **** 
 109:Components/Controller/controller.c ****     fuzzyRule->eStatue = eLeftIndex;
 110:Components/Controller/controller.c ****     fuzzyRule->ecStatue = ecLeftIndex;
 111:Components/Controller/controller.c **** 
 112:Components/Controller/controller.c ****     fuzzyRule->KpFuzzyTemp[0] = eLeftTemp * ecLeftTemp * fuzzyRule->FuzzyRuleKp[eLeftIndex][ecLeftI
 113:Components/Controller/controller.c ****     fuzzyRule->KpFuzzyTemp[1] = eLeftTemp * ecRightTemp * fuzzyRule->FuzzyRuleKp[eRightIndex][ecLef
 114:Components/Controller/controller.c ****     fuzzyRule->KpFuzzyTemp[2] = eRightTemp * ecLeftTemp * fuzzyRule->FuzzyRuleKp[eLeftIndex][ecRigh
 115:Components/Controller/controller.c ****     fuzzyRule->KpFuzzyTemp[3] = eRightTemp * ecRightTemp * fuzzyRule->FuzzyRuleKp[eRightIndex][ecRi
 116:Components/Controller/controller.c **** 
 117:Components/Controller/controller.c ****     fuzzyRule->KpFuzzy = fuzzyRule->KpFuzzyTemp[0] + fuzzyRule->KpFuzzyTemp[1] + fuzzyRule->KpFuzzy
 118:Components/Controller/controller.c ****     //		fuzzyRule->KpFuzzy = eLeftTemp * ecLeftTemp * fuzzyRule->FuzzyRuleKp[eLeftIndex][ecLeftInde
 119:Components/Controller/controller.c ****     //                         eLeftTemp * ecRightTemp * fuzzyRule->FuzzyRuleKp[eLeftIndex][ecRight
 120:Components/Controller/controller.c ****     //                         eRightTemp * ecLeftTemp * fuzzyRule->FuzzyRuleKp[eRightIndex][ecLeft
 121:Components/Controller/controller.c ****     //                         eRightTemp * ecRightTemp * fuzzyRule->FuzzyRuleKp[eRightIndex][ecRig
 122:Components/Controller/controller.c **** 
 123:Components/Controller/controller.c ****     fuzzyRule->KpFuzzy *= fuzzyRule->KpRatio;
 124:Components/Controller/controller.c ****     //		fuzzyRule->KpFuzzy = (fuzzyRule->KpFuzzy + fuzzyRule->LastKpFuzzy) / 2;
 125:Components/Controller/controller.c ****     //		fuzzyRule->LastKpFuzzy = fuzzyRule->KpFuzzy;
 126:Components/Controller/controller.c **** 
 127:Components/Controller/controller.c ****     fuzzyRule->KiFuzzy = eLeftTemp * ecLeftTemp * fuzzyRule->FuzzyRuleKi[eLeftIndex][ecLeftIndex] +
 128:Components/Controller/controller.c ****                          eLeftTemp * ecRightTemp * fuzzyRule->FuzzyRuleKi[eRightIndex][ecLeftIndex]
 129:Components/Controller/controller.c ****                          eRightTemp * ecLeftTemp * fuzzyRule->FuzzyRuleKi[eLeftIndex][ecRightIndex]
 130:Components/Controller/controller.c ****                          eRightTemp * ecRightTemp * fuzzyRule->FuzzyRuleKi[eRightIndex][ecRightInde
 131:Components/Controller/controller.c ****     fuzzyRule->KiFuzzy *= fuzzyRule->KiRatio;
 132:Components/Controller/controller.c **** 
 133:Components/Controller/controller.c ****     fuzzyRule->KdFuzzy = eLeftTemp * ecLeftTemp * fuzzyRule->FuzzyRuleKd[eLeftIndex][ecLeftIndex] +
 134:Components/Controller/controller.c ****                          eLeftTemp * ecRightTemp * fuzzyRule->FuzzyRuleKd[eRightIndex][ecLeftIndex]
 135:Components/Controller/controller.c ****                          eRightTemp * ecLeftTemp * fuzzyRule->FuzzyRuleKd[eLeftIndex][ecRightIndex]
 136:Components/Controller/controller.c ****                          eRightTemp * ecRightTemp * fuzzyRule->FuzzyRuleKd[eRightIndex][ecRightInde
 137:Components/Controller/controller.c ****     fuzzyRule->KdFuzzy *= fuzzyRule->KdRatio;
 138:Components/Controller/controller.c **** }
 139:Components/Controller/controller.c **** 
 140:Components/Controller/controller.c **** /******************************* PID CONTROL *********************************/
 141:Components/Controller/controller.c **** // PID??????????????
 142:Components/Controller/controller.c **** static void f_Trapezoid_Intergral(PID_t *pid);
 143:Components/Controller/controller.c **** static void f_Integral_Limit(PID_t *pid);
 144:Components/Controller/controller.c **** static void f_Derivative_On_Measurement(PID_t *pid);
ARM GAS  C:\Users\86152\AppData\Local\Temp\ccrmPoSV.s 			page 4


 145:Components/Controller/controller.c **** static void f_Changing_Integration_Rate(PID_t *pid);
 146:Components/Controller/controller.c **** static void f_Output_Filter(PID_t *pid);
 147:Components/Controller/controller.c **** static void f_Derivative_Filter(PID_t *pid);
 148:Components/Controller/controller.c **** static void f_Output_Limit(PID_t *pid);
 149:Components/Controller/controller.c **** static void f_Proportion_Limit(PID_t *pid);
 150:Components/Controller/controller.c **** static void f_PID_ErrorHandle(PID_t *pid);
 151:Components/Controller/controller.c **** 
 152:Components/Controller/controller.c **** /**
 153:Components/Controller/controller.c ****  * @brief          PID?????   PID initialize
 154:Components/Controller/controller.c ****  * @param[in]      PID????   PID structure
 155:Components/Controller/controller.c ****  * @param[in]      ??
 156:Components/Controller/controller.c ****  * @retval         ?????      null
 157:Components/Controller/controller.c ****  */
 158:Components/Controller/controller.c **** void PID_Init(
 159:Components/Controller/controller.c ****     PID_t *pid,
 160:Components/Controller/controller.c ****     float max_out,
 161:Components/Controller/controller.c ****     float intergral_limit,
 162:Components/Controller/controller.c ****     float deadband,
 163:Components/Controller/controller.c **** 
 164:Components/Controller/controller.c ****     float kp,
 165:Components/Controller/controller.c ****     float Ki,
 166:Components/Controller/controller.c ****     float Kd,
 167:Components/Controller/controller.c **** 
 168:Components/Controller/controller.c ****     float A,
 169:Components/Controller/controller.c ****     float B,
 170:Components/Controller/controller.c **** 
 171:Components/Controller/controller.c ****     float output_lpf_rc,
 172:Components/Controller/controller.c ****     float derivative_lpf_rc,
 173:Components/Controller/controller.c **** 
 174:Components/Controller/controller.c ****     uint16_t ols_order,
 175:Components/Controller/controller.c **** 
 176:Components/Controller/controller.c ****     uint8_t improve)
 177:Components/Controller/controller.c **** {
 178:Components/Controller/controller.c ****     pid->DeadBand = deadband;
 179:Components/Controller/controller.c ****     pid->IntegralLimit = intergral_limit;
 180:Components/Controller/controller.c ****     pid->MaxOut = max_out;
 181:Components/Controller/controller.c ****     pid->Ref = 0;
 182:Components/Controller/controller.c **** 
 183:Components/Controller/controller.c ****     pid->Kp = kp;
 184:Components/Controller/controller.c ****     pid->Ki = Ki;
 185:Components/Controller/controller.c ****     pid->Kd = Kd;
 186:Components/Controller/controller.c ****     pid->ITerm = 0;
 187:Components/Controller/controller.c **** 
 188:Components/Controller/controller.c ****     // ??????????
 189:Components/Controller/controller.c ****     // coefficient of changing integration rate
 190:Components/Controller/controller.c ****     pid->CoefA = A;
 191:Components/Controller/controller.c ****     pid->CoefB = B;
 192:Components/Controller/controller.c **** 
 193:Components/Controller/controller.c ****     pid->Output_LPF_RC = output_lpf_rc;
 194:Components/Controller/controller.c **** 
 195:Components/Controller/controller.c ****     pid->Derivative_LPF_RC = derivative_lpf_rc;
 196:Components/Controller/controller.c **** 
 197:Components/Controller/controller.c ****     // ??§³?????????????????
 198:Components/Controller/controller.c ****     // differential signal is distilled by OLS
 199:Components/Controller/controller.c ****     pid->OLS_Order = ols_order;
 200:Components/Controller/controller.c ****     OLS_Init(&pid->OLS, ols_order);
 201:Components/Controller/controller.c **** 
ARM GAS  C:\Users\86152\AppData\Local\Temp\ccrmPoSV.s 			page 5


 202:Components/Controller/controller.c ****     // DWT?????????????????
 203:Components/Controller/controller.c ****     // reset DWT Timer count counter
 204:Components/Controller/controller.c ****     pid->DWT_CNT = 0;
 205:Components/Controller/controller.c **** 
 206:Components/Controller/controller.c ****     // ????PID???????
 207:Components/Controller/controller.c ****     pid->Improve = improve;
 208:Components/Controller/controller.c **** 
 209:Components/Controller/controller.c ****     // ????PID?????? ??????????????????
 210:Components/Controller/controller.c ****     pid->ERRORHandler.ERRORCount = 0;
 211:Components/Controller/controller.c ****     pid->ERRORHandler.ERRORType = PID_ERROR_NONE;
 212:Components/Controller/controller.c **** 
 213:Components/Controller/controller.c ****     pid->Output = 0;
 214:Components/Controller/controller.c **** }
 215:Components/Controller/controller.c **** 
 216:Components/Controller/controller.c **** /**
 217:Components/Controller/controller.c ****  * @brief          PID????
 218:Components/Controller/controller.c ****  * @param[in]      PID????
 219:Components/Controller/controller.c ****  * @param[in]      ?????
 220:Components/Controller/controller.c ****  * @param[in]      ?????
 221:Components/Controller/controller.c ****  * @retval         ?????
 222:Components/Controller/controller.c ****  */
 223:Components/Controller/controller.c **** float PID_Calculate(PID_t *pid, float measure, float ref)
 224:Components/Controller/controller.c **** {
 225:Components/Controller/controller.c ****     if (pid->Improve & ErrorHandle)
 226:Components/Controller/controller.c ****         f_PID_ErrorHandle(pid);
 227:Components/Controller/controller.c **** 
 228:Components/Controller/controller.c ****     pid->dt = DWT_GetDeltaT((void *)&pid->DWT_CNT);
 229:Components/Controller/controller.c **** 
 230:Components/Controller/controller.c ****     pid->Measure = measure;
 231:Components/Controller/controller.c ****     pid->Ref = ref;
 232:Components/Controller/controller.c ****     if (!isnormal(pid->Measure))
 233:Components/Controller/controller.c ****         pid->Measure = 0;
 234:Components/Controller/controller.c ****     if (!isnormal(pid->Ref))
 235:Components/Controller/controller.c ****         pid->Ref = 0;
 236:Components/Controller/controller.c ****     pid->Err = pid->Ref - pid->Measure;
 237:Components/Controller/controller.c **** 
 238:Components/Controller/controller.c ****     if (pid->User_Func1_f != NULL)
 239:Components/Controller/controller.c ****         pid->User_Func1_f(pid);
 240:Components/Controller/controller.c **** 
 241:Components/Controller/controller.c ****     if (abs(pid->Err) > pid->DeadBand)
 242:Components/Controller/controller.c ****     {
 243:Components/Controller/controller.c ****         if (pid->FuzzyRule == NULL)
 244:Components/Controller/controller.c ****         {
 245:Components/Controller/controller.c ****             pid->Pout = pid->Kp * pid->Err;
 246:Components/Controller/controller.c ****             pid->ITerm = pid->Ki * pid->Err * pid->dt;
 247:Components/Controller/controller.c ****             // if (pid->OLS_Order > 2)
 248:Components/Controller/controller.c ****             //     pid->Dout = pid->Kd * OLS_Derivative(&pid->OLS, pid->dt, pid->Err);
 249:Components/Controller/controller.c ****             // else
 250:Components/Controller/controller.c ****             pid->Dout = pid->Kd * (pid->Err - pid->Last_Err) / pid->dt;
 251:Components/Controller/controller.c ****         }
 252:Components/Controller/controller.c ****         else
 253:Components/Controller/controller.c ****         {
 254:Components/Controller/controller.c ****             pid->Pout = (pid->Kp + pid->FuzzyRule->KpFuzzy) * pid->Err;
 255:Components/Controller/controller.c ****             pid->ITerm = (pid->Ki + pid->FuzzyRule->KiFuzzy) * pid->Err * pid->dt;
 256:Components/Controller/controller.c ****             // if (pid->OLS_Order > 2)
 257:Components/Controller/controller.c ****             //     pid->Dout = (pid->Kd + pid->FuzzyRule->KdFuzzy) * OLS_Derivative(&pid->OLS, pid-
 258:Components/Controller/controller.c ****             // else
ARM GAS  C:\Users\86152\AppData\Local\Temp\ccrmPoSV.s 			page 6


 259:Components/Controller/controller.c ****             pid->Dout = (pid->Kd + pid->FuzzyRule->KdFuzzy) * (pid->Err - pid->Last_Err) / pid->dt;
 260:Components/Controller/controller.c ****         }
 261:Components/Controller/controller.c **** 
 262:Components/Controller/controller.c ****         if (pid->User_Func2_f != NULL)
 263:Components/Controller/controller.c ****             pid->User_Func2_f(pid);
 264:Components/Controller/controller.c **** 
 265:Components/Controller/controller.c ****         // ???¦Ë???
 266:Components/Controller/controller.c ****         if (pid->Improve & Trapezoid_Intergral)
 267:Components/Controller/controller.c ****             f_Trapezoid_Intergral(pid);
 268:Components/Controller/controller.c ****         // ???????
 269:Components/Controller/controller.c ****         if (pid->Improve & ChangingIntegrationRate)
 270:Components/Controller/controller.c ****             f_Changing_Integration_Rate(pid);
 271:Components/Controller/controller.c ****         // ???????
 272:Components/Controller/controller.c ****         if (pid->Improve & Derivative_On_Measurement)
 273:Components/Controller/controller.c ****             f_Derivative_On_Measurement(pid);
 274:Components/Controller/controller.c ****         // ????????
 275:Components/Controller/controller.c ****         if (pid->Improve & DerivativeFilter)
 276:Components/Controller/controller.c ****             f_Derivative_Filter(pid);
 277:Components/Controller/controller.c ****         // ???????
 278:Components/Controller/controller.c ****         if (pid->Improve & Integral_Limit)
 279:Components/Controller/controller.c ****             f_Integral_Limit(pid);
 280:Components/Controller/controller.c **** 
 281:Components/Controller/controller.c ****         if (!isnormal(pid->ITerm))
 282:Components/Controller/controller.c ****             pid->ITerm = 0;
 283:Components/Controller/controller.c **** 
 284:Components/Controller/controller.c ****         pid->Iout += pid->ITerm;
 285:Components/Controller/controller.c **** 
 286:Components/Controller/controller.c ****         if (!isnormal(pid->Pout))
 287:Components/Controller/controller.c ****             pid->Pout = 0;
 288:Components/Controller/controller.c ****         if (!isnormal(pid->Iout))
 289:Components/Controller/controller.c ****             pid->Iout = 0;
 290:Components/Controller/controller.c ****         if (!isnormal(pid->Dout))
 291:Components/Controller/controller.c ****             pid->Dout = 0;
 292:Components/Controller/controller.c **** 
 293:Components/Controller/controller.c ****         pid->Output = pid->Pout + pid->Iout + pid->Dout;
 294:Components/Controller/controller.c **** 
 295:Components/Controller/controller.c ****         // ??????
 296:Components/Controller/controller.c ****         if (pid->Improve & OutputFilter)
 297:Components/Controller/controller.c ****             f_Output_Filter(pid);
 298:Components/Controller/controller.c **** 
 299:Components/Controller/controller.c ****         // ??????
 300:Components/Controller/controller.c ****         f_Output_Limit(pid);
 301:Components/Controller/controller.c **** 
 302:Components/Controller/controller.c ****         // ?????
 303:Components/Controller/controller.c ****         f_Proportion_Limit(pid);
 304:Components/Controller/controller.c ****     }
 305:Components/Controller/controller.c **** 
 306:Components/Controller/controller.c ****     pid->Last_Measure = pid->Measure;
 307:Components/Controller/controller.c ****     pid->Last_Output = pid->Output;
 308:Components/Controller/controller.c ****     pid->Last_Dout = pid->Dout;
 309:Components/Controller/controller.c ****     pid->Last_Err = pid->Err;
 310:Components/Controller/controller.c ****     pid->Last_ITerm = pid->ITerm;
 311:Components/Controller/controller.c **** 
 312:Components/Controller/controller.c ****     return pid->Output;
 313:Components/Controller/controller.c **** }
 314:Components/Controller/controller.c **** static void f_Trapezoid_Intergral(PID_t *pid)
 315:Components/Controller/controller.c **** {
ARM GAS  C:\Users\86152\AppData\Local\Temp\ccrmPoSV.s 			page 7


  29              		.loc 1 315 1 view -0
  30              		.cfi_startproc
  31              		@ args = 0, pretend = 0, frame = 0
  32              		@ frame_needed = 0, uses_anonymous_args = 0
  33              		@ link register save eliminated.
 316:Components/Controller/controller.c ****     if (pid->FuzzyRule == NULL)
  34              		.loc 1 316 5 view .LVU1
  35              		.loc 1 316 12 is_stmt 0 view .LVU2
  36 0000 D0F89830 		ldr	r3, [r0, #152]
  37              		.loc 1 316 8 view .LVU3
  38 0004 C3B1     		cbz	r3, .L4
 317:Components/Controller/controller.c ****         pid->ITerm = pid->Ki * ((pid->Err + pid->Last_Err) / 2) * pid->dt;
 318:Components/Controller/controller.c ****     else
 319:Components/Controller/controller.c ****         pid->ITerm = (pid->Ki + pid->FuzzyRule->KiFuzzy) * ((pid->Err + pid->Last_Err) / 2) * pid->
  39              		.loc 1 319 9 is_stmt 1 view .LVU4
  40              		.loc 1 319 26 is_stmt 0 view .LVU5
  41 0006 D0ED027A 		vldr.32	s15, [r0, #8]
  42              		.loc 1 319 47 view .LVU6
  43 000a 93ED017A 		vldr.32	s14, [r3, #4]
  44              		.loc 1 319 31 view .LVU7
  45 000e 77EE877A 		vadd.f32	s15, s15, s14
  46              		.loc 1 319 65 view .LVU8
  47 0012 90ED067A 		vldr.32	s14, [r0, #24]
  48              		.loc 1 319 76 view .LVU9
  49 0016 D0ED076A 		vldr.32	s13, [r0, #28]
  50              		.loc 1 319 71 view .LVU10
  51 001a 37EE267A 		vadd.f32	s14, s14, s13
  52              		.loc 1 319 88 view .LVU11
  53 001e F6EE006A 		vmov.f32	s13, #5.0e-1
  54 0022 27EE267A 		vmul.f32	s14, s14, s13
  55              		.loc 1 319 58 view .LVU12
  56 0026 67EE877A 		vmul.f32	s15, s15, s14
  57              		.loc 1 319 98 view .LVU13
  58 002a 90ED257A 		vldr.32	s14, [r0, #148]
  59              		.loc 1 319 93 view .LVU14
  60 002e 67EE877A 		vmul.f32	s15, s15, s14
  61              		.loc 1 319 20 view .LVU15
  62 0032 C0ED0C7A 		vstr.32	s15, [r0, #48]
 320:Components/Controller/controller.c **** }
  63              		.loc 1 320 1 view .LVU16
  64 0036 7047     		bx	lr
  65              	.L4:
 317:Components/Controller/controller.c ****         pid->ITerm = pid->Ki * ((pid->Err + pid->Last_Err) / 2) * pid->dt;
  66              		.loc 1 317 9 is_stmt 1 view .LVU17
 317:Components/Controller/controller.c ****         pid->ITerm = pid->Ki * ((pid->Err + pid->Last_Err) / 2) * pid->dt;
  67              		.loc 1 317 25 is_stmt 0 view .LVU18
  68 0038 D0ED027A 		vldr.32	s15, [r0, #8]
 317:Components/Controller/controller.c ****         pid->ITerm = pid->Ki * ((pid->Err + pid->Last_Err) / 2) * pid->dt;
  69              		.loc 1 317 37 view .LVU19
  70 003c 90ED067A 		vldr.32	s14, [r0, #24]
 317:Components/Controller/controller.c ****         pid->ITerm = pid->Ki * ((pid->Err + pid->Last_Err) / 2) * pid->dt;
  71              		.loc 1 317 48 view .LVU20
  72 0040 D0ED076A 		vldr.32	s13, [r0, #28]
 317:Components/Controller/controller.c ****         pid->ITerm = pid->Ki * ((pid->Err + pid->Last_Err) / 2) * pid->dt;
  73              		.loc 1 317 43 view .LVU21
  74 0044 37EE267A 		vadd.f32	s14, s14, s13
 317:Components/Controller/controller.c ****         pid->ITerm = pid->Ki * ((pid->Err + pid->Last_Err) / 2) * pid->dt;
ARM GAS  C:\Users\86152\AppData\Local\Temp\ccrmPoSV.s 			page 8


  75              		.loc 1 317 60 view .LVU22
  76 0048 F6EE006A 		vmov.f32	s13, #5.0e-1
  77 004c 27EE267A 		vmul.f32	s14, s14, s13
 317:Components/Controller/controller.c ****         pid->ITerm = pid->Ki * ((pid->Err + pid->Last_Err) / 2) * pid->dt;
  78              		.loc 1 317 30 view .LVU23
  79 0050 67EE877A 		vmul.f32	s15, s15, s14
 317:Components/Controller/controller.c ****         pid->ITerm = pid->Ki * ((pid->Err + pid->Last_Err) / 2) * pid->dt;
  80              		.loc 1 317 70 view .LVU24
  81 0054 90ED257A 		vldr.32	s14, [r0, #148]
 317:Components/Controller/controller.c ****         pid->ITerm = pid->Ki * ((pid->Err + pid->Last_Err) / 2) * pid->dt;
  82              		.loc 1 317 65 view .LVU25
  83 0058 67EE877A 		vmul.f32	s15, s15, s14
 317:Components/Controller/controller.c ****         pid->ITerm = pid->Ki * ((pid->Err + pid->Last_Err) / 2) * pid->dt;
  84              		.loc 1 317 20 view .LVU26
  85 005c C0ED0C7A 		vstr.32	s15, [r0, #48]
  86 0060 7047     		bx	lr
  87              		.cfi_endproc
  88              	.LFE172:
  90              		.section	.text.f_Changing_Integration_Rate,"ax",%progbits
  91              		.align	1
  92              		.syntax unified
  93              		.thumb
  94              		.thumb_func
  96              	f_Changing_Integration_Rate:
  97              	.LVL1:
  98              	.LFB173:
 321:Components/Controller/controller.c **** 
 322:Components/Controller/controller.c **** static void f_Changing_Integration_Rate(PID_t *pid)
 323:Components/Controller/controller.c **** {
  99              		.loc 1 323 1 is_stmt 1 view -0
 100              		.cfi_startproc
 101              		@ args = 0, pretend = 0, frame = 0
 102              		@ frame_needed = 0, uses_anonymous_args = 0
 103              		@ link register save eliminated.
 324:Components/Controller/controller.c ****     if (pid->Err * pid->Iout > 0)
 104              		.loc 1 324 5 view .LVU28
 105              		.loc 1 324 12 is_stmt 0 view .LVU29
 106 0000 D0ED067A 		vldr.32	s15, [r0, #24]
 107              		.loc 1 324 23 view .LVU30
 108 0004 90ED0A7A 		vldr.32	s14, [r0, #40]
 109              		.loc 1 324 18 view .LVU31
 110 0008 27EE877A 		vmul.f32	s14, s15, s14
 111              		.loc 1 324 8 view .LVU32
 112 000c B5EEC07A 		vcmpe.f32	s14, #0
 113 0010 F1EE10FA 		vmrs	APSR_nzcv, FPSCR
 114 0014 26DD     		ble	.L5
 325:Components/Controller/controller.c ****     {
 326:Components/Controller/controller.c ****         // ????????????
 327:Components/Controller/controller.c ****         // Integral still increasing
 328:Components/Controller/controller.c ****         if (abs(pid->Err) <= pid->CoefB)
 115              		.loc 1 328 9 is_stmt 1 view .LVU33
 116              		.loc 1 328 13 is_stmt 0 view .LVU34
 117 0016 F5EEC07A 		vcmpe.f32	s15, #0
 118 001a F1EE10FA 		vmrs	APSR_nzcv, FPSCR
 119 001e 1CDD     		ble	.L14
 120              	.L8:
 121              		.loc 1 328 33 discriminator 4 view .LVU35
ARM GAS  C:\Users\86152\AppData\Local\Temp\ccrmPoSV.s 			page 9


 122 0020 90ED157A 		vldr.32	s14, [r0, #84]
 123              		.loc 1 328 12 discriminator 4 view .LVU36
 124 0024 B4EEE77A 		vcmpe.f32	s14, s15
 125 0028 F1EE10FA 		vmrs	APSR_nzcv, FPSCR
 126 002c 1ADA     		bge	.L5
 329:Components/Controller/controller.c ****             return; // Full integral
 330:Components/Controller/controller.c ****         if (abs(pid->Err) <= (pid->CoefA + pid->CoefB))
 127              		.loc 1 330 9 is_stmt 1 discriminator 4 view .LVU37
 128              		.loc 1 330 34 is_stmt 0 discriminator 4 view .LVU38
 129 002e D0ED146A 		vldr.32	s13, [r0, #80]
 130              		.loc 1 330 42 discriminator 4 view .LVU39
 131 0032 37EE266A 		vadd.f32	s12, s14, s13
 132              		.loc 1 330 12 discriminator 4 view .LVU40
 133 0036 B4EEE76A 		vcmpe.f32	s12, s15
 134 003a F1EE10FA 		vmrs	APSR_nzcv, FPSCR
 135 003e 0FDB     		blt	.L13
 331:Components/Controller/controller.c ****             pid->ITerm *= (pid->CoefA - abs(pid->Err) + pid->CoefB) / pid->CoefA;
 136              		.loc 1 331 13 is_stmt 1 view .LVU41
 137              		.loc 1 331 39 is_stmt 0 view .LVU42
 138 0040 76EEE77A 		vsub.f32	s15, s13, s15
 139              		.loc 1 331 55 view .LVU43
 140 0044 77EE277A 		vadd.f32	s15, s14, s15
 141              		.loc 1 331 69 view .LVU44
 142 0048 87EEA67A 		vdiv.f32	s14, s15, s13
 143              		.loc 1 331 24 view .LVU45
 144 004c D0ED0C7A 		vldr.32	s15, [r0, #48]
 145 0050 67EE877A 		vmul.f32	s15, s15, s14
 146 0054 C0ED0C7A 		vstr.32	s15, [r0, #48]
 147 0058 7047     		bx	lr
 148              	.L14:
 328:Components/Controller/controller.c ****             return; // Full integral
 149              		.loc 1 328 13 discriminator 2 view .LVU46
 150 005a F1EE677A 		vneg.f32	s15, s15
 151 005e DFE7     		b	.L8
 152              	.L13:
 332:Components/Controller/controller.c ****         else
 333:Components/Controller/controller.c ****             pid->ITerm = 0;
 153              		.loc 1 333 13 is_stmt 1 view .LVU47
 154              		.loc 1 333 24 is_stmt 0 view .LVU48
 155 0060 0023     		movs	r3, #0
 156 0062 0363     		str	r3, [r0, #48]	@ float
 157              	.L5:
 334:Components/Controller/controller.c ****     }
 335:Components/Controller/controller.c **** }
 158              		.loc 1 335 1 view .LVU49
 159 0064 7047     		bx	lr
 160              		.cfi_endproc
 161              	.LFE173:
 163              		.section	.text.f_Integral_Limit,"ax",%progbits
 164              		.align	1
 165              		.syntax unified
 166              		.thumb
 167              		.thumb_func
 169              	f_Integral_Limit:
 170              	.LVL2:
 171              	.LFB174:
 336:Components/Controller/controller.c **** 
ARM GAS  C:\Users\86152\AppData\Local\Temp\ccrmPoSV.s 			page 10


 337:Components/Controller/controller.c **** static void f_Integral_Limit(PID_t *pid)
 338:Components/Controller/controller.c **** {
 172              		.loc 1 338 1 is_stmt 1 view -0
 173              		.cfi_startproc
 174              		@ args = 0, pretend = 0, frame = 0
 175              		@ frame_needed = 0, uses_anonymous_args = 0
 176              		@ link register save eliminated.
 339:Components/Controller/controller.c ****     static float temp_Output, temp_Iout;
 177              		.loc 1 339 5 view .LVU51
 340:Components/Controller/controller.c ****     temp_Iout = pid->Iout + pid->ITerm;
 178              		.loc 1 340 5 view .LVU52
 179              		.loc 1 340 20 is_stmt 0 view .LVU53
 180 0000 D0ED0A6A 		vldr.32	s13, [r0, #40]
 181              		.loc 1 340 32 view .LVU54
 182 0004 90ED0C7A 		vldr.32	s14, [r0, #48]
 183              		.loc 1 340 27 view .LVU55
 184 0008 36EE877A 		vadd.f32	s14, s13, s14
 185              		.loc 1 340 15 view .LVU56
 186 000c 1F4B     		ldr	r3, .L29
 187 000e 83ED007A 		vstr.32	s14, [r3]
 341:Components/Controller/controller.c ****     temp_Output = pid->Pout + pid->Iout + pid->Dout;
 188              		.loc 1 341 5 is_stmt 1 view .LVU57
 189              		.loc 1 341 22 is_stmt 0 view .LVU58
 190 0012 D0ED097A 		vldr.32	s15, [r0, #36]
 191              		.loc 1 341 29 view .LVU59
 192 0016 76EEA77A 		vadd.f32	s15, s13, s15
 193              		.loc 1 341 46 view .LVU60
 194 001a 90ED0B6A 		vldr.32	s12, [r0, #44]
 195              		.loc 1 341 41 view .LVU61
 196 001e 77EE867A 		vadd.f32	s15, s15, s12
 197              		.loc 1 341 17 view .LVU62
 198 0022 1B4B     		ldr	r3, .L29+4
 199 0024 C3ED007A 		vstr.32	s15, [r3]
 342:Components/Controller/controller.c ****     if (abs(temp_Output) > pid->MaxOut)
 200              		.loc 1 342 5 is_stmt 1 view .LVU63
 201              		.loc 1 342 9 is_stmt 0 view .LVU64
 202 0028 F5EEC07A 		vcmpe.f32	s15, #0
 203 002c F1EE10FA 		vmrs	APSR_nzcv, FPSCR
 204 0030 28DD     		ble	.L28
 205              	.L16:
 206              		.loc 1 342 31 discriminator 4 view .LVU65
 207 0032 90ED106A 		vldr.32	s12, [r0, #64]
 208              		.loc 1 342 8 discriminator 4 view .LVU66
 209 0036 B4EEE76A 		vcmpe.f32	s12, s15
 210 003a F1EE10FA 		vmrs	APSR_nzcv, FPSCR
 211 003e 0AD5     		bpl	.L17
 343:Components/Controller/controller.c ****     {
 344:Components/Controller/controller.c ****         if (pid->Err * pid->Iout > 0)
 212              		.loc 1 344 9 is_stmt 1 view .LVU67
 213              		.loc 1 344 16 is_stmt 0 view .LVU68
 214 0040 D0ED067A 		vldr.32	s15, [r0, #24]
 215              		.loc 1 344 22 view .LVU69
 216 0044 66EEA76A 		vmul.f32	s13, s13, s15
 217              		.loc 1 344 12 view .LVU70
 218 0048 F5EEC06A 		vcmpe.f32	s13, #0
 219 004c F1EE10FA 		vmrs	APSR_nzcv, FPSCR
 220 0050 01DD     		ble	.L17
ARM GAS  C:\Users\86152\AppData\Local\Temp\ccrmPoSV.s 			page 11


 345:Components/Controller/controller.c ****         {
 346:Components/Controller/controller.c ****             // ????????????
 347:Components/Controller/controller.c ****             // Integral still increasing
 348:Components/Controller/controller.c ****             pid->ITerm = 0;
 221              		.loc 1 348 13 is_stmt 1 view .LVU71
 222              		.loc 1 348 24 is_stmt 0 view .LVU72
 223 0052 0023     		movs	r3, #0
 224 0054 0363     		str	r3, [r0, #48]	@ float
 225              	.L17:
 349:Components/Controller/controller.c ****         }
 350:Components/Controller/controller.c ****     }
 351:Components/Controller/controller.c **** 
 352:Components/Controller/controller.c ****     if (temp_Iout > pid->IntegralLimit)
 226              		.loc 1 352 5 is_stmt 1 view .LVU73
 227              		.loc 1 352 24 is_stmt 0 view .LVU74
 228 0056 D0ED117A 		vldr.32	s15, [r0, #68]
 229              		.loc 1 352 8 view .LVU75
 230 005a B4EEE77A 		vcmpe.f32	s14, s15
 231 005e F1EE10FA 		vmrs	APSR_nzcv, FPSCR
 232 0062 03DD     		ble	.L20
 353:Components/Controller/controller.c ****     {
 354:Components/Controller/controller.c ****         pid->ITerm = 0;
 233              		.loc 1 354 9 is_stmt 1 view .LVU76
 234              		.loc 1 354 20 is_stmt 0 view .LVU77
 235 0064 0023     		movs	r3, #0
 236 0066 0363     		str	r3, [r0, #48]	@ float
 355:Components/Controller/controller.c ****         pid->Iout = pid->IntegralLimit;
 237              		.loc 1 355 9 is_stmt 1 view .LVU78
 238              		.loc 1 355 19 is_stmt 0 view .LVU79
 239 0068 C0ED0A7A 		vstr.32	s15, [r0, #40]
 240              	.L20:
 356:Components/Controller/controller.c ****     }
 357:Components/Controller/controller.c ****     if (temp_Iout < -pid->IntegralLimit)
 241              		.loc 1 357 5 is_stmt 1 view .LVU80
 242              		.loc 1 357 21 is_stmt 0 view .LVU81
 243 006c F1EE677A 		vneg.f32	s15, s15
 244              		.loc 1 357 8 view .LVU82
 245 0070 B4EEE77A 		vcmpe.f32	s14, s15
 246 0074 F1EE10FA 		vmrs	APSR_nzcv, FPSCR
 247 0078 03D5     		bpl	.L15
 358:Components/Controller/controller.c ****     {
 359:Components/Controller/controller.c ****         pid->ITerm = 0;
 248              		.loc 1 359 9 is_stmt 1 view .LVU83
 249              		.loc 1 359 20 is_stmt 0 view .LVU84
 250 007a 0023     		movs	r3, #0
 251 007c 0363     		str	r3, [r0, #48]	@ float
 360:Components/Controller/controller.c ****         pid->Iout = -pid->IntegralLimit;
 252              		.loc 1 360 9 is_stmt 1 view .LVU85
 253              		.loc 1 360 19 is_stmt 0 view .LVU86
 254 007e C0ED0A7A 		vstr.32	s15, [r0, #40]
 255              	.L15:
 361:Components/Controller/controller.c ****     }
 362:Components/Controller/controller.c **** }
 256              		.loc 1 362 1 view .LVU87
 257 0082 7047     		bx	lr
 258              	.L28:
 342:Components/Controller/controller.c ****     {
ARM GAS  C:\Users\86152\AppData\Local\Temp\ccrmPoSV.s 			page 12


 259              		.loc 1 342 9 discriminator 2 view .LVU88
 260 0084 F1EE677A 		vneg.f32	s15, s15
 261 0088 D3E7     		b	.L16
 262              	.L30:
 263 008a 00BF     		.align	2
 264              	.L29:
 265 008c 00000000 		.word	.LANCHOR0
 266 0090 00000000 		.word	.LANCHOR1
 267              		.cfi_endproc
 268              	.LFE174:
 270              		.section	.text.f_Derivative_On_Measurement,"ax",%progbits
 271              		.align	1
 272              		.syntax unified
 273              		.thumb
 274              		.thumb_func
 276              	f_Derivative_On_Measurement:
 277              	.LVL3:
 278              	.LFB175:
 363:Components/Controller/controller.c **** 
 364:Components/Controller/controller.c **** static void f_Derivative_On_Measurement(PID_t *pid)
 365:Components/Controller/controller.c **** {
 279              		.loc 1 365 1 is_stmt 1 view -0
 280              		.cfi_startproc
 281              		@ args = 0, pretend = 0, frame = 0
 282              		@ frame_needed = 0, uses_anonymous_args = 0
 283              		@ link register save eliminated.
 366:Components/Controller/controller.c ****     if (pid->FuzzyRule == NULL)
 284              		.loc 1 366 5 view .LVU90
 285              		.loc 1 366 12 is_stmt 0 view .LVU91
 286 0000 D0F89830 		ldr	r3, [r0, #152]
 287              		.loc 1 366 8 view .LVU92
 288 0004 A3B1     		cbz	r3, .L34
 367:Components/Controller/controller.c ****     {
 368:Components/Controller/controller.c ****         // if (pid->OLS_Order > 2)
 369:Components/Controller/controller.c ****         //     pid->Dout = pid->Kd * OLS_Derivative(&pid->OLS, pid->dt, -pid->Measure);
 370:Components/Controller/controller.c ****         // else
 371:Components/Controller/controller.c ****         pid->Dout = pid->Kd * (pid->Last_Measure - pid->Measure) / pid->dt;
 372:Components/Controller/controller.c ****     }
 373:Components/Controller/controller.c ****     else
 374:Components/Controller/controller.c ****     {
 375:Components/Controller/controller.c ****         // if (pid->OLS_Order > 2)
 376:Components/Controller/controller.c ****         //     pid->Dout = (pid->Kd + pid->FuzzyRule->KdFuzzy) * OLS_Derivative(&pid->OLS, pid->dt,
 377:Components/Controller/controller.c ****         // else
 378:Components/Controller/controller.c ****         pid->Dout = (pid->Kd + pid->FuzzyRule->KdFuzzy) * (pid->Last_Measure - pid->Measure) / pid-
 289              		.loc 1 378 9 is_stmt 1 view .LVU93
 290              		.loc 1 378 25 is_stmt 0 view .LVU94
 291 0006 D0ED037A 		vldr.32	s15, [r0, #12]
 292              		.loc 1 378 46 view .LVU95
 293 000a 93ED027A 		vldr.32	s14, [r3, #8]
 294              		.loc 1 378 30 view .LVU96
 295 000e 77EE877A 		vadd.f32	s15, s15, s14
 296              		.loc 1 378 63 view .LVU97
 297 0012 90ED057A 		vldr.32	s14, [r0, #20]
 298              		.loc 1 378 83 view .LVU98
 299 0016 D0ED046A 		vldr.32	s13, [r0, #16]
 300              		.loc 1 378 78 view .LVU99
 301 001a 37EE667A 		vsub.f32	s14, s14, s13
ARM GAS  C:\Users\86152\AppData\Local\Temp\ccrmPoSV.s 			page 13


 302              		.loc 1 378 57 view .LVU100
 303 001e 67EE877A 		vmul.f32	s15, s15, s14
 304              		.loc 1 378 99 view .LVU101
 305 0022 D0ED256A 		vldr.32	s13, [r0, #148]
 306              		.loc 1 378 94 view .LVU102
 307 0026 87EEA67A 		vdiv.f32	s14, s15, s13
 308              		.loc 1 378 19 view .LVU103
 309 002a 80ED0B7A 		vstr.32	s14, [r0, #44]
 379:Components/Controller/controller.c ****     }
 380:Components/Controller/controller.c **** }
 310              		.loc 1 380 1 view .LVU104
 311 002e 7047     		bx	lr
 312              	.L34:
 371:Components/Controller/controller.c ****     }
 313              		.loc 1 371 9 is_stmt 1 view .LVU105
 371:Components/Controller/controller.c ****     }
 314              		.loc 1 371 24 is_stmt 0 view .LVU106
 315 0030 D0ED037A 		vldr.32	s15, [r0, #12]
 371:Components/Controller/controller.c ****     }
 316              		.loc 1 371 35 view .LVU107
 317 0034 90ED057A 		vldr.32	s14, [r0, #20]
 371:Components/Controller/controller.c ****     }
 318              		.loc 1 371 55 view .LVU108
 319 0038 D0ED046A 		vldr.32	s13, [r0, #16]
 371:Components/Controller/controller.c ****     }
 320              		.loc 1 371 50 view .LVU109
 321 003c 37EE667A 		vsub.f32	s14, s14, s13
 371:Components/Controller/controller.c ****     }
 322              		.loc 1 371 29 view .LVU110
 323 0040 67EE877A 		vmul.f32	s15, s15, s14
 371:Components/Controller/controller.c ****     }
 324              		.loc 1 371 71 view .LVU111
 325 0044 D0ED256A 		vldr.32	s13, [r0, #148]
 371:Components/Controller/controller.c ****     }
 326              		.loc 1 371 66 view .LVU112
 327 0048 87EEA67A 		vdiv.f32	s14, s15, s13
 371:Components/Controller/controller.c ****     }
 328              		.loc 1 371 19 view .LVU113
 329 004c 80ED0B7A 		vstr.32	s14, [r0, #44]
 330 0050 7047     		bx	lr
 331              		.cfi_endproc
 332              	.LFE175:
 334              		.section	.text.f_Derivative_Filter,"ax",%progbits
 335              		.align	1
 336              		.syntax unified
 337              		.thumb
 338              		.thumb_func
 340              	f_Derivative_Filter:
 341              	.LVL4:
 342              	.LFB176:
 381:Components/Controller/controller.c **** 
 382:Components/Controller/controller.c **** static void f_Derivative_Filter(PID_t *pid)
 383:Components/Controller/controller.c **** {
 343              		.loc 1 383 1 is_stmt 1 view -0
 344              		.cfi_startproc
 345              		@ args = 0, pretend = 0, frame = 0
 346              		@ frame_needed = 0, uses_anonymous_args = 0
ARM GAS  C:\Users\86152\AppData\Local\Temp\ccrmPoSV.s 			page 14


 347              		@ link register save eliminated.
 384:Components/Controller/controller.c ****     pid->Dout = pid->Dout * pid->dt / (pid->Derivative_LPF_RC + pid->dt) +
 348              		.loc 1 384 5 view .LVU115
 349              		.loc 1 384 20 is_stmt 0 view .LVU116
 350 0000 90ED0B6A 		vldr.32	s12, [r0, #44]
 351              		.loc 1 384 32 view .LVU117
 352 0004 D0ED257A 		vldr.32	s15, [r0, #148]
 353              		.loc 1 384 27 view .LVU118
 354 0008 26EE276A 		vmul.f32	s12, s12, s15
 355              		.loc 1 384 43 view .LVU119
 356 000c 90ED177A 		vldr.32	s14, [r0, #92]
 357              		.loc 1 384 63 view .LVU120
 358 0010 77EE877A 		vadd.f32	s15, s15, s14
 359              		.loc 1 384 37 view .LVU121
 360 0014 C6EE276A 		vdiv.f32	s13, s12, s15
 385:Components/Controller/controller.c ****                 pid->Last_Dout * pid->Derivative_LPF_RC / (pid->Derivative_LPF_RC + pid->dt);
 361              		.loc 1 385 20 view .LVU122
 362 0018 90ED0F6A 		vldr.32	s12, [r0, #60]
 363              		.loc 1 385 32 view .LVU123
 364 001c 27EE067A 		vmul.f32	s14, s14, s12
 365              		.loc 1 385 57 view .LVU124
 366 0020 87EE276A 		vdiv.f32	s12, s14, s15
 384:Components/Controller/controller.c ****     pid->Dout = pid->Dout * pid->dt / (pid->Derivative_LPF_RC + pid->dt) +
 367              		.loc 1 384 74 view .LVU125
 368 0024 76EE867A 		vadd.f32	s15, s13, s12
 384:Components/Controller/controller.c ****     pid->Dout = pid->Dout * pid->dt / (pid->Derivative_LPF_RC + pid->dt) +
 369              		.loc 1 384 15 view .LVU126
 370 0028 C0ED0B7A 		vstr.32	s15, [r0, #44]
 386:Components/Controller/controller.c **** }
 371              		.loc 1 386 1 view .LVU127
 372 002c 7047     		bx	lr
 373              		.cfi_endproc
 374              	.LFE176:
 376              		.section	.text.f_Output_Filter,"ax",%progbits
 377              		.align	1
 378              		.syntax unified
 379              		.thumb
 380              		.thumb_func
 382              	f_Output_Filter:
 383              	.LVL5:
 384              	.LFB177:
 387:Components/Controller/controller.c **** 
 388:Components/Controller/controller.c **** static void f_Output_Filter(PID_t *pid)
 389:Components/Controller/controller.c **** {
 385              		.loc 1 389 1 is_stmt 1 view -0
 386              		.cfi_startproc
 387              		@ args = 0, pretend = 0, frame = 0
 388              		@ frame_needed = 0, uses_anonymous_args = 0
 389              		@ link register save eliminated.
 390:Components/Controller/controller.c ****     pid->Output = pid->Output * pid->dt / (pid->Output_LPF_RC + pid->dt) +
 390              		.loc 1 390 5 view .LVU129
 391              		.loc 1 390 22 is_stmt 0 view .LVU130
 392 0000 90ED0D6A 		vldr.32	s12, [r0, #52]
 393              		.loc 1 390 36 view .LVU131
 394 0004 D0ED257A 		vldr.32	s15, [r0, #148]
 395              		.loc 1 390 31 view .LVU132
 396 0008 26EE276A 		vmul.f32	s12, s12, s15
ARM GAS  C:\Users\86152\AppData\Local\Temp\ccrmPoSV.s 			page 15


 397              		.loc 1 390 47 view .LVU133
 398 000c 90ED167A 		vldr.32	s14, [r0, #88]
 399              		.loc 1 390 63 view .LVU134
 400 0010 77EE877A 		vadd.f32	s15, s15, s14
 401              		.loc 1 390 41 view .LVU135
 402 0014 C6EE276A 		vdiv.f32	s13, s12, s15
 391:Components/Controller/controller.c ****                   pid->Last_Output * pid->Output_LPF_RC / (pid->Output_LPF_RC + pid->dt);
 403              		.loc 1 391 22 view .LVU136
 404 0018 90ED0E6A 		vldr.32	s12, [r0, #56]
 405              		.loc 1 391 36 view .LVU137
 406 001c 27EE067A 		vmul.f32	s14, s14, s12
 407              		.loc 1 391 57 view .LVU138
 408 0020 87EE276A 		vdiv.f32	s12, s14, s15
 390:Components/Controller/controller.c ****     pid->Output = pid->Output * pid->dt / (pid->Output_LPF_RC + pid->dt) +
 409              		.loc 1 390 74 view .LVU139
 410 0024 76EE867A 		vadd.f32	s15, s13, s12
 390:Components/Controller/controller.c ****     pid->Output = pid->Output * pid->dt / (pid->Output_LPF_RC + pid->dt) +
 411              		.loc 1 390 17 view .LVU140
 412 0028 C0ED0D7A 		vstr.32	s15, [r0, #52]
 392:Components/Controller/controller.c **** }
 413              		.loc 1 392 1 view .LVU141
 414 002c 7047     		bx	lr
 415              		.cfi_endproc
 416              	.LFE177:
 418              		.section	.text.f_Output_Limit,"ax",%progbits
 419              		.align	1
 420              		.syntax unified
 421              		.thumb
 422              		.thumb_func
 424              	f_Output_Limit:
 425              	.LVL6:
 426              	.LFB178:
 393:Components/Controller/controller.c **** 
 394:Components/Controller/controller.c **** static void f_Output_Limit(PID_t *pid)
 395:Components/Controller/controller.c **** {
 427              		.loc 1 395 1 is_stmt 1 view -0
 428              		.cfi_startproc
 429              		@ args = 0, pretend = 0, frame = 0
 430              		@ frame_needed = 0, uses_anonymous_args = 0
 431              		@ link register save eliminated.
 396:Components/Controller/controller.c ****     if (pid->Output > pid->MaxOut)
 432              		.loc 1 396 5 view .LVU143
 433              		.loc 1 396 12 is_stmt 0 view .LVU144
 434 0000 90ED0D7A 		vldr.32	s14, [r0, #52]
 435              		.loc 1 396 26 view .LVU145
 436 0004 D0ED107A 		vldr.32	s15, [r0, #64]
 437              		.loc 1 396 8 view .LVU146
 438 0008 B4EEE77A 		vcmpe.f32	s14, s15
 439 000c F1EE10FA 		vmrs	APSR_nzcv, FPSCR
 440 0010 01DD     		ble	.L38
 397:Components/Controller/controller.c ****     {
 398:Components/Controller/controller.c ****         pid->Output = pid->MaxOut;
 441              		.loc 1 398 9 is_stmt 1 view .LVU147
 442              		.loc 1 398 21 is_stmt 0 view .LVU148
 443 0012 C0ED0D7A 		vstr.32	s15, [r0, #52]
 444              	.L38:
 399:Components/Controller/controller.c ****     }
ARM GAS  C:\Users\86152\AppData\Local\Temp\ccrmPoSV.s 			page 16


 400:Components/Controller/controller.c ****     if (pid->Output < -(pid->MaxOut))
 445              		.loc 1 400 5 is_stmt 1 view .LVU149
 446              		.loc 1 400 12 is_stmt 0 view .LVU150
 447 0016 90ED0D7A 		vldr.32	s14, [r0, #52]
 448              		.loc 1 400 23 view .LVU151
 449 001a F1EE677A 		vneg.f32	s15, s15
 450              		.loc 1 400 8 view .LVU152
 451 001e B4EEE77A 		vcmpe.f32	s14, s15
 452 0022 F1EE10FA 		vmrs	APSR_nzcv, FPSCR
 453 0026 01D5     		bpl	.L37
 401:Components/Controller/controller.c ****     {
 402:Components/Controller/controller.c ****         pid->Output = -(pid->MaxOut);
 454              		.loc 1 402 9 is_stmt 1 view .LVU153
 455              		.loc 1 402 21 is_stmt 0 view .LVU154
 456 0028 C0ED0D7A 		vstr.32	s15, [r0, #52]
 457              	.L37:
 403:Components/Controller/controller.c ****     }
 404:Components/Controller/controller.c **** }
 458              		.loc 1 404 1 view .LVU155
 459 002c 7047     		bx	lr
 460              		.cfi_endproc
 461              	.LFE178:
 463              		.section	.text.f_Proportion_Limit,"ax",%progbits
 464              		.align	1
 465              		.syntax unified
 466              		.thumb
 467              		.thumb_func
 469              	f_Proportion_Limit:
 470              	.LVL7:
 471              	.LFB179:
 405:Components/Controller/controller.c **** 
 406:Components/Controller/controller.c **** static void f_Proportion_Limit(PID_t *pid)
 407:Components/Controller/controller.c **** {
 472              		.loc 1 407 1 is_stmt 1 view -0
 473              		.cfi_startproc
 474              		@ args = 0, pretend = 0, frame = 0
 475              		@ frame_needed = 0, uses_anonymous_args = 0
 476              		@ link register save eliminated.
 408:Components/Controller/controller.c ****     if (pid->Pout > pid->MaxOut)
 477              		.loc 1 408 5 view .LVU157
 478              		.loc 1 408 12 is_stmt 0 view .LVU158
 479 0000 90ED097A 		vldr.32	s14, [r0, #36]
 480              		.loc 1 408 24 view .LVU159
 481 0004 D0ED107A 		vldr.32	s15, [r0, #64]
 482              		.loc 1 408 8 view .LVU160
 483 0008 B4EEE77A 		vcmpe.f32	s14, s15
 484 000c F1EE10FA 		vmrs	APSR_nzcv, FPSCR
 485 0010 01DD     		ble	.L45
 409:Components/Controller/controller.c ****     {
 410:Components/Controller/controller.c ****         pid->Pout = pid->MaxOut;
 486              		.loc 1 410 9 is_stmt 1 view .LVU161
 487              		.loc 1 410 19 is_stmt 0 view .LVU162
 488 0012 C0ED097A 		vstr.32	s15, [r0, #36]
 489              	.L45:
 411:Components/Controller/controller.c ****     }
 412:Components/Controller/controller.c ****     if (pid->Pout < -(pid->MaxOut))
 490              		.loc 1 412 5 is_stmt 1 view .LVU163
ARM GAS  C:\Users\86152\AppData\Local\Temp\ccrmPoSV.s 			page 17


 491              		.loc 1 412 12 is_stmt 0 view .LVU164
 492 0016 90ED097A 		vldr.32	s14, [r0, #36]
 493              		.loc 1 412 21 view .LVU165
 494 001a F1EE677A 		vneg.f32	s15, s15
 495              		.loc 1 412 8 view .LVU166
 496 001e B4EEE77A 		vcmpe.f32	s14, s15
 497 0022 F1EE10FA 		vmrs	APSR_nzcv, FPSCR
 498 0026 01D5     		bpl	.L44
 413:Components/Controller/controller.c ****     {
 414:Components/Controller/controller.c ****         pid->Pout = -(pid->MaxOut);
 499              		.loc 1 414 9 is_stmt 1 view .LVU167
 500              		.loc 1 414 19 is_stmt 0 view .LVU168
 501 0028 C0ED097A 		vstr.32	s15, [r0, #36]
 502              	.L44:
 415:Components/Controller/controller.c ****     }
 416:Components/Controller/controller.c **** }
 503              		.loc 1 416 1 view .LVU169
 504 002c 7047     		bx	lr
 505              		.cfi_endproc
 506              	.LFE179:
 508              		.section	.text.f_PID_ErrorHandle,"ax",%progbits
 509              		.align	1
 510              		.syntax unified
 511              		.thumb
 512              		.thumb_func
 514              	f_PID_ErrorHandle:
 515              	.LVL8:
 516              	.LFB180:
 417:Components/Controller/controller.c **** 
 418:Components/Controller/controller.c **** // PID ERRORHandle Function
 419:Components/Controller/controller.c **** static void f_PID_ErrorHandle(PID_t *pid)
 420:Components/Controller/controller.c **** {
 517              		.loc 1 420 1 is_stmt 1 view -0
 518              		.cfi_startproc
 519              		@ args = 0, pretend = 0, frame = 0
 520              		@ frame_needed = 0, uses_anonymous_args = 0
 521              		@ link register save eliminated.
 421:Components/Controller/controller.c ****     /*Motor Blocked Handle*/
 422:Components/Controller/controller.c ****     if (pid->Output < pid->MaxOut * 0.001f || fabsf(pid->Ref) < 0.0001f)
 522              		.loc 1 422 5 view .LVU171
 523              		.loc 1 422 12 is_stmt 0 view .LVU172
 524 0000 90ED0D7A 		vldr.32	s14, [r0, #52]
 525              		.loc 1 422 26 view .LVU173
 526 0004 D0ED107A 		vldr.32	s15, [r0, #64]
 527              		.loc 1 422 35 view .LVU174
 528 0008 DFED206A 		vldr.32	s13, .L58
 529 000c 67EEA67A 		vmul.f32	s15, s15, s13
 530              		.loc 1 422 8 view .LVU175
 531 0010 B4EEE77A 		vcmpe.f32	s14, s15
 532 0014 F1EE10FA 		vmrs	APSR_nzcv, FPSCR
 533 0018 31D4     		bmi	.L51
 534              		.loc 1 422 56 discriminator 1 view .LVU176
 535 001a D0ED007A 		vldr.32	s15, [r0]
 536              		.loc 1 422 47 discriminator 1 view .LVU177
 537 001e B0EEE77A 		vabs.f32	s14, s15
 538              		.loc 1 422 44 discriminator 1 view .LVU178
 539 0022 DFED1B6A 		vldr.32	s13, .L58+4
ARM GAS  C:\Users\86152\AppData\Local\Temp\ccrmPoSV.s 			page 18


 540 0026 B4EEE67A 		vcmpe.f32	s14, s13
 541 002a F1EE10FA 		vmrs	APSR_nzcv, FPSCR
 542 002e 26D4     		bmi	.L51
 423:Components/Controller/controller.c ****         return;
 424:Components/Controller/controller.c **** 
 425:Components/Controller/controller.c ****     if ((fabsf(pid->Ref - pid->Measure) / fabsf(pid->Ref)) > 0.95f)
 543              		.loc 1 425 5 is_stmt 1 view .LVU179
 544              		.loc 1 425 30 is_stmt 0 view .LVU180
 545 0030 D0ED046A 		vldr.32	s13, [r0, #16]
 546              		.loc 1 425 25 view .LVU181
 547 0034 77EEE67A 		vsub.f32	s15, s15, s13
 548              		.loc 1 425 10 view .LVU182
 549 0038 F0EEE77A 		vabs.f32	s15, s15
 550              		.loc 1 425 41 view .LVU183
 551 003c C7EE876A 		vdiv.f32	s13, s15, s14
 552              		.loc 1 425 8 view .LVU184
 553 0040 DFED147A 		vldr.32	s15, .L58+8
 554 0044 F4EEE76A 		vcmpe.f32	s13, s15
 555 0048 F1EE10FA 		vmrs	APSR_nzcv, FPSCR
 556 004c 18DD     		ble	.L57
 426:Components/Controller/controller.c ****     {
 427:Components/Controller/controller.c ****         // Motor blocked counting
 428:Components/Controller/controller.c ****         pid->ERRORHandler.ERRORCount++;
 557              		.loc 1 428 9 is_stmt 1 view .LVU185
 558              		.loc 1 428 26 is_stmt 0 view .LVU186
 559 004e D0F8A030 		ldr	r3, [r0, #160]
 560 0052 D0F8A420 		ldr	r2, [r0, #164]
 561              		.loc 1 428 37 view .LVU187
 562 0056 0133     		adds	r3, r3, #1
 563 0058 42F10002 		adc	r2, r2, #0
 564 005c C0F8A030 		str	r3, [r0, #160]
 565 0060 C0F8A420 		str	r2, [r0, #164]
 566              	.L55:
 429:Components/Controller/controller.c ****     }
 430:Components/Controller/controller.c ****     else
 431:Components/Controller/controller.c ****     {
 432:Components/Controller/controller.c ****         pid->ERRORHandler.ERRORCount = 0;
 433:Components/Controller/controller.c ****     }
 434:Components/Controller/controller.c **** 
 435:Components/Controller/controller.c ****     if (pid->ERRORHandler.ERRORCount > 500)
 567              		.loc 1 435 5 is_stmt 1 view .LVU188
 568              		.loc 1 435 26 is_stmt 0 view .LVU189
 569 0064 D0F8A010 		ldr	r1, [r0, #160]
 570 0068 D0F8A430 		ldr	r3, [r0, #164]
 571              		.loc 1 435 8 view .LVU190
 572 006c 40F2F512 		movw	r2, #501
 573 0070 9142     		cmp	r1, r2
 574 0072 73F10003 		sbcs	r3, r3, #0
 575 0076 02D3     		bcc	.L51
 436:Components/Controller/controller.c ****     {
 437:Components/Controller/controller.c ****         // Motor blocked over 1000times
 438:Components/Controller/controller.c ****         pid->ERRORHandler.ERRORType = Motor_Blocked;
 576              		.loc 1 438 9 is_stmt 1 view .LVU191
 577              		.loc 1 438 37 is_stmt 0 view .LVU192
 578 0078 0123     		movs	r3, #1
 579 007a 80F8A830 		strb	r3, [r0, #168]
 580              	.L51:
ARM GAS  C:\Users\86152\AppData\Local\Temp\ccrmPoSV.s 			page 19


 439:Components/Controller/controller.c ****     }
 440:Components/Controller/controller.c **** }
 581              		.loc 1 440 1 view .LVU193
 582 007e 7047     		bx	lr
 583              	.L57:
 432:Components/Controller/controller.c ****     }
 584              		.loc 1 432 9 is_stmt 1 view .LVU194
 432:Components/Controller/controller.c ****     }
 585              		.loc 1 432 38 is_stmt 0 view .LVU195
 586 0080 0022     		movs	r2, #0
 587 0082 0023     		movs	r3, #0
 588 0084 C0E92823 		strd	r2, [r0, #160]
 589 0088 ECE7     		b	.L55
 590              	.L59:
 591 008a 00BF     		.align	2
 592              	.L58:
 593 008c 6F12833A 		.word	981668463
 594 0090 17B7D138 		.word	953267991
 595 0094 3333733F 		.word	1064514355
 596              		.cfi_endproc
 597              	.LFE180:
 599              		.section	.text.Fuzzy_Rule_Init,"ax",%progbits
 600              		.align	1
 601              		.global	Fuzzy_Rule_Init
 602              		.syntax unified
 603              		.thumb
 604              		.thumb_func
 606              	Fuzzy_Rule_Init:
 607              	.LVL9:
 608              	.LFB168:
  56:Components/Controller/controller.c ****     if (fuzzyRuleKp == NULL)
 609              		.loc 1 56 1 is_stmt 1 view -0
 610              		.cfi_startproc
 611              		@ args = 0, pretend = 0, frame = 0
 612              		@ frame_needed = 0, uses_anonymous_args = 0
 613              		@ link register save eliminated.
  56:Components/Controller/controller.c ****     if (fuzzyRuleKp == NULL)
 614              		.loc 1 56 1 is_stmt 0 view .LVU197
 615 0000 10B4     		push	{r4}
 616              	.LCFI0:
 617              		.cfi_def_cfa_offset 4
 618              		.cfi_offset 4, -4
  57:Components/Controller/controller.c ****         fuzzyRule->FuzzyRuleKp = FuzzyRuleKpRAW;
 619              		.loc 1 57 5 is_stmt 1 view .LVU198
  57:Components/Controller/controller.c ****         fuzzyRule->FuzzyRuleKp = FuzzyRuleKpRAW;
 620              		.loc 1 57 8 is_stmt 0 view .LVU199
 621 0002 19B3     		cbz	r1, .L72
  60:Components/Controller/controller.c ****     if (fuzzyRuleKi == NULL)
 622              		.loc 1 60 9 is_stmt 1 view .LVU200
  60:Components/Controller/controller.c ****     if (fuzzyRuleKi == NULL)
 623              		.loc 1 60 32 is_stmt 0 view .LVU201
 624 0004 4164     		str	r1, [r0, #68]
 625              	.LVL10:
 626              	.L62:
  61:Components/Controller/controller.c ****         fuzzyRule->FuzzyRuleKi = FuzzyRuleKiRAW;
 627              		.loc 1 61 5 is_stmt 1 view .LVU202
  61:Components/Controller/controller.c ****         fuzzyRule->FuzzyRuleKi = FuzzyRuleKiRAW;
ARM GAS  C:\Users\86152\AppData\Local\Temp\ccrmPoSV.s 			page 20


 628              		.loc 1 61 8 is_stmt 0 view .LVU203
 629 0006 22B3     		cbz	r2, .L73
  64:Components/Controller/controller.c ****     if (fuzzyRuleKd == NULL)
 630              		.loc 1 64 9 is_stmt 1 view .LVU204
  64:Components/Controller/controller.c ****     if (fuzzyRuleKd == NULL)
 631              		.loc 1 64 32 is_stmt 0 view .LVU205
 632 0008 8264     		str	r2, [r0, #72]
 633              	.LVL11:
 634              	.L64:
  65:Components/Controller/controller.c ****         fuzzyRule->FuzzyRuleKd = FuzzyRuleKdRAW;
 635              		.loc 1 65 5 is_stmt 1 view .LVU206
  65:Components/Controller/controller.c ****         fuzzyRule->FuzzyRuleKd = FuzzyRuleKdRAW;
 636              		.loc 1 65 8 is_stmt 0 view .LVU207
 637 000a 2BB3     		cbz	r3, .L74
  68:Components/Controller/controller.c **** 
 638              		.loc 1 68 9 is_stmt 1 view .LVU208
  68:Components/Controller/controller.c **** 
 639              		.loc 1 68 32 is_stmt 0 view .LVU209
 640 000c C364     		str	r3, [r0, #76]
 641              	.LVL12:
 642              	.L66:
  70:Components/Controller/controller.c ****     fuzzyRule->KiRatio = kiRatio;
 643              		.loc 1 70 5 is_stmt 1 view .LVU210
  70:Components/Controller/controller.c ****     fuzzyRule->KiRatio = kiRatio;
 644              		.loc 1 70 24 is_stmt 0 view .LVU211
 645 000e 80ED140A 		vstr.32	s0, [r0, #80]
  71:Components/Controller/controller.c ****     fuzzyRule->KdRatio = kdRatio;
 646              		.loc 1 71 5 is_stmt 1 view .LVU212
  71:Components/Controller/controller.c ****     fuzzyRule->KdRatio = kdRatio;
 647              		.loc 1 71 24 is_stmt 0 view .LVU213
 648 0012 C0ED150A 		vstr.32	s1, [r0, #84]
  72:Components/Controller/controller.c **** 
 649              		.loc 1 72 5 is_stmt 1 view .LVU214
  72:Components/Controller/controller.c **** 
 650              		.loc 1 72 24 is_stmt 0 view .LVU215
 651 0016 80ED161A 		vstr.32	s2, [r0, #88]
  74:Components/Controller/controller.c ****         eStep = 1;
 652              		.loc 1 74 5 is_stmt 1 view .LVU216
  74:Components/Controller/controller.c ****         eStep = 1;
 653              		.loc 1 74 8 is_stmt 0 view .LVU217
 654 001a DFED117A 		vldr.32	s15, .L75
 655 001e F4EEE71A 		vcmpe.f32	s3, s15
 656 0022 F1EE10FA 		vmrs	APSR_nzcv, FPSCR
 657 0026 01D5     		bpl	.L67
  75:Components/Controller/controller.c ****     if (ecStep < 0.00001f)
 658              		.loc 1 75 15 view .LVU218
 659 0028 F7EE001A 		vmov.f32	s3, #1.0e+0
 660              	.LVL13:
 661              	.L67:
  76:Components/Controller/controller.c ****         ecStep = 1;
 662              		.loc 1 76 5 is_stmt 1 view .LVU219
  76:Components/Controller/controller.c ****         ecStep = 1;
 663              		.loc 1 76 8 is_stmt 0 view .LVU220
 664 002c DFED0C7A 		vldr.32	s15, .L75
 665 0030 B4EEE72A 		vcmpe.f32	s4, s15
 666 0034 F1EE10FA 		vmrs	APSR_nzcv, FPSCR
 667 0038 01D5     		bpl	.L68
ARM GAS  C:\Users\86152\AppData\Local\Temp\ccrmPoSV.s 			page 21


  77:Components/Controller/controller.c ****     fuzzyRule->eStep = eStep;
 668              		.loc 1 77 16 view .LVU221
 669 003a B7EE002A 		vmov.f32	s4, #1.0e+0
 670              	.LVL14:
 671              	.L68:
  78:Components/Controller/controller.c ****     fuzzyRule->ecStep = ecStep;
 672              		.loc 1 78 5 is_stmt 1 view .LVU222
  78:Components/Controller/controller.c ****     fuzzyRule->ecStep = ecStep;
 673              		.loc 1 78 22 is_stmt 0 view .LVU223
 674 003e C0ED171A 		vstr.32	s3, [r0, #92]
  79:Components/Controller/controller.c **** }
 675              		.loc 1 79 5 is_stmt 1 view .LVU224
  79:Components/Controller/controller.c **** }
 676              		.loc 1 79 23 is_stmt 0 view .LVU225
 677 0042 80ED182A 		vstr.32	s4, [r0, #96]
  80:Components/Controller/controller.c **** void Fuzzy_Rule_Implementation(FuzzyRule_t *fuzzyRule, float measure, float ref)
 678              		.loc 1 80 1 view .LVU226
 679 0046 5DF8044B 		ldr	r4, [sp], #4
 680              	.LCFI1:
 681              		.cfi_remember_state
 682              		.cfi_restore 4
 683              		.cfi_def_cfa_offset 0
 684 004a 7047     		bx	lr
 685              	.LVL15:
 686              	.L72:
 687              	.LCFI2:
 688              		.cfi_restore_state
  58:Components/Controller/controller.c ****     else
 689              		.loc 1 58 9 is_stmt 1 view .LVU227
  58:Components/Controller/controller.c ****     else
 690              		.loc 1 58 32 is_stmt 0 view .LVU228
 691 004c 0549     		ldr	r1, .L75+4
 692              	.LVL16:
  58:Components/Controller/controller.c ****     else
 693              		.loc 1 58 32 view .LVU229
 694 004e 4164     		str	r1, [r0, #68]
 695 0050 D9E7     		b	.L62
 696              	.L73:
  62:Components/Controller/controller.c ****     else
 697              		.loc 1 62 9 is_stmt 1 view .LVU230
  62:Components/Controller/controller.c ****     else
 698              		.loc 1 62 32 is_stmt 0 view .LVU231
 699 0052 054A     		ldr	r2, .L75+8
 700              	.LVL17:
  62:Components/Controller/controller.c ****     else
 701              		.loc 1 62 32 view .LVU232
 702 0054 8264     		str	r2, [r0, #72]
 703 0056 D8E7     		b	.L64
 704              	.L74:
  66:Components/Controller/controller.c ****     else
 705              		.loc 1 66 9 is_stmt 1 view .LVU233
  66:Components/Controller/controller.c ****     else
 706              		.loc 1 66 32 is_stmt 0 view .LVU234
 707 0058 044B     		ldr	r3, .L75+12
 708              	.LVL18:
  66:Components/Controller/controller.c ****     else
 709              		.loc 1 66 32 view .LVU235
ARM GAS  C:\Users\86152\AppData\Local\Temp\ccrmPoSV.s 			page 22


 710 005a C364     		str	r3, [r0, #76]
 711 005c D7E7     		b	.L66
 712              	.L76:
 713 005e 00BF     		.align	2
 714              	.L75:
 715 0060 ACC52737 		.word	925353388
 716 0064 00000000 		.word	.LANCHOR2
 717 0068 00000000 		.word	.LANCHOR3
 718 006c 00000000 		.word	.LANCHOR4
 719              		.cfi_endproc
 720              	.LFE168:
 722              		.section	.text.Fuzzy_Rule_Implementation,"ax",%progbits
 723              		.align	1
 724              		.global	Fuzzy_Rule_Implementation
 725              		.syntax unified
 726              		.thumb
 727              		.thumb_func
 729              	Fuzzy_Rule_Implementation:
 730              	.LVL19:
 731              	.LFB169:
  82:Components/Controller/controller.c ****     float eLeftTemp, ecLeftTemp;
 732              		.loc 1 82 1 is_stmt 1 view -0
 733              		.cfi_startproc
 734              		@ args = 0, pretend = 0, frame = 0
 735              		@ frame_needed = 0, uses_anonymous_args = 0
  82:Components/Controller/controller.c ****     float eLeftTemp, ecLeftTemp;
 736              		.loc 1 82 1 is_stmt 0 view .LVU237
 737 0000 38B5     		push	{r3, r4, r5, lr}
 738              	.LCFI3:
 739              		.cfi_def_cfa_offset 16
 740              		.cfi_offset 3, -16
 741              		.cfi_offset 4, -12
 742              		.cfi_offset 5, -8
 743              		.cfi_offset 14, -4
 744 0002 2DED028B 		vpush.64	{d8}
 745              	.LCFI4:
 746              		.cfi_def_cfa_offset 24
 747              		.cfi_offset 80, -24
 748              		.cfi_offset 81, -20
 749 0006 0446     		mov	r4, r0
 750 0008 B0EE408A 		vmov.f32	s16, s0
 751 000c F0EE608A 		vmov.f32	s17, s1
  83:Components/Controller/controller.c ****     float eRightTemp, ecRightTemp;
 752              		.loc 1 83 5 is_stmt 1 view .LVU238
  84:Components/Controller/controller.c ****     int eLeftIndex, ecLeftIndex;
 753              		.loc 1 84 5 view .LVU239
  85:Components/Controller/controller.c ****     int eRightIndex, ecRightIndex;
 754              		.loc 1 85 5 view .LVU240
  86:Components/Controller/controller.c **** 
 755              		.loc 1 86 5 view .LVU241
  88:Components/Controller/controller.c **** 
 756              		.loc 1 88 5 view .LVU242
  88:Components/Controller/controller.c **** 
 757              		.loc 1 88 21 is_stmt 0 view .LVU243
 758 0010 7030     		adds	r0, r0, #112
 759              	.LVL20:
  88:Components/Controller/controller.c **** 
ARM GAS  C:\Users\86152\AppData\Local\Temp\ccrmPoSV.s 			page 23


 760              		.loc 1 88 21 view .LVU244
 761 0012 FFF7FEFF 		bl	DWT_GetDeltaT
 762              	.LVL21:
  88:Components/Controller/controller.c **** 
 763              		.loc 1 88 19 view .LVU245
 764 0016 84ED1D0A 		vstr.32	s0, [r4, #116]
  90:Components/Controller/controller.c ****     fuzzyRule->ec = (fuzzyRule->e - fuzzyRule->eLast) / fuzzyRule->dt; //
 765              		.loc 1 90 5 is_stmt 1 view .LVU246
  90:Components/Controller/controller.c ****     fuzzyRule->ec = (fuzzyRule->e - fuzzyRule->eLast) / fuzzyRule->dt; //
 766              		.loc 1 90 24 is_stmt 0 view .LVU247
 767 001a 78EEC80A 		vsub.f32	s1, s17, s16
  90:Components/Controller/controller.c ****     fuzzyRule->ec = (fuzzyRule->e - fuzzyRule->eLast) / fuzzyRule->dt; //
 768              		.loc 1 90 18 view .LVU248
 769 001e C4ED190A 		vstr.32	s1, [r4, #100]
  91:Components/Controller/controller.c ****     fuzzyRule->eLast = fuzzyRule->e;
 770              		.loc 1 91 5 is_stmt 1 view .LVU249
  91:Components/Controller/controller.c ****     fuzzyRule->eLast = fuzzyRule->e;
 771              		.loc 1 91 46 is_stmt 0 view .LVU250
 772 0022 D4ED1B7A 		vldr.32	s15, [r4, #108]
  91:Components/Controller/controller.c ****     fuzzyRule->eLast = fuzzyRule->e;
 773              		.loc 1 91 35 view .LVU251
 774 0026 70EEE77A 		vsub.f32	s15, s1, s15
  91:Components/Controller/controller.c ****     fuzzyRule->eLast = fuzzyRule->e;
 775              		.loc 1 91 55 view .LVU252
 776 002a 87EE804A 		vdiv.f32	s8, s15, s0
  91:Components/Controller/controller.c ****     fuzzyRule->eLast = fuzzyRule->e;
 777              		.loc 1 91 19 view .LVU253
 778 002e 84ED1A4A 		vstr.32	s8, [r4, #104]
  92:Components/Controller/controller.c **** 
 779              		.loc 1 92 5 is_stmt 1 view .LVU254
  92:Components/Controller/controller.c **** 
 780              		.loc 1 92 22 is_stmt 0 view .LVU255
 781 0032 C4ED1B0A 		vstr.32	s1, [r4, #108]
  95:Components/Controller/controller.c ****     eRightIndex = fuzzyRule->e >= 3 * fuzzyRule->eStep ? 6 : (fuzzyRule->e <= -3 * fuzzyRule->eStep
 782              		.loc 1 95 5 is_stmt 1 view .LVU256
  95:Components/Controller/controller.c ****     eRightIndex = fuzzyRule->e >= 3 * fuzzyRule->eStep ? 6 : (fuzzyRule->e <= -3 * fuzzyRule->eStep
 783              		.loc 1 95 47 is_stmt 0 view .LVU257
 784 0036 D4ED175A 		vldr.32	s11, [r4, #92]
  95:Components/Controller/controller.c ****     eRightIndex = fuzzyRule->e >= 3 * fuzzyRule->eStep ? 6 : (fuzzyRule->e <= -3 * fuzzyRule->eStep
 785              		.loc 1 95 36 view .LVU258
 786 003a F0EE086A 		vmov.f32	s13, #3.0e+0
 787 003e 65EEA66A 		vmul.f32	s13, s11, s13
  95:Components/Controller/controller.c ****     eRightIndex = fuzzyRule->e >= 3 * fuzzyRule->eStep ? 6 : (fuzzyRule->e <= -3 * fuzzyRule->eStep
 788              		.loc 1 95 59 view .LVU259
 789 0042 F4EEE60A 		vcmpe.f32	s1, s13
 790 0046 F1EE10FA 		vmrs	APSR_nzcv, FPSCR
 791 004a 1DDA     		bge	.L94
  95:Components/Controller/controller.c ****     eRightIndex = fuzzyRule->e >= 3 * fuzzyRule->eStep ? 6 : (fuzzyRule->e <= -3 * fuzzyRule->eStep
 792              		.loc 1 95 81 discriminator 2 view .LVU260
 793 004c F8EE087A 		vmov.f32	s15, #-3.0e+0
 794 0050 65EEA77A 		vmul.f32	s15, s11, s15
  95:Components/Controller/controller.c ****     eRightIndex = fuzzyRule->e >= 3 * fuzzyRule->eStep ? 6 : (fuzzyRule->e <= -3 * fuzzyRule->eStep
 795              		.loc 1 95 104 discriminator 2 view .LVU261
 796 0054 F4EEE70A 		vcmpe.f32	s1, s15
 797 0058 F1EE10FA 		vmrs	APSR_nzcv, FPSCR
 798 005c 31D9     		bls	.L95
  95:Components/Controller/controller.c ****     eRightIndex = fuzzyRule->e >= 3 * fuzzyRule->eStep ? 6 : (fuzzyRule->e <= -3 * fuzzyRule->eStep
ARM GAS  C:\Users\86152\AppData\Local\Temp\ccrmPoSV.s 			page 24


 799              		.loc 1 95 172 discriminator 5 view .LVU262
 800 005e F5EEC00A 		vcmpe.f32	s1, #0
 801 0062 F1EE10FA 		vmrs	APSR_nzcv, FPSCR
 802 0066 07DB     		blt	.L114
  95:Components/Controller/controller.c ****     eRightIndex = fuzzyRule->e >= 3 * fuzzyRule->eStep ? 6 : (fuzzyRule->e <= -3 * fuzzyRule->eStep
 803              		.loc 1 95 147 discriminator 7 view .LVU263
 804 0068 C0EEA57A 		vdiv.f32	s15, s1, s11
  95:Components/Controller/controller.c ****     eRightIndex = fuzzyRule->e >= 3 * fuzzyRule->eStep ? 6 : (fuzzyRule->e <= -3 * fuzzyRule->eStep
 805              		.loc 1 95 128 discriminator 7 view .LVU264
 806 006c FDEEE77A 		vcvt.s32.f32	s15, s15
 807 0070 17EE902A 		vmov	r2, s15	@ int
  95:Components/Controller/controller.c ****     eRightIndex = fuzzyRule->e >= 3 * fuzzyRule->eStep ? 6 : (fuzzyRule->e <= -3 * fuzzyRule->eStep
 808              		.loc 1 95 172 discriminator 7 view .LVU265
 809 0074 0332     		adds	r2, r2, #3
 810 0076 08E0     		b	.L78
 811              	.L114:
  95:Components/Controller/controller.c ****     eRightIndex = fuzzyRule->e >= 3 * fuzzyRule->eStep ? 6 : (fuzzyRule->e <= -3 * fuzzyRule->eStep
 812              		.loc 1 95 194 discriminator 8 view .LVU266
 813 0078 C0EEA57A 		vdiv.f32	s15, s1, s11
  95:Components/Controller/controller.c ****     eRightIndex = fuzzyRule->e >= 3 * fuzzyRule->eStep ? 6 : (fuzzyRule->e <= -3 * fuzzyRule->eStep
 814              		.loc 1 95 175 discriminator 8 view .LVU267
 815 007c FDEEE77A 		vcvt.s32.f32	s15, s15
 816 0080 17EE902A 		vmov	r2, s15	@ int
  95:Components/Controller/controller.c ****     eRightIndex = fuzzyRule->e >= 3 * fuzzyRule->eStep ? 6 : (fuzzyRule->e <= -3 * fuzzyRule->eStep
 817              		.loc 1 95 172 discriminator 8 view .LVU268
 818 0084 0232     		adds	r2, r2, #2
 819 0086 00E0     		b	.L78
 820              	.L94:
  95:Components/Controller/controller.c ****     eRightIndex = fuzzyRule->e >= 3 * fuzzyRule->eStep ? 6 : (fuzzyRule->e <= -3 * fuzzyRule->eStep
 821              		.loc 1 95 59 view .LVU269
 822 0088 0622     		movs	r2, #6
 823              	.L78:
 824              	.LVL22:
  96:Components/Controller/controller.c ****     ecLeftIndex = fuzzyRule->ec >= 3 * fuzzyRule->ecStep ? 6 : (fuzzyRule->ec <= -3 * fuzzyRule->ec
 825              		.loc 1 96 5 is_stmt 1 discriminator 12 view .LVU270
  96:Components/Controller/controller.c ****     ecLeftIndex = fuzzyRule->ec >= 3 * fuzzyRule->ecStep ? 6 : (fuzzyRule->ec <= -3 * fuzzyRule->ec
 826              		.loc 1 96 60 is_stmt 0 discriminator 12 view .LVU271
 827 008a F4EEE60A 		vcmpe.f32	s1, s13
 828 008e F1EE10FA 		vmrs	APSR_nzcv, FPSCR
 829 0092 21DA     		bge	.L96
  96:Components/Controller/controller.c ****     ecLeftIndex = fuzzyRule->ec >= 3 * fuzzyRule->ecStep ? 6 : (fuzzyRule->ec <= -3 * fuzzyRule->ec
 830              		.loc 1 96 82 discriminator 2 view .LVU272
 831 0094 F8EE087A 		vmov.f32	s15, #-3.0e+0
 832 0098 65EEA77A 		vmul.f32	s15, s11, s15
  96:Components/Controller/controller.c ****     ecLeftIndex = fuzzyRule->ec >= 3 * fuzzyRule->ecStep ? 6 : (fuzzyRule->ec <= -3 * fuzzyRule->ec
 833              		.loc 1 96 105 discriminator 2 view .LVU273
 834 009c F4EEE70A 		vcmpe.f32	s1, s15
 835 00a0 F1EE10FA 		vmrs	APSR_nzcv, FPSCR
 836 00a4 3BD9     		bls	.L97
  96:Components/Controller/controller.c ****     ecLeftIndex = fuzzyRule->ec >= 3 * fuzzyRule->ecStep ? 6 : (fuzzyRule->ec <= -3 * fuzzyRule->ec
 837              		.loc 1 96 173 discriminator 5 view .LVU274
 838 00a6 F5EEC00A 		vcmpe.f32	s1, #0
 839 00aa F1EE10FA 		vmrs	APSR_nzcv, FPSCR
 840 00ae 0ADB     		blt	.L115
  96:Components/Controller/controller.c ****     ecLeftIndex = fuzzyRule->ec >= 3 * fuzzyRule->ecStep ? 6 : (fuzzyRule->ec <= -3 * fuzzyRule->ec
 841              		.loc 1 96 148 discriminator 7 view .LVU275
 842 00b0 C0EEA57A 		vdiv.f32	s15, s1, s11
ARM GAS  C:\Users\86152\AppData\Local\Temp\ccrmPoSV.s 			page 25


  96:Components/Controller/controller.c ****     ecLeftIndex = fuzzyRule->ec >= 3 * fuzzyRule->ecStep ? 6 : (fuzzyRule->ec <= -3 * fuzzyRule->ec
 843              		.loc 1 96 129 discriminator 7 view .LVU276
 844 00b4 FDEEE77A 		vcvt.s32.f32	s15, s15
 845 00b8 17EE90EA 		vmov	lr, s15	@ int
  96:Components/Controller/controller.c ****     ecLeftIndex = fuzzyRule->ec >= 3 * fuzzyRule->ecStep ? 6 : (fuzzyRule->ec <= -3 * fuzzyRule->ec
 846              		.loc 1 96 173 discriminator 7 view .LVU277
 847 00bc 0EF1040E 		add	lr, lr, #4
 848 00c0 0CE0     		b	.L81
 849              	.LVL23:
 850              	.L95:
  95:Components/Controller/controller.c ****     eRightIndex = fuzzyRule->e >= 3 * fuzzyRule->eStep ? 6 : (fuzzyRule->e <= -3 * fuzzyRule->eStep
 851              		.loc 1 95 104 view .LVU278
 852 00c2 0022     		movs	r2, #0
 853 00c4 E1E7     		b	.L78
 854              	.LVL24:
 855              	.L115:
  96:Components/Controller/controller.c ****     ecLeftIndex = fuzzyRule->ec >= 3 * fuzzyRule->ecStep ? 6 : (fuzzyRule->ec <= -3 * fuzzyRule->ec
 856              		.loc 1 96 195 discriminator 8 view .LVU279
 857 00c6 C0EEA57A 		vdiv.f32	s15, s1, s11
  96:Components/Controller/controller.c ****     ecLeftIndex = fuzzyRule->ec >= 3 * fuzzyRule->ecStep ? 6 : (fuzzyRule->ec <= -3 * fuzzyRule->ec
 858              		.loc 1 96 176 discriminator 8 view .LVU280
 859 00ca FDEEE77A 		vcvt.s32.f32	s15, s15
 860 00ce 17EE90EA 		vmov	lr, s15	@ int
  96:Components/Controller/controller.c ****     ecLeftIndex = fuzzyRule->ec >= 3 * fuzzyRule->ecStep ? 6 : (fuzzyRule->ec <= -3 * fuzzyRule->ec
 861              		.loc 1 96 173 discriminator 8 view .LVU281
 862 00d2 0EF1030E 		add	lr, lr, #3
 863 00d6 01E0     		b	.L81
 864              	.L96:
  96:Components/Controller/controller.c ****     ecLeftIndex = fuzzyRule->ec >= 3 * fuzzyRule->ecStep ? 6 : (fuzzyRule->ec <= -3 * fuzzyRule->ec
 865              		.loc 1 96 60 view .LVU282
 866 00d8 4FF0060E 		mov	lr, #6
 867              	.L81:
 868              	.LVL25:
  97:Components/Controller/controller.c ****     ecRightIndex = fuzzyRule->ec >= 3 * fuzzyRule->ecStep ? 6 : (fuzzyRule->ec <= -3 * fuzzyRule->e
 869              		.loc 1 97 5 is_stmt 1 discriminator 12 view .LVU283
  97:Components/Controller/controller.c ****     ecRightIndex = fuzzyRule->ec >= 3 * fuzzyRule->ecStep ? 6 : (fuzzyRule->ec <= -3 * fuzzyRule->e
 870              		.loc 1 97 49 is_stmt 0 discriminator 12 view .LVU284
 871 00dc D4ED183A 		vldr.32	s7, [r4, #96]
  97:Components/Controller/controller.c ****     ecRightIndex = fuzzyRule->ec >= 3 * fuzzyRule->ecStep ? 6 : (fuzzyRule->ec <= -3 * fuzzyRule->e
 872              		.loc 1 97 38 discriminator 12 view .LVU285
 873 00e0 B0EE087A 		vmov.f32	s14, #3.0e+0
 874 00e4 23EE877A 		vmul.f32	s14, s7, s14
  97:Components/Controller/controller.c ****     ecRightIndex = fuzzyRule->ec >= 3 * fuzzyRule->ecStep ? 6 : (fuzzyRule->ec <= -3 * fuzzyRule->e
 875              		.loc 1 97 62 discriminator 12 view .LVU286
 876 00e8 B4EEC74A 		vcmpe.f32	s8, s14
 877 00ec F1EE10FA 		vmrs	APSR_nzcv, FPSCR
 878 00f0 20DA     		bge	.L98
  97:Components/Controller/controller.c ****     ecRightIndex = fuzzyRule->ec >= 3 * fuzzyRule->ecStep ? 6 : (fuzzyRule->ec <= -3 * fuzzyRule->e
 879              		.loc 1 97 85 discriminator 2 view .LVU287
 880 00f2 F8EE087A 		vmov.f32	s15, #-3.0e+0
 881 00f6 63EEA77A 		vmul.f32	s15, s7, s15
  97:Components/Controller/controller.c ****     ecRightIndex = fuzzyRule->ec >= 3 * fuzzyRule->ecStep ? 6 : (fuzzyRule->ec <= -3 * fuzzyRule->e
 882              		.loc 1 97 109 discriminator 2 view .LVU288
 883 00fa B4EEE74A 		vcmpe.f32	s8, s15
 884 00fe F1EE10FA 		vmrs	APSR_nzcv, FPSCR
 885 0102 34D9     		bls	.L99
  97:Components/Controller/controller.c ****     ecRightIndex = fuzzyRule->ec >= 3 * fuzzyRule->ecStep ? 6 : (fuzzyRule->ec <= -3 * fuzzyRule->e
ARM GAS  C:\Users\86152\AppData\Local\Temp\ccrmPoSV.s 			page 26


 886              		.loc 1 97 180 discriminator 5 view .LVU289
 887 0104 B5EEC04A 		vcmpe.f32	s8, #0
 888 0108 F1EE10FA 		vmrs	APSR_nzcv, FPSCR
 889 010c 0ADB     		blt	.L116
  97:Components/Controller/controller.c ****     ecRightIndex = fuzzyRule->ec >= 3 * fuzzyRule->ecStep ? 6 : (fuzzyRule->ec <= -3 * fuzzyRule->e
 890              		.loc 1 97 154 discriminator 7 view .LVU290
 891 010e C4EE237A 		vdiv.f32	s15, s8, s7
  97:Components/Controller/controller.c ****     ecRightIndex = fuzzyRule->ec >= 3 * fuzzyRule->ecStep ? 6 : (fuzzyRule->ec <= -3 * fuzzyRule->e
 892              		.loc 1 97 134 discriminator 7 view .LVU291
 893 0112 FDEEE77A 		vcvt.s32.f32	s15, s15
 894 0116 17EE903A 		vmov	r3, s15	@ int
  97:Components/Controller/controller.c ****     ecRightIndex = fuzzyRule->ec >= 3 * fuzzyRule->ecStep ? 6 : (fuzzyRule->ec <= -3 * fuzzyRule->e
 895              		.loc 1 97 180 discriminator 7 view .LVU292
 896 011a 0333     		adds	r3, r3, #3
 897 011c 0BE0     		b	.L84
 898              	.LVL26:
 899              	.L97:
  96:Components/Controller/controller.c ****     ecLeftIndex = fuzzyRule->ec >= 3 * fuzzyRule->ecStep ? 6 : (fuzzyRule->ec <= -3 * fuzzyRule->ec
 900              		.loc 1 96 105 view .LVU293
 901 011e 4FF0000E 		mov	lr, #0
 902 0122 DBE7     		b	.L81
 903              	.LVL27:
 904              	.L116:
  97:Components/Controller/controller.c ****     ecRightIndex = fuzzyRule->ec >= 3 * fuzzyRule->ecStep ? 6 : (fuzzyRule->ec <= -3 * fuzzyRule->e
 905              		.loc 1 97 203 discriminator 8 view .LVU294
 906 0124 C4EE237A 		vdiv.f32	s15, s8, s7
  97:Components/Controller/controller.c ****     ecRightIndex = fuzzyRule->ec >= 3 * fuzzyRule->ecStep ? 6 : (fuzzyRule->ec <= -3 * fuzzyRule->e
 907              		.loc 1 97 183 discriminator 8 view .LVU295
 908 0128 FDEEE77A 		vcvt.s32.f32	s15, s15
 909 012c 17EE903A 		vmov	r3, s15	@ int
  97:Components/Controller/controller.c ****     ecRightIndex = fuzzyRule->ec >= 3 * fuzzyRule->ecStep ? 6 : (fuzzyRule->ec <= -3 * fuzzyRule->e
 910              		.loc 1 97 180 discriminator 8 view .LVU296
 911 0130 0233     		adds	r3, r3, #2
 912 0132 00E0     		b	.L84
 913              	.L98:
  97:Components/Controller/controller.c ****     ecRightIndex = fuzzyRule->ec >= 3 * fuzzyRule->ecStep ? 6 : (fuzzyRule->ec <= -3 * fuzzyRule->e
 914              		.loc 1 97 62 view .LVU297
 915 0134 0623     		movs	r3, #6
 916              	.L84:
 917              	.LVL28:
  98:Components/Controller/controller.c **** 
 918              		.loc 1 98 5 is_stmt 1 discriminator 12 view .LVU298
  98:Components/Controller/controller.c **** 
 919              		.loc 1 98 63 is_stmt 0 discriminator 12 view .LVU299
 920 0136 B4EEC74A 		vcmpe.f32	s8, s14
 921 013a F1EE10FA 		vmrs	APSR_nzcv, FPSCR
 922 013e 21DA     		bge	.L100
  98:Components/Controller/controller.c **** 
 923              		.loc 1 98 86 discriminator 2 view .LVU300
 924 0140 F8EE087A 		vmov.f32	s15, #-3.0e+0
 925 0144 63EEA77A 		vmul.f32	s15, s7, s15
  98:Components/Controller/controller.c **** 
 926              		.loc 1 98 110 discriminator 2 view .LVU301
 927 0148 B4EEE74A 		vcmpe.f32	s8, s15
 928 014c F1EE10FA 		vmrs	APSR_nzcv, FPSCR
 929 0150 35D9     		bls	.L101
  98:Components/Controller/controller.c **** 
ARM GAS  C:\Users\86152\AppData\Local\Temp\ccrmPoSV.s 			page 27


 930              		.loc 1 98 181 discriminator 5 view .LVU302
 931 0152 B5EEC04A 		vcmpe.f32	s8, #0
 932 0156 F1EE10FA 		vmrs	APSR_nzcv, FPSCR
 933 015a 0ADB     		blt	.L117
  98:Components/Controller/controller.c **** 
 934              		.loc 1 98 155 discriminator 7 view .LVU303
 935 015c C4EE237A 		vdiv.f32	s15, s8, s7
  98:Components/Controller/controller.c **** 
 936              		.loc 1 98 135 discriminator 7 view .LVU304
 937 0160 FDEEE77A 		vcvt.s32.f32	s15, s15
 938 0164 17EE901A 		vmov	r1, s15	@ int
  98:Components/Controller/controller.c **** 
 939              		.loc 1 98 181 discriminator 7 view .LVU305
 940 0168 01F1040C 		add	ip, r1, #4
 941 016c 0CE0     		b	.L87
 942              	.LVL29:
 943              	.L99:
  97:Components/Controller/controller.c ****     ecRightIndex = fuzzyRule->ec >= 3 * fuzzyRule->ecStep ? 6 : (fuzzyRule->ec <= -3 * fuzzyRule->e
 944              		.loc 1 97 109 view .LVU306
 945 016e 0023     		movs	r3, #0
 946 0170 E1E7     		b	.L84
 947              	.LVL30:
 948              	.L117:
  98:Components/Controller/controller.c **** 
 949              		.loc 1 98 204 discriminator 8 view .LVU307
 950 0172 C4EE237A 		vdiv.f32	s15, s8, s7
  98:Components/Controller/controller.c **** 
 951              		.loc 1 98 184 discriminator 8 view .LVU308
 952 0176 FDEEE77A 		vcvt.s32.f32	s15, s15
 953 017a 17EE901A 		vmov	r1, s15	@ int
  98:Components/Controller/controller.c **** 
 954              		.loc 1 98 181 discriminator 8 view .LVU309
 955 017e 01F1030C 		add	ip, r1, #3
 956 0182 01E0     		b	.L87
 957              	.L100:
  98:Components/Controller/controller.c **** 
 958              		.loc 1 98 63 view .LVU310
 959 0184 4FF0060C 		mov	ip, #6
 960              	.L87:
 961              	.LVL31:
 104:Components/Controller/controller.c ****     eRightTemp = fuzzyRule->e >= 3 * fuzzyRule->eStep ? 1 : (fuzzyRule->e <= -3 * fuzzyRule->eStep 
 962              		.loc 1 104 5 is_stmt 1 discriminator 12 view .LVU311
 104:Components/Controller/controller.c ****     eRightTemp = fuzzyRule->e >= 3 * fuzzyRule->eStep ? 1 : (fuzzyRule->e <= -3 * fuzzyRule->eStep 
 963              		.loc 1 104 58 is_stmt 0 discriminator 12 view .LVU312
 964 0188 F4EEE60A 		vcmpe.f32	s1, s13
 965 018c F1EE10FA 		vmrs	APSR_nzcv, FPSCR
 966 0190 18DA     		bge	.L102
 104:Components/Controller/controller.c ****     eRightTemp = fuzzyRule->e >= 3 * fuzzyRule->eStep ? 1 : (fuzzyRule->e <= -3 * fuzzyRule->eStep 
 967              		.loc 1 104 80 discriminator 2 view .LVU313
 968 0192 F8EE087A 		vmov.f32	s15, #-3.0e+0
 969 0196 65EEA77A 		vmul.f32	s15, s11, s15
 104:Components/Controller/controller.c ****     eRightTemp = fuzzyRule->e >= 3 * fuzzyRule->eStep ? 1 : (fuzzyRule->e <= -3 * fuzzyRule->eStep 
 970              		.loc 1 104 103 discriminator 2 view .LVU314
 971 019a F4EEE70A 		vcmpe.f32	s1, s15
 972 019e F1EE10FA 		vmrs	APSR_nzcv, FPSCR
 973 01a2 2CD9     		bls	.L103
 104:Components/Controller/controller.c ****     eRightTemp = fuzzyRule->e >= 3 * fuzzyRule->eStep ? 1 : (fuzzyRule->e <= -3 * fuzzyRule->eStep 
ARM GAS  C:\Users\86152\AppData\Local\Temp\ccrmPoSV.s 			page 28


 974              		.loc 1 104 133 discriminator 5 view .LVU315
 975 01a4 C0EEA54A 		vdiv.f32	s9, s1, s11
 104:Components/Controller/controller.c ****     eRightTemp = fuzzyRule->e >= 3 * fuzzyRule->eStep ? 1 : (fuzzyRule->e <= -3 * fuzzyRule->eStep 
 976              		.loc 1 104 118 discriminator 5 view .LVU316
 977 01a8 07EE90EA 		vmov	s15, lr	@ int
 978 01ac F8EEE77A 		vcvt.f32.s32	s15, s15
 979 01b0 77EEE44A 		vsub.f32	s9, s15, s9
 104:Components/Controller/controller.c ****     eRightTemp = fuzzyRule->e >= 3 * fuzzyRule->eStep ? 1 : (fuzzyRule->e <= -3 * fuzzyRule->eStep 
 980              		.loc 1 104 103 discriminator 5 view .LVU317
 981 01b4 B0EE086A 		vmov.f32	s12, #3.0e+0
 982 01b8 74EEC64A 		vsub.f32	s9, s9, s12
 983 01bc 04E0     		b	.L90
 984              	.LVL32:
 985              	.L101:
  98:Components/Controller/controller.c **** 
 986              		.loc 1 98 110 view .LVU318
 987 01be 4FF0000C 		mov	ip, #0
 988 01c2 E1E7     		b	.L87
 989              	.LVL33:
 990              	.L102:
 104:Components/Controller/controller.c ****     eRightTemp = fuzzyRule->e >= 3 * fuzzyRule->eStep ? 1 : (fuzzyRule->e <= -3 * fuzzyRule->eStep 
 991              		.loc 1 104 58 view .LVU319
 992 01c4 DFED804A 		vldr.32	s9, .L119
 993              	.L90:
 994              	.LVL34:
 105:Components/Controller/controller.c ****     ecLeftTemp = fuzzyRule->ec >= 3 * fuzzyRule->ecStep ? 0 : (fuzzyRule->ec <= -3 * fuzzyRule->ecS
 995              		.loc 1 105 5 is_stmt 1 discriminator 8 view .LVU320
 105:Components/Controller/controller.c ****     ecLeftTemp = fuzzyRule->ec >= 3 * fuzzyRule->ecStep ? 0 : (fuzzyRule->ec <= -3 * fuzzyRule->ecS
 996              		.loc 1 105 59 is_stmt 0 discriminator 8 view .LVU321
 997 01c8 F4EEE60A 		vcmpe.f32	s1, s13
 998 01cc F1EE10FA 		vmrs	APSR_nzcv, FPSCR
 999 01d0 18DA     		bge	.L104
 105:Components/Controller/controller.c ****     ecLeftTemp = fuzzyRule->ec >= 3 * fuzzyRule->ecStep ? 0 : (fuzzyRule->ec <= -3 * fuzzyRule->ecS
 1000              		.loc 1 105 81 discriminator 2 view .LVU322
 1001 01d2 F8EE087A 		vmov.f32	s15, #-3.0e+0
 1002 01d6 65EEA77A 		vmul.f32	s15, s11, s15
 105:Components/Controller/controller.c ****     ecLeftTemp = fuzzyRule->ec >= 3 * fuzzyRule->ecStep ? 0 : (fuzzyRule->ec <= -3 * fuzzyRule->ecS
 1003              		.loc 1 105 104 discriminator 2 view .LVU323
 1004 01da F4EEE70A 		vcmpe.f32	s1, s15
 1005 01de F1EE10FA 		vmrs	APSR_nzcv, FPSCR
 1006 01e2 2CD9     		bls	.L105
 105:Components/Controller/controller.c ****     ecLeftTemp = fuzzyRule->ec >= 3 * fuzzyRule->ecStep ? 0 : (fuzzyRule->ec <= -3 * fuzzyRule->ecS
 1007              		.loc 1 105 120 discriminator 5 view .LVU324
 1008 01e4 80EEA55A 		vdiv.f32	s10, s1, s11
 105:Components/Controller/controller.c ****     ecLeftTemp = fuzzyRule->ec >= 3 * fuzzyRule->ecStep ? 0 : (fuzzyRule->ec <= -3 * fuzzyRule->ecS
 1009              		.loc 1 105 139 discriminator 5 view .LVU325
 1010 01e8 07EE902A 		vmov	s15, r2	@ int
 1011 01ec F8EEE77A 		vcvt.f32.s32	s15, s15
 1012 01f0 35EE675A 		vsub.f32	s10, s10, s15
 105:Components/Controller/controller.c ****     ecLeftTemp = fuzzyRule->ec >= 3 * fuzzyRule->ecStep ? 0 : (fuzzyRule->ec <= -3 * fuzzyRule->ecS
 1013              		.loc 1 105 104 discriminator 5 view .LVU326
 1014 01f4 F0EE087A 		vmov.f32	s15, #3.0e+0
 1015 01f8 35EE275A 		vadd.f32	s10, s10, s15
 1016 01fc 04E0     		b	.L91
 1017              	.LVL35:
 1018              	.L103:
 104:Components/Controller/controller.c ****     eRightTemp = fuzzyRule->e >= 3 * fuzzyRule->eStep ? 1 : (fuzzyRule->e <= -3 * fuzzyRule->eStep 
ARM GAS  C:\Users\86152\AppData\Local\Temp\ccrmPoSV.s 			page 29


 1019              		.loc 1 104 103 view .LVU327
 1020 01fe F7EE004A 		vmov.f32	s9, #1.0e+0
 1021 0202 E1E7     		b	.L90
 1022              	.LVL36:
 1023              	.L104:
 105:Components/Controller/controller.c ****     ecLeftTemp = fuzzyRule->ec >= 3 * fuzzyRule->ecStep ? 0 : (fuzzyRule->ec <= -3 * fuzzyRule->ecS
 1024              		.loc 1 105 59 view .LVU328
 1025 0204 B7EE005A 		vmov.f32	s10, #1.0e+0
 1026              	.L91:
 1027              	.LVL37:
 106:Components/Controller/controller.c ****     ecRightTemp = fuzzyRule->ec >= 3 * fuzzyRule->ecStep ? 1 : (fuzzyRule->ec <= -3 * fuzzyRule->ec
 1028              		.loc 1 106 5 is_stmt 1 discriminator 8 view .LVU329
 106:Components/Controller/controller.c ****     ecRightTemp = fuzzyRule->ec >= 3 * fuzzyRule->ecStep ? 1 : (fuzzyRule->ec <= -3 * fuzzyRule->ec
 1029              		.loc 1 106 61 is_stmt 0 discriminator 8 view .LVU330
 1030 0208 B4EEC74A 		vcmpe.f32	s8, s14
 1031 020c F1EE10FA 		vmrs	APSR_nzcv, FPSCR
 1032 0210 18DA     		bge	.L106
 106:Components/Controller/controller.c ****     ecRightTemp = fuzzyRule->ec >= 3 * fuzzyRule->ecStep ? 1 : (fuzzyRule->ec <= -3 * fuzzyRule->ec
 1033              		.loc 1 106 84 discriminator 2 view .LVU331
 1034 0212 F8EE087A 		vmov.f32	s15, #-3.0e+0
 1035 0216 63EEA77A 		vmul.f32	s15, s7, s15
 106:Components/Controller/controller.c ****     ecRightTemp = fuzzyRule->ec >= 3 * fuzzyRule->ecStep ? 1 : (fuzzyRule->ec <= -3 * fuzzyRule->ec
 1036              		.loc 1 106 108 discriminator 2 view .LVU332
 1037 021a B4EEE74A 		vcmpe.f32	s8, s15
 1038 021e F1EE10FA 		vmrs	APSR_nzcv, FPSCR
 1039 0222 2DD9     		bls	.L107
 106:Components/Controller/controller.c ****     ecRightTemp = fuzzyRule->ec >= 3 * fuzzyRule->ecStep ? 1 : (fuzzyRule->ec <= -3 * fuzzyRule->ec
 1040              		.loc 1 106 140 discriminator 5 view .LVU333
 1041 0224 C4EE236A 		vdiv.f32	s13, s8, s7
 106:Components/Controller/controller.c ****     ecRightTemp = fuzzyRule->ec >= 3 * fuzzyRule->ecStep ? 1 : (fuzzyRule->ec <= -3 * fuzzyRule->ec
 1042              		.loc 1 106 124 discriminator 5 view .LVU334
 1043 0228 07EE90CA 		vmov	s15, ip	@ int
 1044 022c F8EEE75A 		vcvt.f32.s32	s11, s15
 1045 0230 75EEE66A 		vsub.f32	s13, s11, s13
 106:Components/Controller/controller.c ****     ecRightTemp = fuzzyRule->ec >= 3 * fuzzyRule->ecStep ? 1 : (fuzzyRule->ec <= -3 * fuzzyRule->ec
 1046              		.loc 1 106 108 discriminator 5 view .LVU335
 1047 0234 F0EE087A 		vmov.f32	s15, #3.0e+0
 1048 0238 76EEE76A 		vsub.f32	s13, s13, s15
 1049 023c 04E0     		b	.L92
 1050              	.LVL38:
 1051              	.L105:
 105:Components/Controller/controller.c ****     ecLeftTemp = fuzzyRule->ec >= 3 * fuzzyRule->ecStep ? 0 : (fuzzyRule->ec <= -3 * fuzzyRule->ecS
 1052              		.loc 1 105 104 view .LVU336
 1053 023e 9FED625A 		vldr.32	s10, .L119
 1054 0242 E1E7     		b	.L91
 1055              	.LVL39:
 1056              	.L106:
 106:Components/Controller/controller.c ****     ecRightTemp = fuzzyRule->ec >= 3 * fuzzyRule->ecStep ? 1 : (fuzzyRule->ec <= -3 * fuzzyRule->ec
 1057              		.loc 1 106 61 view .LVU337
 1058 0244 DFED606A 		vldr.32	s13, .L119
 1059              	.L92:
 1060              	.LVL40:
 107:Components/Controller/controller.c **** 
 1061              		.loc 1 107 5 is_stmt 1 discriminator 8 view .LVU338
 107:Components/Controller/controller.c **** 
 1062              		.loc 1 107 62 is_stmt 0 discriminator 8 view .LVU339
 1063 0248 B4EEC74A 		vcmpe.f32	s8, s14
ARM GAS  C:\Users\86152\AppData\Local\Temp\ccrmPoSV.s 			page 30


 1064 024c F1EE10FA 		vmrs	APSR_nzcv, FPSCR
 1065 0250 19DA     		bge	.L108
 107:Components/Controller/controller.c **** 
 1066              		.loc 1 107 85 discriminator 2 view .LVU340
 1067 0252 F8EE087A 		vmov.f32	s15, #-3.0e+0
 1068 0256 63EEA77A 		vmul.f32	s15, s7, s15
 107:Components/Controller/controller.c **** 
 1069              		.loc 1 107 109 discriminator 2 view .LVU341
 1070 025a B4EEE74A 		vcmpe.f32	s8, s15
 1071 025e F1EE10FA 		vmrs	APSR_nzcv, FPSCR
 1072 0262 40F2AE80 		bls	.L109
 107:Components/Controller/controller.c **** 
 1073              		.loc 1 107 126 discriminator 5 view .LVU342
 1074 0266 C4EE235A 		vdiv.f32	s11, s8, s7
 107:Components/Controller/controller.c **** 
 1075              		.loc 1 107 146 discriminator 5 view .LVU343
 1076 026a 07EE903A 		vmov	s15, r3	@ int
 1077 026e B8EEE77A 		vcvt.f32.s32	s14, s15
 1078 0272 75EEC75A 		vsub.f32	s11, s11, s14
 107:Components/Controller/controller.c **** 
 1079              		.loc 1 107 109 discriminator 5 view .LVU344
 1080 0276 B0EE087A 		vmov.f32	s14, #3.0e+0
 1081 027a 35EE877A 		vadd.f32	s14, s11, s14
 1082 027e 04E0     		b	.L93
 1083              	.LVL41:
 1084              	.L107:
 106:Components/Controller/controller.c ****     ecRightTemp = fuzzyRule->ec >= 3 * fuzzyRule->ecStep ? 1 : (fuzzyRule->ec <= -3 * fuzzyRule->ec
 1085              		.loc 1 106 108 view .LVU345
 1086 0280 F7EE006A 		vmov.f32	s13, #1.0e+0
 1087 0284 E0E7     		b	.L92
 1088              	.LVL42:
 1089              	.L108:
 107:Components/Controller/controller.c **** 
 1090              		.loc 1 107 62 view .LVU346
 1091 0286 B7EE007A 		vmov.f32	s14, #1.0e+0
 1092              	.L93:
 1093              	.LVL43:
 109:Components/Controller/controller.c ****     fuzzyRule->ecStatue = ecLeftIndex;
 1094              		.loc 1 109 5 is_stmt 1 discriminator 8 view .LVU347
 109:Components/Controller/controller.c ****     fuzzyRule->ecStatue = ecLeftIndex;
 1095              		.loc 1 109 24 is_stmt 0 discriminator 8 view .LVU348
 1096 028a 84F83C20 		strb	r2, [r4, #60]
 110:Components/Controller/controller.c **** 
 1097              		.loc 1 110 5 is_stmt 1 discriminator 8 view .LVU349
 110:Components/Controller/controller.c **** 
 1098              		.loc 1 110 25 is_stmt 0 discriminator 8 view .LVU350
 1099 028e 84F83D30 		strb	r3, [r4, #61]
 112:Components/Controller/controller.c ****     fuzzyRule->KpFuzzyTemp[1] = eLeftTemp * ecRightTemp * fuzzyRule->FuzzyRuleKp[eRightIndex][ecLef
 1100              		.loc 1 112 5 is_stmt 1 discriminator 8 view .LVU351
 112:Components/Controller/controller.c ****     fuzzyRule->KpFuzzyTemp[1] = eLeftTemp * ecRightTemp * fuzzyRule->FuzzyRuleKp[eRightIndex][ecLef
 1101              		.loc 1 112 43 is_stmt 0 discriminator 8 view .LVU352
 1102 0292 24EEA64A 		vmul.f32	s8, s9, s13
 112:Components/Controller/controller.c ****     fuzzyRule->KpFuzzyTemp[1] = eLeftTemp * ecRightTemp * fuzzyRule->FuzzyRuleKp[eRightIndex][ecLef
 1103              		.loc 1 112 67 discriminator 8 view .LVU353
 1104 0296 606C     		ldr	r0, [r4, #68]
 112:Components/Controller/controller.c ****     fuzzyRule->KpFuzzyTemp[1] = eLeftTemp * ecRightTemp * fuzzyRule->FuzzyRuleKp[eRightIndex][ecLef
 1105              		.loc 1 112 80 discriminator 8 view .LVU354
ARM GAS  C:\Users\86152\AppData\Local\Temp\ccrmPoSV.s 			page 31


 1106 0298 C2EBC202 		rsb	r2, r2, r2, lsl #3
 1107              	.LVL44:
 112:Components/Controller/controller.c ****     fuzzyRule->KpFuzzyTemp[1] = eLeftTemp * ecRightTemp * fuzzyRule->FuzzyRuleKp[eRightIndex][ecLef
 1108              		.loc 1 112 80 discriminator 8 view .LVU355
 1109 029c 00EB8205 		add	r5, r0, r2, lsl #2
 112:Components/Controller/controller.c ****     fuzzyRule->KpFuzzyTemp[1] = eLeftTemp * ecRightTemp * fuzzyRule->FuzzyRuleKp[eRightIndex][ecLef
 1110              		.loc 1 112 92 discriminator 8 view .LVU356
 1111 02a0 05EB8301 		add	r1, r5, r3, lsl #2
 1112 02a4 91ED006A 		vldr.32	s12, [r1]
 112:Components/Controller/controller.c ****     fuzzyRule->KpFuzzyTemp[1] = eLeftTemp * ecRightTemp * fuzzyRule->FuzzyRuleKp[eRightIndex][ecLef
 1113              		.loc 1 112 56 discriminator 8 view .LVU357
 1114 02a8 24EE066A 		vmul.f32	s12, s8, s12
 112:Components/Controller/controller.c ****     fuzzyRule->KpFuzzyTemp[1] = eLeftTemp * ecRightTemp * fuzzyRule->FuzzyRuleKp[eRightIndex][ecLef
 1115              		.loc 1 112 31 discriminator 8 view .LVU358
 1116 02ac 84ED036A 		vstr.32	s12, [r4, #12]
 113:Components/Controller/controller.c ****     fuzzyRule->KpFuzzyTemp[2] = eRightTemp * ecLeftTemp * fuzzyRule->FuzzyRuleKp[eLeftIndex][ecRigh
 1117              		.loc 1 113 5 is_stmt 1 discriminator 8 view .LVU359
 113:Components/Controller/controller.c ****     fuzzyRule->KpFuzzyTemp[2] = eRightTemp * ecLeftTemp * fuzzyRule->FuzzyRuleKp[eLeftIndex][ecRigh
 1118              		.loc 1 113 43 is_stmt 0 discriminator 8 view .LVU360
 1119 02b0 64EE874A 		vmul.f32	s9, s9, s14
 1120              	.LVL45:
 113:Components/Controller/controller.c ****     fuzzyRule->KpFuzzyTemp[2] = eRightTemp * ecLeftTemp * fuzzyRule->FuzzyRuleKp[eLeftIndex][ecRigh
 1121              		.loc 1 113 81 discriminator 8 view .LVU361
 1122 02b4 CEEBCE0E 		rsb	lr, lr, lr, lsl #3
 1123              	.LVL46:
 113:Components/Controller/controller.c ****     fuzzyRule->KpFuzzyTemp[2] = eRightTemp * ecLeftTemp * fuzzyRule->FuzzyRuleKp[eLeftIndex][ecRigh
 1124              		.loc 1 113 81 discriminator 8 view .LVU362
 1125 02b8 00EB8E00 		add	r0, r0, lr, lsl #2
 113:Components/Controller/controller.c ****     fuzzyRule->KpFuzzyTemp[2] = eRightTemp * ecLeftTemp * fuzzyRule->FuzzyRuleKp[eLeftIndex][ecRigh
 1126              		.loc 1 113 94 discriminator 8 view .LVU363
 1127 02bc 00EB8301 		add	r1, r0, r3, lsl #2
 1128 02c0 D1ED005A 		vldr.32	s11, [r1]
 113:Components/Controller/controller.c ****     fuzzyRule->KpFuzzyTemp[2] = eRightTemp * ecLeftTemp * fuzzyRule->FuzzyRuleKp[eLeftIndex][ecRigh
 1129              		.loc 1 113 57 discriminator 8 view .LVU364
 1130 02c4 64EEA55A 		vmul.f32	s11, s9, s11
 113:Components/Controller/controller.c ****     fuzzyRule->KpFuzzyTemp[2] = eRightTemp * ecLeftTemp * fuzzyRule->FuzzyRuleKp[eLeftIndex][ecRigh
 1131              		.loc 1 113 31 discriminator 8 view .LVU365
 1132 02c8 C4ED045A 		vstr.32	s11, [r4, #16]
 114:Components/Controller/controller.c ****     fuzzyRule->KpFuzzyTemp[3] = eRightTemp * ecRightTemp * fuzzyRule->FuzzyRuleKp[eRightIndex][ecRi
 1133              		.loc 1 114 5 is_stmt 1 discriminator 8 view .LVU366
 114:Components/Controller/controller.c ****     fuzzyRule->KpFuzzyTemp[3] = eRightTemp * ecRightTemp * fuzzyRule->FuzzyRuleKp[eRightIndex][ecRi
 1134              		.loc 1 114 44 is_stmt 0 discriminator 8 view .LVU367
 1135 02cc 65EE263A 		vmul.f32	s7, s10, s13
 114:Components/Controller/controller.c ****     fuzzyRule->KpFuzzyTemp[3] = eRightTemp * ecRightTemp * fuzzyRule->FuzzyRuleKp[eRightIndex][ecRi
 1136              		.loc 1 114 93 discriminator 8 view .LVU368
 1137 02d0 05EB8C05 		add	r5, r5, ip, lsl #2
 1138 02d4 D5ED006A 		vldr.32	s13, [r5]
 1139              	.LVL47:
 114:Components/Controller/controller.c ****     fuzzyRule->KpFuzzyTemp[3] = eRightTemp * ecRightTemp * fuzzyRule->FuzzyRuleKp[eRightIndex][ecRi
 1140              		.loc 1 114 57 discriminator 8 view .LVU369
 1141 02d8 63EEA66A 		vmul.f32	s13, s7, s13
 114:Components/Controller/controller.c ****     fuzzyRule->KpFuzzyTemp[3] = eRightTemp * ecRightTemp * fuzzyRule->FuzzyRuleKp[eRightIndex][ecRi
 1142              		.loc 1 114 31 discriminator 8 view .LVU370
 1143 02dc C4ED056A 		vstr.32	s13, [r4, #20]
 115:Components/Controller/controller.c **** 
 1144              		.loc 1 115 5 is_stmt 1 discriminator 8 view .LVU371
 115:Components/Controller/controller.c **** 
ARM GAS  C:\Users\86152\AppData\Local\Temp\ccrmPoSV.s 			page 32


 1145              		.loc 1 115 44 is_stmt 0 discriminator 8 view .LVU372
 1146 02e0 25EE075A 		vmul.f32	s10, s10, s14
 1147              	.LVL48:
 115:Components/Controller/controller.c **** 
 1148              		.loc 1 115 95 discriminator 8 view .LVU373
 1149 02e4 00EB8C00 		add	r0, r0, ip, lsl #2
 1150 02e8 90ED007A 		vldr.32	s14, [r0]
 1151              	.LVL49:
 115:Components/Controller/controller.c **** 
 1152              		.loc 1 115 58 discriminator 8 view .LVU374
 1153 02ec 25EE077A 		vmul.f32	s14, s10, s14
 115:Components/Controller/controller.c **** 
 1154              		.loc 1 115 31 discriminator 8 view .LVU375
 1155 02f0 84ED067A 		vstr.32	s14, [r4, #24]
 117:Components/Controller/controller.c ****     //		fuzzyRule->KpFuzzy = eLeftTemp * ecLeftTemp * fuzzyRule->FuzzyRuleKp[eLeftIndex][ecLeftInde
 1156              		.loc 1 117 5 is_stmt 1 discriminator 8 view .LVU376
 117:Components/Controller/controller.c ****     //		fuzzyRule->KpFuzzy = eLeftTemp * ecLeftTemp * fuzzyRule->FuzzyRuleKp[eLeftIndex][ecLeftInde
 1157              		.loc 1 117 52 is_stmt 0 discriminator 8 view .LVU377
 1158 02f4 36EE256A 		vadd.f32	s12, s12, s11
 117:Components/Controller/controller.c ****     //		fuzzyRule->KpFuzzy = eLeftTemp * ecLeftTemp * fuzzyRule->FuzzyRuleKp[eLeftIndex][ecLeftInde
 1159              		.loc 1 117 80 discriminator 8 view .LVU378
 1160 02f8 76EE866A 		vadd.f32	s13, s13, s12
 117:Components/Controller/controller.c ****     //		fuzzyRule->KpFuzzy = eLeftTemp * ecLeftTemp * fuzzyRule->FuzzyRuleKp[eLeftIndex][ecLeftInde
 1161              		.loc 1 117 108 discriminator 8 view .LVU379
 1162 02fc 37EE267A 		vadd.f32	s14, s14, s13
 117:Components/Controller/controller.c ****     //		fuzzyRule->KpFuzzy = eLeftTemp * ecLeftTemp * fuzzyRule->FuzzyRuleKp[eLeftIndex][ecLeftInde
 1163              		.loc 1 117 24 discriminator 8 view .LVU380
 1164 0300 84ED007A 		vstr.32	s14, [r4]
 123:Components/Controller/controller.c ****     //		fuzzyRule->KpFuzzy = (fuzzyRule->KpFuzzy + fuzzyRule->LastKpFuzzy) / 2;
 1165              		.loc 1 123 5 is_stmt 1 discriminator 8 view .LVU381
 123:Components/Controller/controller.c ****     //		fuzzyRule->KpFuzzy = (fuzzyRule->KpFuzzy + fuzzyRule->LastKpFuzzy) / 2;
 1166              		.loc 1 123 36 is_stmt 0 discriminator 8 view .LVU382
 1167 0304 D4ED147A 		vldr.32	s15, [r4, #80]
 123:Components/Controller/controller.c ****     //		fuzzyRule->KpFuzzy = (fuzzyRule->KpFuzzy + fuzzyRule->LastKpFuzzy) / 2;
 1168              		.loc 1 123 24 discriminator 8 view .LVU383
 1169 0308 27EE277A 		vmul.f32	s14, s14, s15
 1170 030c 84ED007A 		vstr.32	s14, [r4]
 127:Components/Controller/controller.c ****                          eLeftTemp * ecRightTemp * fuzzyRule->FuzzyRuleKi[eRightIndex][ecLeftIndex]
 1171              		.loc 1 127 5 is_stmt 1 discriminator 8 view .LVU384
 127:Components/Controller/controller.c ****                          eLeftTemp * ecRightTemp * fuzzyRule->FuzzyRuleKi[eRightIndex][ecLeftIndex]
 1172              		.loc 1 127 60 is_stmt 0 discriminator 8 view .LVU385
 1173 0310 A06C     		ldr	r0, [r4, #72]
 127:Components/Controller/controller.c ****                          eLeftTemp * ecRightTemp * fuzzyRule->FuzzyRuleKi[eRightIndex][ecLeftIndex]
 1174              		.loc 1 127 73 discriminator 8 view .LVU386
 1175 0312 00EB8201 		add	r1, r0, r2, lsl #2
 127:Components/Controller/controller.c ****                          eLeftTemp * ecRightTemp * fuzzyRule->FuzzyRuleKi[eRightIndex][ecLeftIndex]
 1176              		.loc 1 127 85 discriminator 8 view .LVU387
 1177 0316 01EB8305 		add	r5, r1, r3, lsl #2
 1178 031a 95ED007A 		vldr.32	s14, [r5]
 127:Components/Controller/controller.c ****                          eLeftTemp * ecRightTemp * fuzzyRule->FuzzyRuleKi[eRightIndex][ecLeftIndex]
 1179              		.loc 1 127 49 discriminator 8 view .LVU388
 1180 031e 24EE077A 		vmul.f32	s14, s8, s14
 128:Components/Controller/controller.c ****                          eRightTemp * ecLeftTemp * fuzzyRule->FuzzyRuleKi[eLeftIndex][ecRightIndex]
 1181              		.loc 1 128 74 discriminator 8 view .LVU389
 1182 0322 00EB8E00 		add	r0, r0, lr, lsl #2
 128:Components/Controller/controller.c ****                          eRightTemp * ecLeftTemp * fuzzyRule->FuzzyRuleKi[eLeftIndex][ecRightIndex]
 1183              		.loc 1 128 87 discriminator 8 view .LVU390
ARM GAS  C:\Users\86152\AppData\Local\Temp\ccrmPoSV.s 			page 33


 1184 0326 00EB8305 		add	r5, r0, r3, lsl #2
 1185 032a D5ED005A 		vldr.32	s11, [r5]
 128:Components/Controller/controller.c ****                          eRightTemp * ecLeftTemp * fuzzyRule->FuzzyRuleKi[eLeftIndex][ecRightIndex]
 1186              		.loc 1 128 50 discriminator 8 view .LVU391
 1187 032e 64EEA55A 		vmul.f32	s11, s9, s11
 127:Components/Controller/controller.c ****                          eLeftTemp * ecRightTemp * fuzzyRule->FuzzyRuleKi[eRightIndex][ecLeftIndex]
 1188              		.loc 1 127 99 discriminator 8 view .LVU392
 1189 0332 37EE257A 		vadd.f32	s14, s14, s11
 129:Components/Controller/controller.c ****                          eRightTemp * ecRightTemp * fuzzyRule->FuzzyRuleKi[eRightIndex][ecRightInde
 1190              		.loc 1 129 86 discriminator 8 view .LVU393
 1191 0336 01EB8C01 		add	r1, r1, ip, lsl #2
 1192 033a D1ED005A 		vldr.32	s11, [r1]
 129:Components/Controller/controller.c ****                          eRightTemp * ecRightTemp * fuzzyRule->FuzzyRuleKi[eRightIndex][ecRightInde
 1193              		.loc 1 129 50 discriminator 8 view .LVU394
 1194 033e 63EEA55A 		vmul.f32	s11, s7, s11
 128:Components/Controller/controller.c ****                          eRightTemp * ecLeftTemp * fuzzyRule->FuzzyRuleKi[eLeftIndex][ecRightIndex]
 1195              		.loc 1 128 101 discriminator 8 view .LVU395
 1196 0342 37EE257A 		vadd.f32	s14, s14, s11
 130:Components/Controller/controller.c ****     fuzzyRule->KiFuzzy *= fuzzyRule->KiRatio;
 1197              		.loc 1 130 88 discriminator 8 view .LVU396
 1198 0346 00EB8C00 		add	r0, r0, ip, lsl #2
 1199 034a D0ED005A 		vldr.32	s11, [r0]
 130:Components/Controller/controller.c ****     fuzzyRule->KiFuzzy *= fuzzyRule->KiRatio;
 1200              		.loc 1 130 51 discriminator 8 view .LVU397
 1201 034e 65EE255A 		vmul.f32	s11, s10, s11
 129:Components/Controller/controller.c ****                          eRightTemp * ecRightTemp * fuzzyRule->FuzzyRuleKi[eRightIndex][ecRightInde
 1202              		.loc 1 129 101 discriminator 8 view .LVU398
 1203 0352 37EE257A 		vadd.f32	s14, s14, s11
 127:Components/Controller/controller.c ****                          eLeftTemp * ecRightTemp * fuzzyRule->FuzzyRuleKi[eRightIndex][ecLeftIndex]
 1204              		.loc 1 127 24 discriminator 8 view .LVU399
 1205 0356 84ED017A 		vstr.32	s14, [r4, #4]
 131:Components/Controller/controller.c **** 
 1206              		.loc 1 131 5 is_stmt 1 discriminator 8 view .LVU400
 131:Components/Controller/controller.c **** 
 1207              		.loc 1 131 36 is_stmt 0 discriminator 8 view .LVU401
 1208 035a D4ED157A 		vldr.32	s15, [r4, #84]
 131:Components/Controller/controller.c **** 
 1209              		.loc 1 131 24 discriminator 8 view .LVU402
 1210 035e 27EE277A 		vmul.f32	s14, s14, s15
 1211 0362 84ED017A 		vstr.32	s14, [r4, #4]
 133:Components/Controller/controller.c ****                          eLeftTemp * ecRightTemp * fuzzyRule->FuzzyRuleKd[eRightIndex][ecLeftIndex]
 1212              		.loc 1 133 5 is_stmt 1 discriminator 8 view .LVU403
 133:Components/Controller/controller.c ****                          eLeftTemp * ecRightTemp * fuzzyRule->FuzzyRuleKd[eRightIndex][ecLeftIndex]
 1213              		.loc 1 133 60 is_stmt 0 discriminator 8 view .LVU404
 1214 0366 E16C     		ldr	r1, [r4, #76]
 133:Components/Controller/controller.c ****                          eLeftTemp * ecRightTemp * fuzzyRule->FuzzyRuleKd[eRightIndex][ecLeftIndex]
 1215              		.loc 1 133 73 discriminator 8 view .LVU405
 1216 0368 01EB8202 		add	r2, r1, r2, lsl #2
 133:Components/Controller/controller.c ****                          eLeftTemp * ecRightTemp * fuzzyRule->FuzzyRuleKd[eRightIndex][ecLeftIndex]
 1217              		.loc 1 133 85 discriminator 8 view .LVU406
 1218 036c 02EB8300 		add	r0, r2, r3, lsl #2
 1219 0370 D0ED007A 		vldr.32	s15, [r0]
 133:Components/Controller/controller.c ****                          eLeftTemp * ecRightTemp * fuzzyRule->FuzzyRuleKd[eRightIndex][ecLeftIndex]
 1220              		.loc 1 133 49 discriminator 8 view .LVU407
 1221 0374 64EE277A 		vmul.f32	s15, s8, s15
 134:Components/Controller/controller.c ****                          eRightTemp * ecLeftTemp * fuzzyRule->FuzzyRuleKd[eLeftIndex][ecRightIndex]
 1222              		.loc 1 134 74 discriminator 8 view .LVU408
ARM GAS  C:\Users\86152\AppData\Local\Temp\ccrmPoSV.s 			page 34


 1223 0378 01EB8E01 		add	r1, r1, lr, lsl #2
 134:Components/Controller/controller.c ****                          eRightTemp * ecLeftTemp * fuzzyRule->FuzzyRuleKd[eLeftIndex][ecRightIndex]
 1224              		.loc 1 134 87 discriminator 8 view .LVU409
 1225 037c 01EB8303 		add	r3, r1, r3, lsl #2
 1226              	.LVL50:
 134:Components/Controller/controller.c ****                          eRightTemp * ecLeftTemp * fuzzyRule->FuzzyRuleKd[eLeftIndex][ecRightIndex]
 1227              		.loc 1 134 87 discriminator 8 view .LVU410
 1228 0380 93ED006A 		vldr.32	s12, [r3]
 134:Components/Controller/controller.c ****                          eRightTemp * ecLeftTemp * fuzzyRule->FuzzyRuleKd[eLeftIndex][ecRightIndex]
 1229              		.loc 1 134 50 discriminator 8 view .LVU411
 1230 0384 24EE866A 		vmul.f32	s12, s9, s12
 133:Components/Controller/controller.c ****                          eLeftTemp * ecRightTemp * fuzzyRule->FuzzyRuleKd[eRightIndex][ecLeftIndex]
 1231              		.loc 1 133 99 discriminator 8 view .LVU412
 1232 0388 77EE867A 		vadd.f32	s15, s15, s12
 135:Components/Controller/controller.c ****                          eRightTemp * ecRightTemp * fuzzyRule->FuzzyRuleKd[eRightIndex][ecRightInde
 1233              		.loc 1 135 86 discriminator 8 view .LVU413
 1234 038c 02EB8C02 		add	r2, r2, ip, lsl #2
 1235 0390 D2ED006A 		vldr.32	s13, [r2]
 135:Components/Controller/controller.c ****                          eRightTemp * ecRightTemp * fuzzyRule->FuzzyRuleKd[eRightIndex][ecRightInde
 1236              		.loc 1 135 50 discriminator 8 view .LVU414
 1237 0394 63EEA66A 		vmul.f32	s13, s7, s13
 134:Components/Controller/controller.c ****                          eRightTemp * ecLeftTemp * fuzzyRule->FuzzyRuleKd[eLeftIndex][ecRightIndex]
 1238              		.loc 1 134 101 discriminator 8 view .LVU415
 1239 0398 77EEA67A 		vadd.f32	s15, s15, s13
 136:Components/Controller/controller.c ****     fuzzyRule->KdFuzzy *= fuzzyRule->KdRatio;
 1240              		.loc 1 136 88 discriminator 8 view .LVU416
 1241 039c 01EB8C01 		add	r1, r1, ip, lsl #2
 1242 03a0 91ED007A 		vldr.32	s14, [r1]
 136:Components/Controller/controller.c ****     fuzzyRule->KdFuzzy *= fuzzyRule->KdRatio;
 1243              		.loc 1 136 51 discriminator 8 view .LVU417
 1244 03a4 25EE077A 		vmul.f32	s14, s10, s14
 135:Components/Controller/controller.c ****                          eRightTemp * ecRightTemp * fuzzyRule->FuzzyRuleKd[eRightIndex][ecRightInde
 1245              		.loc 1 135 101 discriminator 8 view .LVU418
 1246 03a8 77EE877A 		vadd.f32	s15, s15, s14
 133:Components/Controller/controller.c ****                          eLeftTemp * ecRightTemp * fuzzyRule->FuzzyRuleKd[eRightIndex][ecLeftIndex]
 1247              		.loc 1 133 24 discriminator 8 view .LVU419
 1248 03ac C4ED027A 		vstr.32	s15, [r4, #8]
 137:Components/Controller/controller.c **** }
 1249              		.loc 1 137 5 is_stmt 1 discriminator 8 view .LVU420
 137:Components/Controller/controller.c **** }
 1250              		.loc 1 137 36 is_stmt 0 discriminator 8 view .LVU421
 1251 03b0 94ED167A 		vldr.32	s14, [r4, #88]
 137:Components/Controller/controller.c **** }
 1252              		.loc 1 137 24 discriminator 8 view .LVU422
 1253 03b4 67EE877A 		vmul.f32	s15, s15, s14
 1254 03b8 C4ED027A 		vstr.32	s15, [r4, #8]
 138:Components/Controller/controller.c **** 
 1255              		.loc 1 138 1 discriminator 8 view .LVU423
 1256 03bc BDEC028B 		vldm	sp!, {d8}
 1257              	.LCFI5:
 1258              		.cfi_remember_state
 1259              		.cfi_restore 80
 1260              		.cfi_restore 81
 1261              		.cfi_def_cfa_offset 16
 1262              	.LVL51:
 138:Components/Controller/controller.c **** 
 1263              		.loc 1 138 1 discriminator 8 view .LVU424
ARM GAS  C:\Users\86152\AppData\Local\Temp\ccrmPoSV.s 			page 35


 1264 03c0 38BD     		pop	{r3, r4, r5, pc}
 1265              	.LVL52:
 1266              	.L109:
 1267              	.LCFI6:
 1268              		.cfi_restore_state
 107:Components/Controller/controller.c **** 
 1269              		.loc 1 107 109 view .LVU425
 1270 03c2 9FED017A 		vldr.32	s14, .L119
 1271 03c6 60E7     		b	.L93
 1272              	.L120:
 1273              		.align	2
 1274              	.L119:
 1275 03c8 00000000 		.word	0
 1276              		.cfi_endproc
 1277              	.LFE169:
 1279              		.section	.text.PID_Init,"ax",%progbits
 1280              		.align	1
 1281              		.global	PID_Init
 1282              		.syntax unified
 1283              		.thumb
 1284              		.thumb_func
 1286              	PID_Init:
 1287              	.LVL53:
 1288              	.LFB170:
 177:Components/Controller/controller.c ****     pid->DeadBand = deadband;
 1289              		.loc 1 177 1 is_stmt 1 view -0
 1290              		.cfi_startproc
 1291              		@ args = 0, pretend = 0, frame = 0
 1292              		@ frame_needed = 0, uses_anonymous_args = 0
 177:Components/Controller/controller.c ****     pid->DeadBand = deadband;
 1293              		.loc 1 177 1 is_stmt 0 view .LVU427
 1294 0000 70B5     		push	{r4, r5, r6, lr}
 1295              	.LCFI7:
 1296              		.cfi_def_cfa_offset 16
 1297              		.cfi_offset 4, -16
 1298              		.cfi_offset 5, -12
 1299              		.cfi_offset 6, -8
 1300              		.cfi_offset 14, -4
 1301 0002 0446     		mov	r4, r0
 1302 0004 1646     		mov	r6, r2
 178:Components/Controller/controller.c ****     pid->IntegralLimit = intergral_limit;
 1303              		.loc 1 178 5 is_stmt 1 view .LVU428
 178:Components/Controller/controller.c ****     pid->IntegralLimit = intergral_limit;
 1304              		.loc 1 178 19 is_stmt 0 view .LVU429
 1305 0006 80ED121A 		vstr.32	s2, [r0, #72]
 179:Components/Controller/controller.c ****     pid->MaxOut = max_out;
 1306              		.loc 1 179 5 is_stmt 1 view .LVU430
 179:Components/Controller/controller.c ****     pid->MaxOut = max_out;
 1307              		.loc 1 179 24 is_stmt 0 view .LVU431
 1308 000a C0ED110A 		vstr.32	s1, [r0, #68]
 180:Components/Controller/controller.c ****     pid->Ref = 0;
 1309              		.loc 1 180 5 is_stmt 1 view .LVU432
 180:Components/Controller/controller.c ****     pid->Ref = 0;
 1310              		.loc 1 180 17 is_stmt 0 view .LVU433
 1311 000e 80ED100A 		vstr.32	s0, [r0, #64]
 181:Components/Controller/controller.c **** 
 1312              		.loc 1 181 5 is_stmt 1 view .LVU434
ARM GAS  C:\Users\86152\AppData\Local\Temp\ccrmPoSV.s 			page 36


 181:Components/Controller/controller.c **** 
 1313              		.loc 1 181 14 is_stmt 0 view .LVU435
 1314 0012 0025     		movs	r5, #0
 1315 0014 0560     		str	r5, [r0]	@ float
 183:Components/Controller/controller.c ****     pid->Ki = Ki;
 1316              		.loc 1 183 5 is_stmt 1 view .LVU436
 183:Components/Controller/controller.c ****     pid->Ki = Ki;
 1317              		.loc 1 183 13 is_stmt 0 view .LVU437
 1318 0016 C0ED011A 		vstr.32	s3, [r0, #4]
 184:Components/Controller/controller.c ****     pid->Kd = Kd;
 1319              		.loc 1 184 5 is_stmt 1 view .LVU438
 184:Components/Controller/controller.c ****     pid->Kd = Kd;
 1320              		.loc 1 184 13 is_stmt 0 view .LVU439
 1321 001a 80ED022A 		vstr.32	s4, [r0, #8]
 185:Components/Controller/controller.c ****     pid->ITerm = 0;
 1322              		.loc 1 185 5 is_stmt 1 view .LVU440
 185:Components/Controller/controller.c ****     pid->ITerm = 0;
 1323              		.loc 1 185 13 is_stmt 0 view .LVU441
 1324 001e C0ED032A 		vstr.32	s5, [r0, #12]
 186:Components/Controller/controller.c **** 
 1325              		.loc 1 186 5 is_stmt 1 view .LVU442
 186:Components/Controller/controller.c **** 
 1326              		.loc 1 186 16 is_stmt 0 view .LVU443
 1327 0022 0563     		str	r5, [r0, #48]	@ float
 190:Components/Controller/controller.c ****     pid->CoefB = B;
 1328              		.loc 1 190 5 is_stmt 1 view .LVU444
 190:Components/Controller/controller.c ****     pid->CoefB = B;
 1329              		.loc 1 190 16 is_stmt 0 view .LVU445
 1330 0024 80ED143A 		vstr.32	s6, [r0, #80]
 191:Components/Controller/controller.c **** 
 1331              		.loc 1 191 5 is_stmt 1 view .LVU446
 191:Components/Controller/controller.c **** 
 1332              		.loc 1 191 16 is_stmt 0 view .LVU447
 1333 0028 C0ED153A 		vstr.32	s7, [r0, #84]
 193:Components/Controller/controller.c **** 
 1334              		.loc 1 193 5 is_stmt 1 view .LVU448
 193:Components/Controller/controller.c **** 
 1335              		.loc 1 193 24 is_stmt 0 view .LVU449
 1336 002c 80ED164A 		vstr.32	s8, [r0, #88]
 195:Components/Controller/controller.c **** 
 1337              		.loc 1 195 5 is_stmt 1 view .LVU450
 195:Components/Controller/controller.c **** 
 1338              		.loc 1 195 28 is_stmt 0 view .LVU451
 1339 0030 C0ED174A 		vstr.32	s9, [r0, #92]
 199:Components/Controller/controller.c ****     OLS_Init(&pid->OLS, ols_order);
 1340              		.loc 1 199 5 is_stmt 1 view .LVU452
 199:Components/Controller/controller.c ****     OLS_Init(&pid->OLS, ols_order);
 1341              		.loc 1 199 20 is_stmt 0 view .LVU453
 1342 0034 A0F86010 		strh	r1, [r0, #96]	@ movhi
 200:Components/Controller/controller.c **** 
 1343              		.loc 1 200 5 is_stmt 1 view .LVU454
 1344 0038 6430     		adds	r0, r0, #100
 1345              	.LVL54:
 200:Components/Controller/controller.c **** 
 1346              		.loc 1 200 5 is_stmt 0 view .LVU455
 1347 003a FFF7FEFF 		bl	OLS_Init
 1348              	.LVL55:
ARM GAS  C:\Users\86152\AppData\Local\Temp\ccrmPoSV.s 			page 37


 204:Components/Controller/controller.c **** 
 1349              		.loc 1 204 5 is_stmt 1 view .LVU456
 204:Components/Controller/controller.c **** 
 1350              		.loc 1 204 18 is_stmt 0 view .LVU457
 1351 003e 0023     		movs	r3, #0
 1352 0040 C4F89030 		str	r3, [r4, #144]
 207:Components/Controller/controller.c **** 
 1353              		.loc 1 207 5 is_stmt 1 view .LVU458
 207:Components/Controller/controller.c **** 
 1354              		.loc 1 207 18 is_stmt 0 view .LVU459
 1355 0044 84F89C60 		strb	r6, [r4, #156]
 210:Components/Controller/controller.c ****     pid->ERRORHandler.ERRORType = PID_ERROR_NONE;
 1356              		.loc 1 210 5 is_stmt 1 view .LVU460
 210:Components/Controller/controller.c ****     pid->ERRORHandler.ERRORType = PID_ERROR_NONE;
 1357              		.loc 1 210 34 is_stmt 0 view .LVU461
 1358 0048 0020     		movs	r0, #0
 1359 004a 0021     		movs	r1, #0
 1360 004c C4E92801 		strd	r0, [r4, #160]
 211:Components/Controller/controller.c **** 
 1361              		.loc 1 211 5 is_stmt 1 view .LVU462
 211:Components/Controller/controller.c **** 
 1362              		.loc 1 211 33 is_stmt 0 view .LVU463
 1363 0050 84F8A830 		strb	r3, [r4, #168]
 213:Components/Controller/controller.c **** }
 1364              		.loc 1 213 5 is_stmt 1 view .LVU464
 213:Components/Controller/controller.c **** }
 1365              		.loc 1 213 17 is_stmt 0 view .LVU465
 1366 0054 6563     		str	r5, [r4, #52]	@ float
 214:Components/Controller/controller.c **** 
 1367              		.loc 1 214 1 view .LVU466
 1368 0056 70BD     		pop	{r4, r5, r6, pc}
 214:Components/Controller/controller.c **** 
 1369              		.loc 1 214 1 view .LVU467
 1370              		.cfi_endproc
 1371              	.LFE170:
 1373              		.section	.text.PID_Calculate,"ax",%progbits
 1374              		.align	1
 1375              		.global	PID_Calculate
 1376              		.syntax unified
 1377              		.thumb
 1378              		.thumb_func
 1380              	PID_Calculate:
 1381              	.LVL56:
 1382              	.LFB171:
 224:Components/Controller/controller.c ****     if (pid->Improve & ErrorHandle)
 1383              		.loc 1 224 1 is_stmt 1 view -0
 1384              		.cfi_startproc
 1385              		@ args = 0, pretend = 0, frame = 0
 1386              		@ frame_needed = 0, uses_anonymous_args = 0
 224:Components/Controller/controller.c ****     if (pid->Improve & ErrorHandle)
 1387              		.loc 1 224 1 is_stmt 0 view .LVU469
 1388 0000 10B5     		push	{r4, lr}
 1389              	.LCFI8:
 1390              		.cfi_def_cfa_offset 8
 1391              		.cfi_offset 4, -8
 1392              		.cfi_offset 14, -4
 1393 0002 2DED028B 		vpush.64	{d8}
ARM GAS  C:\Users\86152\AppData\Local\Temp\ccrmPoSV.s 			page 38


 1394              	.LCFI9:
 1395              		.cfi_def_cfa_offset 16
 1396              		.cfi_offset 80, -16
 1397              		.cfi_offset 81, -12
 1398 0006 0446     		mov	r4, r0
 1399 0008 F0EE408A 		vmov.f32	s17, s0
 1400 000c B0EE608A 		vmov.f32	s16, s1
 225:Components/Controller/controller.c ****         f_PID_ErrorHandle(pid);
 1401              		.loc 1 225 5 is_stmt 1 view .LVU470
 225:Components/Controller/controller.c ****         f_PID_ErrorHandle(pid);
 1402              		.loc 1 225 9 is_stmt 0 view .LVU471
 1403 0010 90F99C30 		ldrsb	r3, [r0, #156]
 225:Components/Controller/controller.c ****         f_PID_ErrorHandle(pid);
 1404              		.loc 1 225 8 view .LVU472
 1405 0014 002B     		cmp	r3, #0
 1406 0016 C0F23781 		blt	.L147
 1407              	.LVL57:
 1408              	.L124:
 228:Components/Controller/controller.c **** 
 1409              		.loc 1 228 5 is_stmt 1 view .LVU473
 228:Components/Controller/controller.c **** 
 1410              		.loc 1 228 15 is_stmt 0 view .LVU474
 1411 001a 04F19000 		add	r0, r4, #144
 1412 001e FFF7FEFF 		bl	DWT_GetDeltaT
 1413              	.LVL58:
 228:Components/Controller/controller.c **** 
 1414              		.loc 1 228 13 view .LVU475
 1415 0022 84ED250A 		vstr.32	s0, [r4, #148]
 230:Components/Controller/controller.c ****     pid->Ref = ref;
 1416              		.loc 1 230 5 is_stmt 1 view .LVU476
 230:Components/Controller/controller.c ****     pid->Ref = ref;
 1417              		.loc 1 230 18 is_stmt 0 view .LVU477
 1418 0026 C4ED048A 		vstr.32	s17, [r4, #16]
 231:Components/Controller/controller.c ****     if (!isnormal(pid->Measure))
 1419              		.loc 1 231 5 is_stmt 1 view .LVU478
 231:Components/Controller/controller.c ****     if (!isnormal(pid->Measure))
 1420              		.loc 1 231 14 is_stmt 0 view .LVU479
 1421 002a 84ED008A 		vstr.32	s16, [r4]
 232:Components/Controller/controller.c ****         pid->Measure = 0;
 1422              		.loc 1 232 5 is_stmt 1 view .LVU480
 232:Components/Controller/controller.c ****         pid->Measure = 0;
 1423              		.loc 1 232 10 is_stmt 0 view .LVU481
 1424 002e F0EEE88A 		vabs.f32	s17, s17
 1425              	.LVL59:
 232:Components/Controller/controller.c ****         pid->Measure = 0;
 1426              		.loc 1 232 9 view .LVU482
 1427 0032 DFEDB37A 		vldr.32	s15, .L156
 1428 0036 F4EE678A 		vcmp.f32	s17, s15
 1429 003a F1EE10FA 		vmrs	APSR_nzcv, FPSCR
 1430 003e 8CBF     		ite	hi
 1431 0040 0123     		movhi	r3, #1
 1432 0042 0023     		movls	r3, #0
 1433 0044 DFEDAF7A 		vldr.32	s15, .L156+4
 1434 0048 F4EE678A 		vcmp.f32	s17, s15
 1435 004c F1EE10FA 		vmrs	APSR_nzcv, FPSCR
 1436 0050 B8BF     		it	lt
 1437 0052 43F00103 		orrlt	r3, r3, #1
ARM GAS  C:\Users\86152\AppData\Local\Temp\ccrmPoSV.s 			page 39


 232:Components/Controller/controller.c ****         pid->Measure = 0;
 1438              		.loc 1 232 8 view .LVU483
 1439 0056 0BB1     		cbz	r3, .L125
 233:Components/Controller/controller.c ****     if (!isnormal(pid->Ref))
 1440              		.loc 1 233 9 is_stmt 1 view .LVU484
 233:Components/Controller/controller.c ****     if (!isnormal(pid->Ref))
 1441              		.loc 1 233 22 is_stmt 0 view .LVU485
 1442 0058 0023     		movs	r3, #0
 1443 005a 2361     		str	r3, [r4, #16]	@ float
 1444              	.LVL60:
 1445              	.L125:
 234:Components/Controller/controller.c ****         pid->Ref = 0;
 1446              		.loc 1 234 5 is_stmt 1 view .LVU486
 234:Components/Controller/controller.c ****         pid->Ref = 0;
 1447              		.loc 1 234 10 is_stmt 0 view .LVU487
 1448 005c B0EEC88A 		vabs.f32	s16, s16
 1449              	.LVL61:
 234:Components/Controller/controller.c ****         pid->Ref = 0;
 1450              		.loc 1 234 9 view .LVU488
 1451 0060 DFEDA77A 		vldr.32	s15, .L156
 1452 0064 B4EE678A 		vcmp.f32	s16, s15
 1453 0068 F1EE10FA 		vmrs	APSR_nzcv, FPSCR
 1454 006c 8CBF     		ite	hi
 1455 006e 0123     		movhi	r3, #1
 1456 0070 0023     		movls	r3, #0
 1457 0072 DFEDA47A 		vldr.32	s15, .L156+4
 1458 0076 B4EE678A 		vcmp.f32	s16, s15
 1459 007a F1EE10FA 		vmrs	APSR_nzcv, FPSCR
 1460 007e B8BF     		it	lt
 1461 0080 43F00103 		orrlt	r3, r3, #1
 234:Components/Controller/controller.c ****         pid->Ref = 0;
 1462              		.loc 1 234 8 view .LVU489
 1463 0084 0BB1     		cbz	r3, .L126
 235:Components/Controller/controller.c ****     pid->Err = pid->Ref - pid->Measure;
 1464              		.loc 1 235 9 is_stmt 1 view .LVU490
 235:Components/Controller/controller.c ****     pid->Err = pid->Ref - pid->Measure;
 1465              		.loc 1 235 18 is_stmt 0 view .LVU491
 1466 0086 0023     		movs	r3, #0
 1467 0088 2360     		str	r3, [r4]	@ float
 1468              	.LVL62:
 1469              	.L126:
 236:Components/Controller/controller.c **** 
 1470              		.loc 1 236 5 is_stmt 1 view .LVU492
 236:Components/Controller/controller.c **** 
 1471              		.loc 1 236 19 is_stmt 0 view .LVU493
 1472 008a D4ED007A 		vldr.32	s15, [r4]
 236:Components/Controller/controller.c **** 
 1473              		.loc 1 236 30 view .LVU494
 1474 008e 94ED047A 		vldr.32	s14, [r4, #16]
 236:Components/Controller/controller.c **** 
 1475              		.loc 1 236 25 view .LVU495
 1476 0092 77EEC77A 		vsub.f32	s15, s15, s14
 236:Components/Controller/controller.c **** 
 1477              		.loc 1 236 14 view .LVU496
 1478 0096 C4ED067A 		vstr.32	s15, [r4, #24]
 238:Components/Controller/controller.c ****         pid->User_Func1_f(pid);
 1479              		.loc 1 238 5 is_stmt 1 view .LVU497
ARM GAS  C:\Users\86152\AppData\Local\Temp\ccrmPoSV.s 			page 40


 238:Components/Controller/controller.c ****         pid->User_Func1_f(pid);
 1480              		.loc 1 238 12 is_stmt 0 view .LVU498
 1481 009a D4F8B030 		ldr	r3, [r4, #176]
 238:Components/Controller/controller.c ****         pid->User_Func1_f(pid);
 1482              		.loc 1 238 8 view .LVU499
 1483 009e 0BB1     		cbz	r3, .L127
 239:Components/Controller/controller.c **** 
 1484              		.loc 1 239 9 is_stmt 1 view .LVU500
 1485 00a0 2046     		mov	r0, r4
 1486 00a2 9847     		blx	r3
 1487              	.LVL63:
 1488              	.L127:
 241:Components/Controller/controller.c ****     {
 1489              		.loc 1 241 5 view .LVU501
 241:Components/Controller/controller.c ****     {
 1490              		.loc 1 241 9 is_stmt 0 view .LVU502
 1491 00a4 D4ED067A 		vldr.32	s15, [r4, #24]
 1492 00a8 F5EEC07A 		vcmpe.f32	s15, #0
 1493 00ac F1EE10FA 		vmrs	APSR_nzcv, FPSCR
 1494 00b0 40F3ED80 		ble	.L148
 1495 00b4 B0EE677A 		vmov.f32	s14, s15
 1496              	.L128:
 241:Components/Controller/controller.c ****     {
 1497              		.loc 1 241 28 discriminator 4 view .LVU503
 1498 00b8 D4ED126A 		vldr.32	s13, [r4, #72]
 241:Components/Controller/controller.c ****     {
 1499              		.loc 1 241 8 discriminator 4 view .LVU504
 1500 00bc F4EEC76A 		vcmpe.f32	s13, s14
 1501 00c0 F1EE10FA 		vmrs	APSR_nzcv, FPSCR
 1502 00c4 40F1D180 		bpl	.L129
 243:Components/Controller/controller.c ****         {
 1503              		.loc 1 243 9 is_stmt 1 view .LVU505
 243:Components/Controller/controller.c ****         {
 1504              		.loc 1 243 16 is_stmt 0 view .LVU506
 1505 00c8 D4F89830 		ldr	r3, [r4, #152]
 243:Components/Controller/controller.c ****         {
 1506              		.loc 1 243 12 view .LVU507
 1507 00cc 002B     		cmp	r3, #0
 1508 00ce 00F0E180 		beq	.L149
 254:Components/Controller/controller.c ****             pid->ITerm = (pid->Ki + pid->FuzzyRule->KiFuzzy) * pid->Err * pid->dt;
 1509              		.loc 1 254 13 is_stmt 1 view .LVU508
 254:Components/Controller/controller.c ****             pid->ITerm = (pid->Ki + pid->FuzzyRule->KiFuzzy) * pid->Err * pid->dt;
 1510              		.loc 1 254 29 is_stmt 0 view .LVU509
 1511 00d2 94ED017A 		vldr.32	s14, [r4, #4]
 254:Components/Controller/controller.c ****             pid->ITerm = (pid->Ki + pid->FuzzyRule->KiFuzzy) * pid->Err * pid->dt;
 1512              		.loc 1 254 50 view .LVU510
 1513 00d6 D3ED006A 		vldr.32	s13, [r3]
 254:Components/Controller/controller.c ****             pid->ITerm = (pid->Ki + pid->FuzzyRule->KiFuzzy) * pid->Err * pid->dt;
 1514              		.loc 1 254 34 view .LVU511
 1515 00da 37EE267A 		vadd.f32	s14, s14, s13
 254:Components/Controller/controller.c ****             pid->ITerm = (pid->Ki + pid->FuzzyRule->KiFuzzy) * pid->Err * pid->dt;
 1516              		.loc 1 254 61 view .LVU512
 1517 00de 27EE877A 		vmul.f32	s14, s15, s14
 254:Components/Controller/controller.c ****             pid->ITerm = (pid->Ki + pid->FuzzyRule->KiFuzzy) * pid->Err * pid->dt;
 1518              		.loc 1 254 23 view .LVU513
 1519 00e2 84ED097A 		vstr.32	s14, [r4, #36]
 255:Components/Controller/controller.c ****             // if (pid->OLS_Order > 2)
ARM GAS  C:\Users\86152\AppData\Local\Temp\ccrmPoSV.s 			page 41


 1520              		.loc 1 255 13 is_stmt 1 view .LVU514
 255:Components/Controller/controller.c ****             // if (pid->OLS_Order > 2)
 1521              		.loc 1 255 30 is_stmt 0 view .LVU515
 1522 00e6 94ED027A 		vldr.32	s14, [r4, #8]
 255:Components/Controller/controller.c ****             // if (pid->OLS_Order > 2)
 1523              		.loc 1 255 51 view .LVU516
 1524 00ea D3ED016A 		vldr.32	s13, [r3, #4]
 255:Components/Controller/controller.c ****             // if (pid->OLS_Order > 2)
 1525              		.loc 1 255 35 view .LVU517
 1526 00ee 37EE267A 		vadd.f32	s14, s14, s13
 255:Components/Controller/controller.c ****             // if (pid->OLS_Order > 2)
 1527              		.loc 1 255 62 view .LVU518
 1528 00f2 27EE877A 		vmul.f32	s14, s15, s14
 255:Components/Controller/controller.c ****             // if (pid->OLS_Order > 2)
 1529              		.loc 1 255 78 view .LVU519
 1530 00f6 D4ED256A 		vldr.32	s13, [r4, #148]
 255:Components/Controller/controller.c ****             // if (pid->OLS_Order > 2)
 1531              		.loc 1 255 73 view .LVU520
 1532 00fa 27EE267A 		vmul.f32	s14, s14, s13
 255:Components/Controller/controller.c ****             // if (pid->OLS_Order > 2)
 1533              		.loc 1 255 24 view .LVU521
 1534 00fe 84ED0C7A 		vstr.32	s14, [r4, #48]
 259:Components/Controller/controller.c ****         }
 1535              		.loc 1 259 13 is_stmt 1 view .LVU522
 259:Components/Controller/controller.c ****         }
 1536              		.loc 1 259 29 is_stmt 0 view .LVU523
 1537 0102 94ED037A 		vldr.32	s14, [r4, #12]
 259:Components/Controller/controller.c ****         }
 1538              		.loc 1 259 50 view .LVU524
 1539 0106 93ED026A 		vldr.32	s12, [r3, #8]
 259:Components/Controller/controller.c ****         }
 1540              		.loc 1 259 34 view .LVU525
 1541 010a 37EE067A 		vadd.f32	s14, s14, s12
 259:Components/Controller/controller.c ****         }
 1542              		.loc 1 259 78 view .LVU526
 1543 010e 94ED076A 		vldr.32	s12, [r4, #28]
 259:Components/Controller/controller.c ****         }
 1544              		.loc 1 259 73 view .LVU527
 1545 0112 77EEC67A 		vsub.f32	s15, s15, s12
 259:Components/Controller/controller.c ****         }
 1546              		.loc 1 259 61 view .LVU528
 1547 0116 67EE277A 		vmul.f32	s15, s14, s15
 259:Components/Controller/controller.c ****         }
 1548              		.loc 1 259 90 view .LVU529
 1549 011a 87EEA67A 		vdiv.f32	s14, s15, s13
 259:Components/Controller/controller.c ****         }
 1550              		.loc 1 259 23 view .LVU530
 1551 011e 84ED0B7A 		vstr.32	s14, [r4, #44]
 1552              	.L132:
 262:Components/Controller/controller.c ****             pid->User_Func2_f(pid);
 1553              		.loc 1 262 9 is_stmt 1 view .LVU531
 262:Components/Controller/controller.c ****             pid->User_Func2_f(pid);
 1554              		.loc 1 262 16 is_stmt 0 view .LVU532
 1555 0122 D4F8B430 		ldr	r3, [r4, #180]
 262:Components/Controller/controller.c ****             pid->User_Func2_f(pid);
 1556              		.loc 1 262 12 view .LVU533
 1557 0126 0BB1     		cbz	r3, .L133
ARM GAS  C:\Users\86152\AppData\Local\Temp\ccrmPoSV.s 			page 42


 263:Components/Controller/controller.c **** 
 1558              		.loc 1 263 13 is_stmt 1 view .LVU534
 1559 0128 2046     		mov	r0, r4
 1560 012a 9847     		blx	r3
 1561              	.LVL64:
 1562              	.L133:
 266:Components/Controller/controller.c ****             f_Trapezoid_Intergral(pid);
 1563              		.loc 1 266 9 view .LVU535
 266:Components/Controller/controller.c ****             f_Trapezoid_Intergral(pid);
 1564              		.loc 1 266 16 is_stmt 0 view .LVU536
 1565 012c 94F89C30 		ldrb	r3, [r4, #156]	@ zero_extendqisi2
 266:Components/Controller/controller.c ****             f_Trapezoid_Intergral(pid);
 1566              		.loc 1 266 12 view .LVU537
 1567 0130 13F0040F 		tst	r3, #4
 1568 0134 40F0CB80 		bne	.L150
 1569              	.L134:
 269:Components/Controller/controller.c ****             f_Changing_Integration_Rate(pid);
 1570              		.loc 1 269 9 is_stmt 1 view .LVU538
 269:Components/Controller/controller.c ****             f_Changing_Integration_Rate(pid);
 1571              		.loc 1 269 16 is_stmt 0 view .LVU539
 1572 0138 94F89C30 		ldrb	r3, [r4, #156]	@ zero_extendqisi2
 269:Components/Controller/controller.c ****             f_Changing_Integration_Rate(pid);
 1573              		.loc 1 269 12 view .LVU540
 1574 013c 13F0200F 		tst	r3, #32
 1575 0140 40F0C980 		bne	.L151
 1576              	.L135:
 272:Components/Controller/controller.c ****             f_Derivative_On_Measurement(pid);
 1577              		.loc 1 272 9 is_stmt 1 view .LVU541
 272:Components/Controller/controller.c ****             f_Derivative_On_Measurement(pid);
 1578              		.loc 1 272 16 is_stmt 0 view .LVU542
 1579 0144 94F89C30 		ldrb	r3, [r4, #156]	@ zero_extendqisi2
 272:Components/Controller/controller.c ****             f_Derivative_On_Measurement(pid);
 1580              		.loc 1 272 12 view .LVU543
 1581 0148 13F0020F 		tst	r3, #2
 1582 014c 40F0C780 		bne	.L152
 1583              	.L136:
 275:Components/Controller/controller.c ****             f_Derivative_Filter(pid);
 1584              		.loc 1 275 9 is_stmt 1 view .LVU544
 275:Components/Controller/controller.c ****             f_Derivative_Filter(pid);
 1585              		.loc 1 275 16 is_stmt 0 view .LVU545
 1586 0150 94F89C30 		ldrb	r3, [r4, #156]	@ zero_extendqisi2
 275:Components/Controller/controller.c ****             f_Derivative_Filter(pid);
 1587              		.loc 1 275 12 view .LVU546
 1588 0154 13F0400F 		tst	r3, #64
 1589 0158 40F0C580 		bne	.L153
 1590              	.L137:
 278:Components/Controller/controller.c ****             f_Integral_Limit(pid);
 1591              		.loc 1 278 9 is_stmt 1 view .LVU547
 278:Components/Controller/controller.c ****             f_Integral_Limit(pid);
 1592              		.loc 1 278 16 is_stmt 0 view .LVU548
 1593 015c 94F89C30 		ldrb	r3, [r4, #156]	@ zero_extendqisi2
 278:Components/Controller/controller.c ****             f_Integral_Limit(pid);
 1594              		.loc 1 278 12 view .LVU549
 1595 0160 13F0010F 		tst	r3, #1
 1596 0164 40F0C380 		bne	.L154
 1597              	.L138:
 281:Components/Controller/controller.c ****             pid->ITerm = 0;
ARM GAS  C:\Users\86152\AppData\Local\Temp\ccrmPoSV.s 			page 43


 1598              		.loc 1 281 9 is_stmt 1 view .LVU550
 281:Components/Controller/controller.c ****             pid->ITerm = 0;
 1599              		.loc 1 281 14 is_stmt 0 view .LVU551
 1600 0168 D4ED0C7A 		vldr.32	s15, [r4, #48]
 1601 016c F0EEE77A 		vabs.f32	s15, s15
 281:Components/Controller/controller.c ****             pid->ITerm = 0;
 1602              		.loc 1 281 13 view .LVU552
 1603 0170 9FED637A 		vldr.32	s14, .L156
 1604 0174 F4EE477A 		vcmp.f32	s15, s14
 1605 0178 F1EE10FA 		vmrs	APSR_nzcv, FPSCR
 1606 017c 8CBF     		ite	hi
 1607 017e 0123     		movhi	r3, #1
 1608 0180 0023     		movls	r3, #0
 1609 0182 9FED607A 		vldr.32	s14, .L156+4
 1610 0186 F4EE477A 		vcmp.f32	s15, s14
 1611 018a F1EE10FA 		vmrs	APSR_nzcv, FPSCR
 1612 018e B8BF     		it	lt
 1613 0190 43F00103 		orrlt	r3, r3, #1
 281:Components/Controller/controller.c ****             pid->ITerm = 0;
 1614              		.loc 1 281 12 view .LVU553
 1615 0194 0BB1     		cbz	r3, .L139
 282:Components/Controller/controller.c **** 
 1616              		.loc 1 282 13 is_stmt 1 view .LVU554
 282:Components/Controller/controller.c **** 
 1617              		.loc 1 282 24 is_stmt 0 view .LVU555
 1618 0196 0023     		movs	r3, #0
 1619 0198 2363     		str	r3, [r4, #48]	@ float
 1620              	.L139:
 284:Components/Controller/controller.c **** 
 1621              		.loc 1 284 9 is_stmt 1 view .LVU556
 284:Components/Controller/controller.c **** 
 1622              		.loc 1 284 25 is_stmt 0 view .LVU557
 1623 019a D4ED0C7A 		vldr.32	s15, [r4, #48]
 284:Components/Controller/controller.c **** 
 1624              		.loc 1 284 19 view .LVU558
 1625 019e 94ED0A7A 		vldr.32	s14, [r4, #40]
 1626 01a2 77EE877A 		vadd.f32	s15, s15, s14
 1627 01a6 C4ED0A7A 		vstr.32	s15, [r4, #40]
 286:Components/Controller/controller.c ****             pid->Pout = 0;
 1628              		.loc 1 286 9 is_stmt 1 view .LVU559
 286:Components/Controller/controller.c ****             pid->Pout = 0;
 1629              		.loc 1 286 14 is_stmt 0 view .LVU560
 1630 01aa 94ED097A 		vldr.32	s14, [r4, #36]
 1631 01ae B0EEC77A 		vabs.f32	s14, s14
 286:Components/Controller/controller.c ****             pid->Pout = 0;
 1632              		.loc 1 286 13 view .LVU561
 1633 01b2 DFED536A 		vldr.32	s13, .L156
 1634 01b6 B4EE667A 		vcmp.f32	s14, s13
 1635 01ba F1EE10FA 		vmrs	APSR_nzcv, FPSCR
 1636 01be 8CBF     		ite	hi
 1637 01c0 0123     		movhi	r3, #1
 1638 01c2 0023     		movls	r3, #0
 1639 01c4 DFED4F6A 		vldr.32	s13, .L156+4
 1640 01c8 B4EE667A 		vcmp.f32	s14, s13
 1641 01cc F1EE10FA 		vmrs	APSR_nzcv, FPSCR
 1642 01d0 B8BF     		it	lt
 1643 01d2 43F00103 		orrlt	r3, r3, #1
ARM GAS  C:\Users\86152\AppData\Local\Temp\ccrmPoSV.s 			page 44


 286:Components/Controller/controller.c ****             pid->Pout = 0;
 1644              		.loc 1 286 12 view .LVU562
 1645 01d6 0BB1     		cbz	r3, .L140
 287:Components/Controller/controller.c ****         if (!isnormal(pid->Iout))
 1646              		.loc 1 287 13 is_stmt 1 view .LVU563
 287:Components/Controller/controller.c ****         if (!isnormal(pid->Iout))
 1647              		.loc 1 287 23 is_stmt 0 view .LVU564
 1648 01d8 0023     		movs	r3, #0
 1649 01da 6362     		str	r3, [r4, #36]	@ float
 1650              	.L140:
 288:Components/Controller/controller.c ****             pid->Iout = 0;
 1651              		.loc 1 288 9 is_stmt 1 view .LVU565
 288:Components/Controller/controller.c ****             pid->Iout = 0;
 1652              		.loc 1 288 14 is_stmt 0 view .LVU566
 1653 01dc F0EEE77A 		vabs.f32	s15, s15
 288:Components/Controller/controller.c ****             pid->Iout = 0;
 1654              		.loc 1 288 13 view .LVU567
 1655 01e0 9FED477A 		vldr.32	s14, .L156
 1656 01e4 F4EE477A 		vcmp.f32	s15, s14
 1657 01e8 F1EE10FA 		vmrs	APSR_nzcv, FPSCR
 1658 01ec 8CBF     		ite	hi
 1659 01ee 0123     		movhi	r3, #1
 1660 01f0 0023     		movls	r3, #0
 1661 01f2 9FED447A 		vldr.32	s14, .L156+4
 1662 01f6 F4EE477A 		vcmp.f32	s15, s14
 1663 01fa F1EE10FA 		vmrs	APSR_nzcv, FPSCR
 1664 01fe B8BF     		it	lt
 1665 0200 43F00103 		orrlt	r3, r3, #1
 288:Components/Controller/controller.c ****             pid->Iout = 0;
 1666              		.loc 1 288 12 view .LVU568
 1667 0204 0BB1     		cbz	r3, .L141
 289:Components/Controller/controller.c ****         if (!isnormal(pid->Dout))
 1668              		.loc 1 289 13 is_stmt 1 view .LVU569
 289:Components/Controller/controller.c ****         if (!isnormal(pid->Dout))
 1669              		.loc 1 289 23 is_stmt 0 view .LVU570
 1670 0206 0023     		movs	r3, #0
 1671 0208 A362     		str	r3, [r4, #40]	@ float
 1672              	.L141:
 290:Components/Controller/controller.c ****             pid->Dout = 0;
 1673              		.loc 1 290 9 is_stmt 1 view .LVU571
 290:Components/Controller/controller.c ****             pid->Dout = 0;
 1674              		.loc 1 290 14 is_stmt 0 view .LVU572
 1675 020a D4ED0B7A 		vldr.32	s15, [r4, #44]
 1676 020e F0EEE77A 		vabs.f32	s15, s15
 290:Components/Controller/controller.c ****             pid->Dout = 0;
 1677              		.loc 1 290 13 view .LVU573
 1678 0212 9FED3B7A 		vldr.32	s14, .L156
 1679 0216 F4EE477A 		vcmp.f32	s15, s14
 1680 021a F1EE10FA 		vmrs	APSR_nzcv, FPSCR
 1681 021e 8CBF     		ite	hi
 1682 0220 0123     		movhi	r3, #1
 1683 0222 0023     		movls	r3, #0
 1684 0224 9FED377A 		vldr.32	s14, .L156+4
 1685 0228 F4EE477A 		vcmp.f32	s15, s14
 1686 022c F1EE10FA 		vmrs	APSR_nzcv, FPSCR
 1687 0230 B8BF     		it	lt
 1688 0232 43F00103 		orrlt	r3, r3, #1
ARM GAS  C:\Users\86152\AppData\Local\Temp\ccrmPoSV.s 			page 45


 290:Components/Controller/controller.c ****             pid->Dout = 0;
 1689              		.loc 1 290 12 view .LVU574
 1690 0236 0BB1     		cbz	r3, .L142
 291:Components/Controller/controller.c **** 
 1691              		.loc 1 291 13 is_stmt 1 view .LVU575
 291:Components/Controller/controller.c **** 
 1692              		.loc 1 291 23 is_stmt 0 view .LVU576
 1693 0238 0023     		movs	r3, #0
 1694 023a E362     		str	r3, [r4, #44]	@ float
 1695              	.L142:
 293:Components/Controller/controller.c **** 
 1696              		.loc 1 293 9 is_stmt 1 view .LVU577
 293:Components/Controller/controller.c **** 
 1697              		.loc 1 293 26 is_stmt 0 view .LVU578
 1698 023c D4ED097A 		vldr.32	s15, [r4, #36]
 293:Components/Controller/controller.c **** 
 1699              		.loc 1 293 38 view .LVU579
 1700 0240 94ED0A7A 		vldr.32	s14, [r4, #40]
 293:Components/Controller/controller.c **** 
 1701              		.loc 1 293 33 view .LVU580
 1702 0244 77EE877A 		vadd.f32	s15, s15, s14
 293:Components/Controller/controller.c **** 
 1703              		.loc 1 293 50 view .LVU581
 1704 0248 94ED0B7A 		vldr.32	s14, [r4, #44]
 293:Components/Controller/controller.c **** 
 1705              		.loc 1 293 45 view .LVU582
 1706 024c 77EE877A 		vadd.f32	s15, s15, s14
 293:Components/Controller/controller.c **** 
 1707              		.loc 1 293 21 view .LVU583
 1708 0250 C4ED0D7A 		vstr.32	s15, [r4, #52]
 296:Components/Controller/controller.c ****             f_Output_Filter(pid);
 1709              		.loc 1 296 9 is_stmt 1 view .LVU584
 296:Components/Controller/controller.c ****             f_Output_Filter(pid);
 1710              		.loc 1 296 16 is_stmt 0 view .LVU585
 1711 0254 94F89C30 		ldrb	r3, [r4, #156]	@ zero_extendqisi2
 296:Components/Controller/controller.c ****             f_Output_Filter(pid);
 1712              		.loc 1 296 12 view .LVU586
 1713 0258 13F0100F 		tst	r3, #16
 1714 025c 4BD1     		bne	.L155
 1715              	.L143:
 300:Components/Controller/controller.c **** 
 1716              		.loc 1 300 9 is_stmt 1 view .LVU587
 1717 025e 2046     		mov	r0, r4
 1718 0260 FFF7FEFF 		bl	f_Output_Limit
 1719              	.LVL65:
 303:Components/Controller/controller.c ****     }
 1720              		.loc 1 303 9 view .LVU588
 1721 0264 2046     		mov	r0, r4
 1722 0266 FFF7FEFF 		bl	f_Proportion_Limit
 1723              	.LVL66:
 1724              	.L129:
 306:Components/Controller/controller.c ****     pid->Last_Output = pid->Output;
 1725              		.loc 1 306 5 view .LVU589
 306:Components/Controller/controller.c ****     pid->Last_Output = pid->Output;
 1726              		.loc 1 306 28 is_stmt 0 view .LVU590
 1727 026a 2369     		ldr	r3, [r4, #16]	@ float
 306:Components/Controller/controller.c ****     pid->Last_Output = pid->Output;
ARM GAS  C:\Users\86152\AppData\Local\Temp\ccrmPoSV.s 			page 46


 1728              		.loc 1 306 23 view .LVU591
 1729 026c 6361     		str	r3, [r4, #20]	@ float
 307:Components/Controller/controller.c ****     pid->Last_Dout = pid->Dout;
 1730              		.loc 1 307 5 is_stmt 1 view .LVU592
 307:Components/Controller/controller.c ****     pid->Last_Dout = pid->Dout;
 1731              		.loc 1 307 27 is_stmt 0 view .LVU593
 1732 026e 94ED0D0A 		vldr.32	s0, [r4, #52]
 307:Components/Controller/controller.c ****     pid->Last_Dout = pid->Dout;
 1733              		.loc 1 307 22 view .LVU594
 1734 0272 84ED0E0A 		vstr.32	s0, [r4, #56]
 308:Components/Controller/controller.c ****     pid->Last_Err = pid->Err;
 1735              		.loc 1 308 5 is_stmt 1 view .LVU595
 308:Components/Controller/controller.c ****     pid->Last_Err = pid->Err;
 1736              		.loc 1 308 25 is_stmt 0 view .LVU596
 1737 0276 E36A     		ldr	r3, [r4, #44]	@ float
 308:Components/Controller/controller.c ****     pid->Last_Err = pid->Err;
 1738              		.loc 1 308 20 view .LVU597
 1739 0278 E363     		str	r3, [r4, #60]	@ float
 309:Components/Controller/controller.c ****     pid->Last_ITerm = pid->ITerm;
 1740              		.loc 1 309 5 is_stmt 1 view .LVU598
 309:Components/Controller/controller.c ****     pid->Last_ITerm = pid->ITerm;
 1741              		.loc 1 309 24 is_stmt 0 view .LVU599
 1742 027a A369     		ldr	r3, [r4, #24]	@ float
 309:Components/Controller/controller.c ****     pid->Last_ITerm = pid->ITerm;
 1743              		.loc 1 309 19 view .LVU600
 1744 027c E361     		str	r3, [r4, #28]	@ float
 310:Components/Controller/controller.c **** 
 1745              		.loc 1 310 5 is_stmt 1 view .LVU601
 310:Components/Controller/controller.c **** 
 1746              		.loc 1 310 26 is_stmt 0 view .LVU602
 1747 027e 236B     		ldr	r3, [r4, #48]	@ float
 310:Components/Controller/controller.c **** 
 1748              		.loc 1 310 21 view .LVU603
 1749 0280 2362     		str	r3, [r4, #32]	@ float
 312:Components/Controller/controller.c **** }
 1750              		.loc 1 312 5 is_stmt 1 view .LVU604
 313:Components/Controller/controller.c **** static void f_Trapezoid_Intergral(PID_t *pid)
 1751              		.loc 1 313 1 is_stmt 0 view .LVU605
 1752 0282 BDEC028B 		vldm	sp!, {d8}
 1753              	.LCFI10:
 1754              		.cfi_remember_state
 1755              		.cfi_restore 80
 1756              		.cfi_restore 81
 1757              		.cfi_def_cfa_offset 8
 1758 0286 10BD     		pop	{r4, pc}
 1759              	.LVL67:
 1760              	.L147:
 1761              	.LCFI11:
 1762              		.cfi_restore_state
 226:Components/Controller/controller.c **** 
 1763              		.loc 1 226 9 is_stmt 1 view .LVU606
 1764 0288 FFF7FEFF 		bl	f_PID_ErrorHandle
 1765              	.LVL68:
 226:Components/Controller/controller.c **** 
 1766              		.loc 1 226 9 is_stmt 0 view .LVU607
 1767 028c C5E6     		b	.L124
 1768              	.LVL69:
ARM GAS  C:\Users\86152\AppData\Local\Temp\ccrmPoSV.s 			page 47


 1769              	.L148:
 241:Components/Controller/controller.c ****     {
 1770              		.loc 1 241 9 discriminator 2 view .LVU608
 1771 028e B1EE677A 		vneg.f32	s14, s15
 1772 0292 11E7     		b	.L128
 1773              	.L149:
 245:Components/Controller/controller.c ****             pid->ITerm = pid->Ki * pid->Err * pid->dt;
 1774              		.loc 1 245 13 is_stmt 1 view .LVU609
 245:Components/Controller/controller.c ****             pid->ITerm = pid->Ki * pid->Err * pid->dt;
 1775              		.loc 1 245 28 is_stmt 0 view .LVU610
 1776 0294 94ED017A 		vldr.32	s14, [r4, #4]
 245:Components/Controller/controller.c ****             pid->ITerm = pid->Ki * pid->Err * pid->dt;
 1777              		.loc 1 245 33 view .LVU611
 1778 0298 27EE877A 		vmul.f32	s14, s15, s14
 245:Components/Controller/controller.c ****             pid->ITerm = pid->Ki * pid->Err * pid->dt;
 1779              		.loc 1 245 23 view .LVU612
 1780 029c 84ED097A 		vstr.32	s14, [r4, #36]
 246:Components/Controller/controller.c ****             // if (pid->OLS_Order > 2)
 1781              		.loc 1 246 13 is_stmt 1 view .LVU613
 246:Components/Controller/controller.c ****             // if (pid->OLS_Order > 2)
 1782              		.loc 1 246 29 is_stmt 0 view .LVU614
 1783 02a0 94ED027A 		vldr.32	s14, [r4, #8]
 246:Components/Controller/controller.c ****             // if (pid->OLS_Order > 2)
 1784              		.loc 1 246 34 view .LVU615
 1785 02a4 27EE877A 		vmul.f32	s14, s15, s14
 246:Components/Controller/controller.c ****             // if (pid->OLS_Order > 2)
 1786              		.loc 1 246 50 view .LVU616
 1787 02a8 D4ED256A 		vldr.32	s13, [r4, #148]
 246:Components/Controller/controller.c ****             // if (pid->OLS_Order > 2)
 1788              		.loc 1 246 45 view .LVU617
 1789 02ac 27EE267A 		vmul.f32	s14, s14, s13
 246:Components/Controller/controller.c ****             // if (pid->OLS_Order > 2)
 1790              		.loc 1 246 24 view .LVU618
 1791 02b0 84ED0C7A 		vstr.32	s14, [r4, #48]
 250:Components/Controller/controller.c ****         }
 1792              		.loc 1 250 13 is_stmt 1 view .LVU619
 250:Components/Controller/controller.c ****         }
 1793              		.loc 1 250 28 is_stmt 0 view .LVU620
 1794 02b4 94ED037A 		vldr.32	s14, [r4, #12]
 250:Components/Controller/controller.c ****         }
 1795              		.loc 1 250 50 view .LVU621
 1796 02b8 94ED076A 		vldr.32	s12, [r4, #28]
 250:Components/Controller/controller.c ****         }
 1797              		.loc 1 250 45 view .LVU622
 1798 02bc 77EEC67A 		vsub.f32	s15, s15, s12
 250:Components/Controller/controller.c ****         }
 1799              		.loc 1 250 33 view .LVU623
 1800 02c0 67EE277A 		vmul.f32	s15, s14, s15
 250:Components/Controller/controller.c ****         }
 1801              		.loc 1 250 62 view .LVU624
 1802 02c4 87EEA67A 		vdiv.f32	s14, s15, s13
 250:Components/Controller/controller.c ****         }
 1803              		.loc 1 250 23 view .LVU625
 1804 02c8 84ED0B7A 		vstr.32	s14, [r4, #44]
 1805 02cc 29E7     		b	.L132
 1806              	.L150:
 267:Components/Controller/controller.c ****         // ???????
ARM GAS  C:\Users\86152\AppData\Local\Temp\ccrmPoSV.s 			page 48


 1807              		.loc 1 267 13 is_stmt 1 view .LVU626
 1808 02ce 2046     		mov	r0, r4
 1809 02d0 FFF7FEFF 		bl	f_Trapezoid_Intergral
 1810              	.LVL70:
 1811 02d4 30E7     		b	.L134
 1812              	.L151:
 270:Components/Controller/controller.c ****         // ???????
 1813              		.loc 1 270 13 view .LVU627
 1814 02d6 2046     		mov	r0, r4
 1815 02d8 FFF7FEFF 		bl	f_Changing_Integration_Rate
 1816              	.LVL71:
 1817 02dc 32E7     		b	.L135
 1818              	.L152:
 273:Components/Controller/controller.c ****         // ????????
 1819              		.loc 1 273 13 view .LVU628
 1820 02de 2046     		mov	r0, r4
 1821 02e0 FFF7FEFF 		bl	f_Derivative_On_Measurement
 1822              	.LVL72:
 1823 02e4 34E7     		b	.L136
 1824              	.L153:
 276:Components/Controller/controller.c ****         // ???????
 1825              		.loc 1 276 13 view .LVU629
 1826 02e6 2046     		mov	r0, r4
 1827 02e8 FFF7FEFF 		bl	f_Derivative_Filter
 1828              	.LVL73:
 1829 02ec 36E7     		b	.L137
 1830              	.L154:
 279:Components/Controller/controller.c **** 
 1831              		.loc 1 279 13 view .LVU630
 1832 02ee 2046     		mov	r0, r4
 1833 02f0 FFF7FEFF 		bl	f_Integral_Limit
 1834              	.LVL74:
 1835 02f4 38E7     		b	.L138
 1836              	.L155:
 297:Components/Controller/controller.c **** 
 1837              		.loc 1 297 13 view .LVU631
 1838 02f6 2046     		mov	r0, r4
 1839 02f8 FFF7FEFF 		bl	f_Output_Filter
 1840              	.LVL75:
 1841 02fc AFE7     		b	.L143
 1842              	.L157:
 1843 02fe 00BF     		.align	2
 1844              	.L156:
 1845 0300 FFFF7F7F 		.word	2139095039
 1846 0304 00008000 		.word	8388608
 1847              		.cfi_endproc
 1848              	.LFE171:
 1850              		.section	.text.Feedforward_Init,"ax",%progbits
 1851              		.align	1
 1852              		.global	Feedforward_Init
 1853              		.syntax unified
 1854              		.thumb
 1855              		.thumb_func
 1857              	Feedforward_Init:
 1858              	.LVL76:
 1859              	.LFB181:
 441:Components/Controller/controller.c **** 
ARM GAS  C:\Users\86152\AppData\Local\Temp\ccrmPoSV.s 			page 49


 442:Components/Controller/controller.c **** /*************************** FEEDFORWARD CONTROL *****************************/
 443:Components/Controller/controller.c **** /**
 444:Components/Controller/controller.c ****  * @brief          ???????????
 445:Components/Controller/controller.c ****  * @param[in]      ??????????
 446:Components/Controller/controller.c ****  * @param[in]      ??
 447:Components/Controller/controller.c ****  * @retval         ?????
 448:Components/Controller/controller.c ****  */
 449:Components/Controller/controller.c **** void Feedforward_Init(
 450:Components/Controller/controller.c ****     Feedforward_t *ffc,
 451:Components/Controller/controller.c ****     float max_out,
 452:Components/Controller/controller.c ****     float *c,
 453:Components/Controller/controller.c ****     float lpf_rc,
 454:Components/Controller/controller.c ****     uint16_t ref_dot_ols_order,
 455:Components/Controller/controller.c ****     uint16_t ref_ddot_ols_order)
 456:Components/Controller/controller.c **** {
 1860              		.loc 1 456 1 view -0
 1861              		.cfi_startproc
 1862              		@ args = 0, pretend = 0, frame = 0
 1863              		@ frame_needed = 0, uses_anonymous_args = 0
 1864              		.loc 1 456 1 is_stmt 0 view .LVU633
 1865 0000 38B5     		push	{r3, r4, r5, lr}
 1866              	.LCFI12:
 1867              		.cfi_def_cfa_offset 16
 1868              		.cfi_offset 3, -16
 1869              		.cfi_offset 4, -12
 1870              		.cfi_offset 5, -8
 1871              		.cfi_offset 14, -4
 1872 0002 0446     		mov	r4, r0
 1873 0004 1D46     		mov	r5, r3
 457:Components/Controller/controller.c ****     ffc->MaxOut = max_out;
 1874              		.loc 1 457 5 is_stmt 1 view .LVU634
 1875              		.loc 1 457 17 is_stmt 0 view .LVU635
 1876 0006 80ED250A 		vstr.32	s0, [r0, #148]
 458:Components/Controller/controller.c **** 
 459:Components/Controller/controller.c ****     // ????????????????? ????????????G??
 460:Components/Controller/controller.c ****     // set parameters of feed-forward controller (see struct definition)
 461:Components/Controller/controller.c ****     if (c != NULL && ffc != NULL)
 1877              		.loc 1 461 5 is_stmt 1 view .LVU636
 1878              		.loc 1 461 8 is_stmt 0 view .LVU637
 1879 000a 41B1     		cbz	r1, .L159
 1880 000c 0B46     		mov	r3, r1
 1881              	.LVL77:
 1882              		.loc 1 461 19 discriminator 1 view .LVU638
 1883 000e 30B1     		cbz	r0, .L159
 462:Components/Controller/controller.c ****     {
 463:Components/Controller/controller.c ****         ffc->c[0] = c[0];
 1884              		.loc 1 463 9 is_stmt 1 view .LVU639
 1885              		.loc 1 463 22 is_stmt 0 view .LVU640
 1886 0010 0968     		ldr	r1, [r1]	@ float
 1887              	.LVL78:
 1888              		.loc 1 463 19 view .LVU641
 1889 0012 0160     		str	r1, [r0]	@ float
 464:Components/Controller/controller.c ****         ffc->c[1] = c[1];
 1890              		.loc 1 464 9 is_stmt 1 view .LVU642
 1891              		.loc 1 464 19 is_stmt 0 view .LVU643
 1892 0014 5968     		ldr	r1, [r3, #4]	@ float
 1893 0016 4160     		str	r1, [r0, #4]	@ float
ARM GAS  C:\Users\86152\AppData\Local\Temp\ccrmPoSV.s 			page 50


 465:Components/Controller/controller.c ****         ffc->c[2] = c[2];
 1894              		.loc 1 465 9 is_stmt 1 view .LVU644
 1895              		.loc 1 465 19 is_stmt 0 view .LVU645
 1896 0018 9B68     		ldr	r3, [r3, #8]	@ float
 1897              	.LVL79:
 1898              		.loc 1 465 19 view .LVU646
 1899 001a 8360     		str	r3, [r0, #8]	@ float
 1900 001c 05E0     		b	.L160
 1901              	.LVL80:
 1902              	.L159:
 466:Components/Controller/controller.c ****     }
 467:Components/Controller/controller.c ****     else
 468:Components/Controller/controller.c ****     {
 469:Components/Controller/controller.c ****         ffc->c[0] = 0;
 1903              		.loc 1 469 9 is_stmt 1 view .LVU647
 1904              		.loc 1 469 19 is_stmt 0 view .LVU648
 1905 001e 0023     		movs	r3, #0
 1906 0020 2360     		str	r3, [r4]	@ float
 470:Components/Controller/controller.c ****         ffc->c[1] = 0;
 1907              		.loc 1 470 9 is_stmt 1 view .LVU649
 1908              		.loc 1 470 19 is_stmt 0 view .LVU650
 1909 0022 6360     		str	r3, [r4, #4]	@ float
 471:Components/Controller/controller.c ****         ffc->c[2] = 0;
 1910              		.loc 1 471 9 is_stmt 1 view .LVU651
 1911              		.loc 1 471 19 is_stmt 0 view .LVU652
 1912 0024 A360     		str	r3, [r4, #8]	@ float
 472:Components/Controller/controller.c ****         ffc->MaxOut = 0;
 1913              		.loc 1 472 9 is_stmt 1 view .LVU653
 1914              		.loc 1 472 21 is_stmt 0 view .LVU654
 1915 0026 C4F89430 		str	r3, [r4, #148]	@ float
 1916              	.LVL81:
 1917              	.L160:
 473:Components/Controller/controller.c ****     }
 474:Components/Controller/controller.c **** 
 475:Components/Controller/controller.c ****     ffc->LPF_RC = lpf_rc;
 1918              		.loc 1 475 5 is_stmt 1 view .LVU655
 1919              		.loc 1 475 17 is_stmt 0 view .LVU656
 1920 002a C4ED080A 		vstr.32	s1, [r4, #32]
 476:Components/Controller/controller.c **** 
 477:Components/Controller/controller.c ****     // ??§³?????????????????
 478:Components/Controller/controller.c ****     // differential signal is distilled by OLS
 479:Components/Controller/controller.c ****     ffc->Ref_dot_OLS_Order = ref_dot_ols_order;
 1921              		.loc 1 479 5 is_stmt 1 view .LVU657
 1922              		.loc 1 479 28 is_stmt 0 view .LVU658
 1923 002e 2286     		strh	r2, [r4, #48]	@ movhi
 480:Components/Controller/controller.c ****     ffc->Ref_ddot_OLS_Order = ref_ddot_ols_order;
 1924              		.loc 1 480 5 is_stmt 1 view .LVU659
 1925              		.loc 1 480 29 is_stmt 0 view .LVU660
 1926 0030 A4F86050 		strh	r5, [r4, #96]	@ movhi
 481:Components/Controller/controller.c ****     if (ref_dot_ols_order > 2)
 1927              		.loc 1 481 5 is_stmt 1 view .LVU661
 1928              		.loc 1 481 8 is_stmt 0 view .LVU662
 1929 0034 022A     		cmp	r2, #2
 1930 0036 07D8     		bhi	.L164
 1931              	.LVL82:
 1932              	.L161:
 482:Components/Controller/controller.c ****         OLS_Init(&ffc->Ref_dot_OLS, ref_dot_ols_order);
ARM GAS  C:\Users\86152\AppData\Local\Temp\ccrmPoSV.s 			page 51


 483:Components/Controller/controller.c ****     if (ref_ddot_ols_order > 2)
 1933              		.loc 1 483 5 is_stmt 1 view .LVU663
 1934              		.loc 1 483 8 is_stmt 0 view .LVU664
 1935 0038 022D     		cmp	r5, #2
 1936 003a 0BD8     		bhi	.L165
 1937              	.L162:
 484:Components/Controller/controller.c ****         OLS_Init(&ffc->Ref_ddot_OLS, ref_ddot_ols_order);
 485:Components/Controller/controller.c **** 
 486:Components/Controller/controller.c ****     ffc->DWT_CNT = 0;
 1938              		.loc 1 486 5 is_stmt 1 view .LVU665
 1939              		.loc 1 486 18 is_stmt 0 view .LVU666
 1940 003c 0023     		movs	r3, #0
 1941 003e A361     		str	r3, [r4, #24]
 487:Components/Controller/controller.c **** 
 488:Components/Controller/controller.c ****     ffc->Output = 0;
 1942              		.loc 1 488 5 is_stmt 1 view .LVU667
 1943              		.loc 1 488 17 is_stmt 0 view .LVU668
 1944 0040 0023     		movs	r3, #0
 1945 0042 C4F89030 		str	r3, [r4, #144]	@ float
 489:Components/Controller/controller.c **** }
 1946              		.loc 1 489 1 view .LVU669
 1947 0046 38BD     		pop	{r3, r4, r5, pc}
 1948              	.LVL83:
 1949              	.L164:
 482:Components/Controller/controller.c ****     if (ref_ddot_ols_order > 2)
 1950              		.loc 1 482 9 is_stmt 1 view .LVU670
 1951 0048 1146     		mov	r1, r2
 1952 004a 04F13400 		add	r0, r4, #52
 1953              	.LVL84:
 482:Components/Controller/controller.c ****     if (ref_ddot_ols_order > 2)
 1954              		.loc 1 482 9 is_stmt 0 view .LVU671
 1955 004e FFF7FEFF 		bl	OLS_Init
 1956              	.LVL85:
 482:Components/Controller/controller.c ****     if (ref_ddot_ols_order > 2)
 1957              		.loc 1 482 9 view .LVU672
 1958 0052 F1E7     		b	.L161
 1959              	.L165:
 484:Components/Controller/controller.c **** 
 1960              		.loc 1 484 9 is_stmt 1 view .LVU673
 1961 0054 2946     		mov	r1, r5
 1962 0056 04F16400 		add	r0, r4, #100
 1963 005a FFF7FEFF 		bl	OLS_Init
 1964              	.LVL86:
 1965 005e EDE7     		b	.L162
 1966              		.cfi_endproc
 1967              	.LFE181:
 1969              		.section	.text.Feedforward_Calculate,"ax",%progbits
 1970              		.align	1
 1971              		.global	Feedforward_Calculate
 1972              		.syntax unified
 1973              		.thumb
 1974              		.thumb_func
 1976              	Feedforward_Calculate:
 1977              	.LVL87:
 1978              	.LFB182:
 490:Components/Controller/controller.c **** 
 491:Components/Controller/controller.c **** /**
ARM GAS  C:\Users\86152\AppData\Local\Temp\ccrmPoSV.s 			page 52


 492:Components/Controller/controller.c ****  * @brief          PID????
 493:Components/Controller/controller.c ****  * @param[in]      PID????
 494:Components/Controller/controller.c ****  * @param[in]      ?????
 495:Components/Controller/controller.c ****  * @param[in]      ?????
 496:Components/Controller/controller.c ****  * @retval         ?????
 497:Components/Controller/controller.c ****  */
 498:Components/Controller/controller.c **** float Feedforward_Calculate(Feedforward_t *ffc, float ref)
 499:Components/Controller/controller.c **** {
 1979              		.loc 1 499 1 view -0
 1980              		.cfi_startproc
 1981              		@ args = 0, pretend = 0, frame = 0
 1982              		@ frame_needed = 0, uses_anonymous_args = 0
 1983              		.loc 1 499 1 is_stmt 0 view .LVU675
 1984 0000 10B5     		push	{r4, lr}
 1985              	.LCFI13:
 1986              		.cfi_def_cfa_offset 8
 1987              		.cfi_offset 4, -8
 1988              		.cfi_offset 14, -4
 1989 0002 2DED028B 		vpush.64	{d8}
 1990              	.LCFI14:
 1991              		.cfi_def_cfa_offset 16
 1992              		.cfi_offset 80, -16
 1993              		.cfi_offset 81, -12
 1994 0006 0446     		mov	r4, r0
 1995 0008 B0EE408A 		vmov.f32	s16, s0
 500:Components/Controller/controller.c ****     ffc->dt = DWT_GetDeltaT((void *)&ffc->DWT_CNT);
 1996              		.loc 1 500 5 is_stmt 1 view .LVU676
 1997              		.loc 1 500 15 is_stmt 0 view .LVU677
 1998 000c 1830     		adds	r0, r0, #24
 1999              	.LVL88:
 2000              		.loc 1 500 15 view .LVU678
 2001 000e FFF7FEFF 		bl	DWT_GetDeltaT
 2002              	.LVL89:
 2003              		.loc 1 500 13 view .LVU679
 2004 0012 84ED070A 		vstr.32	s0, [r4, #28]
 501:Components/Controller/controller.c **** 
 502:Components/Controller/controller.c ****     ffc->Ref = ref * ffc->dt / (ffc->LPF_RC + ffc->dt) +
 2005              		.loc 1 502 5 is_stmt 1 view .LVU680
 2006              		.loc 1 502 20 is_stmt 0 view .LVU681
 2007 0016 20EE088A 		vmul.f32	s16, s0, s16
 2008              	.LVL90:
 2009              		.loc 1 502 36 view .LVU682
 2010 001a 94ED087A 		vldr.32	s14, [r4, #32]
 2011              		.loc 1 502 45 view .LVU683
 2012 001e 70EE076A 		vadd.f32	s13, s0, s14
 2013              		.loc 1 502 30 view .LVU684
 2014 0022 C8EE267A 		vdiv.f32	s15, s16, s13
 503:Components/Controller/controller.c ****                ffc->Ref * ffc->LPF_RC / (ffc->LPF_RC + ffc->dt);
 2015              		.loc 1 503 19 view .LVU685
 2016 0026 94ED036A 		vldr.32	s12, [r4, #12]
 2017              		.loc 1 503 25 view .LVU686
 2018 002a 27EE067A 		vmul.f32	s14, s14, s12
 2019              		.loc 1 503 39 view .LVU687
 2020 002e 87EE266A 		vdiv.f32	s12, s14, s13
 502:Components/Controller/controller.c ****                ffc->Ref * ffc->LPF_RC / (ffc->LPF_RC + ffc->dt);
 2021              		.loc 1 502 56 view .LVU688
 2022 0032 77EE867A 		vadd.f32	s15, s15, s12
ARM GAS  C:\Users\86152\AppData\Local\Temp\ccrmPoSV.s 			page 53


 502:Components/Controller/controller.c ****                ffc->Ref * ffc->LPF_RC / (ffc->LPF_RC + ffc->dt);
 2023              		.loc 1 502 14 view .LVU689
 2024 0036 C4ED037A 		vstr.32	s15, [r4, #12]
 504:Components/Controller/controller.c **** 
 505:Components/Controller/controller.c ****     if (!isnormal(ffc->Ref))
 2025              		.loc 1 505 5 is_stmt 1 view .LVU690
 2026              		.loc 1 505 10 is_stmt 0 view .LVU691
 2027 003a F0EEE77A 		vabs.f32	s15, s15
 2028              		.loc 1 505 9 view .LVU692
 2029 003e 9FED4A7A 		vldr.32	s14, .L172
 2030 0042 F4EE477A 		vcmp.f32	s15, s14
 2031 0046 F1EE10FA 		vmrs	APSR_nzcv, FPSCR
 2032 004a 8CBF     		ite	hi
 2033 004c 0123     		movhi	r3, #1
 2034 004e 0023     		movls	r3, #0
 2035 0050 9FED467A 		vldr.32	s14, .L172+4
 2036 0054 F4EE477A 		vcmp.f32	s15, s14
 2037 0058 F1EE10FA 		vmrs	APSR_nzcv, FPSCR
 2038 005c B8BF     		it	lt
 2039 005e 43F00103 		orrlt	r3, r3, #1
 2040              		.loc 1 505 8 view .LVU693
 2041 0062 0BB1     		cbz	r3, .L167
 506:Components/Controller/controller.c ****         ffc->Ref = 0;
 2042              		.loc 1 506 9 is_stmt 1 view .LVU694
 2043              		.loc 1 506 18 is_stmt 0 view .LVU695
 2044 0064 0023     		movs	r3, #0
 2045 0066 E360     		str	r3, [r4, #12]	@ float
 2046              	.L167:
 507:Components/Controller/controller.c ****     // ??????????
 508:Components/Controller/controller.c ****     // calculate first derivative
 509:Components/Controller/controller.c ****     // if (ffc->Ref_dot_OLS_Order > 2)
 510:Components/Controller/controller.c ****     //     ffc->Ref_dot = OLS_Derivative(&ffc->Ref_dot_OLS, ffc->dt, ffc->Ref);
 511:Components/Controller/controller.c ****     // else
 512:Components/Controller/controller.c ****     ffc->Ref_dot = (ffc->Ref - ffc->Last_Ref) / ffc->dt;
 2047              		.loc 1 512 5 is_stmt 1 view .LVU696
 2048              		.loc 1 512 24 is_stmt 0 view .LVU697
 2049 0068 D4ED037A 		vldr.32	s15, [r4, #12]
 2050              		.loc 1 512 35 view .LVU698
 2051 006c D4ED046A 		vldr.32	s13, [r4, #16]
 2052              		.loc 1 512 30 view .LVU699
 2053 0070 77EEE66A 		vsub.f32	s13, s15, s13
 2054              		.loc 1 512 47 view .LVU700
 2055 0074 86EE807A 		vdiv.f32	s14, s13, s0
 2056              		.loc 1 512 18 view .LVU701
 2057 0078 84ED097A 		vstr.32	s14, [r4, #36]
 513:Components/Controller/controller.c **** 
 514:Components/Controller/controller.c ****     if (!isnormal(ffc->Ref_dot))
 2058              		.loc 1 514 5 is_stmt 1 view .LVU702
 2059              		.loc 1 514 10 is_stmt 0 view .LVU703
 2060 007c B0EEC77A 		vabs.f32	s14, s14
 2061              		.loc 1 514 9 view .LVU704
 2062 0080 DFED396A 		vldr.32	s13, .L172
 2063 0084 B4EE667A 		vcmp.f32	s14, s13
 2064 0088 F1EE10FA 		vmrs	APSR_nzcv, FPSCR
 2065 008c 8CBF     		ite	hi
 2066 008e 0123     		movhi	r3, #1
 2067 0090 0023     		movls	r3, #0
ARM GAS  C:\Users\86152\AppData\Local\Temp\ccrmPoSV.s 			page 54


 2068 0092 DFED366A 		vldr.32	s13, .L172+4
 2069 0096 B4EE667A 		vcmp.f32	s14, s13
 2070 009a F1EE10FA 		vmrs	APSR_nzcv, FPSCR
 2071 009e B8BF     		it	lt
 2072 00a0 43F00103 		orrlt	r3, r3, #1
 2073              		.loc 1 514 8 view .LVU705
 2074 00a4 0BB1     		cbz	r3, .L168
 515:Components/Controller/controller.c ****         ffc->Ref_dot = 0;
 2075              		.loc 1 515 9 is_stmt 1 view .LVU706
 2076              		.loc 1 515 22 is_stmt 0 view .LVU707
 2077 00a6 0023     		movs	r3, #0
 2078 00a8 6362     		str	r3, [r4, #36]	@ float
 2079              	.L168:
 516:Components/Controller/controller.c **** 
 517:Components/Controller/controller.c ****     // ??????????
 518:Components/Controller/controller.c ****     // calculate second derivative
 519:Components/Controller/controller.c ****     // if (ffc->Ref_ddot_OLS_Order > 2)
 520:Components/Controller/controller.c ****     //     ffc->Ref_ddot = OLS_Derivative(&ffc->Ref_ddot_OLS, ffc->dt, ffc->Ref_dot);
 521:Components/Controller/controller.c ****     // else
 522:Components/Controller/controller.c ****     ffc->Ref_ddot = (ffc->Ref_dot - ffc->Last_Ref_dot) / ffc->dt;
 2080              		.loc 1 522 5 is_stmt 1 view .LVU708
 2081              		.loc 1 522 25 is_stmt 0 view .LVU709
 2082 00aa D4ED096A 		vldr.32	s13, [r4, #36]
 2083              		.loc 1 522 40 view .LVU710
 2084 00ae 94ED0B6A 		vldr.32	s12, [r4, #44]
 2085              		.loc 1 522 35 view .LVU711
 2086 00b2 36EEC66A 		vsub.f32	s12, s13, s12
 2087              		.loc 1 522 56 view .LVU712
 2088 00b6 86EE007A 		vdiv.f32	s14, s12, s0
 2089              		.loc 1 522 19 view .LVU713
 2090 00ba 84ED0A7A 		vstr.32	s14, [r4, #40]
 523:Components/Controller/controller.c **** 
 524:Components/Controller/controller.c ****     if (!isnormal(ffc->Ref_ddot))
 2091              		.loc 1 524 5 is_stmt 1 view .LVU714
 2092              		.loc 1 524 10 is_stmt 0 view .LVU715
 2093 00be B0EEC77A 		vabs.f32	s14, s14
 2094              		.loc 1 524 9 view .LVU716
 2095 00c2 9FED296A 		vldr.32	s12, .L172
 2096 00c6 B4EE467A 		vcmp.f32	s14, s12
 2097 00ca F1EE10FA 		vmrs	APSR_nzcv, FPSCR
 2098 00ce 8CBF     		ite	hi
 2099 00d0 0123     		movhi	r3, #1
 2100 00d2 0023     		movls	r3, #0
 2101 00d4 9FED256A 		vldr.32	s12, .L172+4
 2102 00d8 B4EE467A 		vcmp.f32	s14, s12
 2103 00dc F1EE10FA 		vmrs	APSR_nzcv, FPSCR
 2104 00e0 B8BF     		it	lt
 2105 00e2 43F00103 		orrlt	r3, r3, #1
 2106              		.loc 1 524 8 view .LVU717
 2107 00e6 0BB1     		cbz	r3, .L169
 525:Components/Controller/controller.c ****         ffc->Ref_ddot = 0;
 2108              		.loc 1 525 9 is_stmt 1 view .LVU718
 2109              		.loc 1 525 23 is_stmt 0 view .LVU719
 2110 00e8 0023     		movs	r3, #0
 2111 00ea A362     		str	r3, [r4, #40]	@ float
 2112              	.L169:
 526:Components/Controller/controller.c **** 
ARM GAS  C:\Users\86152\AppData\Local\Temp\ccrmPoSV.s 			page 55


 527:Components/Controller/controller.c ****     // ??????????????
 528:Components/Controller/controller.c ****     // calculate feed-forward controller output
 529:Components/Controller/controller.c ****     ffc->Output = ffc->c[0] * ffc->Ref + ffc->c[1] * ffc->Ref_dot + ffc->c[2] * ffc->Ref_ddot;
 2113              		.loc 1 529 5 is_stmt 1 view .LVU720
 2114              		.loc 1 529 25 is_stmt 0 view .LVU721
 2115 00ec 94ED000A 		vldr.32	s0, [r4]
 2116              		.loc 1 529 29 view .LVU722
 2117 00f0 27EE800A 		vmul.f32	s0, s15, s0
 2118              		.loc 1 529 48 view .LVU723
 2119 00f4 D4ED017A 		vldr.32	s15, [r4, #4]
 2120              		.loc 1 529 52 view .LVU724
 2121 00f8 66EEA76A 		vmul.f32	s13, s13, s15
 2122              		.loc 1 529 40 view .LVU725
 2123 00fc 30EE260A 		vadd.f32	s0, s0, s13
 2124              		.loc 1 529 75 view .LVU726
 2125 0100 D4ED027A 		vldr.32	s15, [r4, #8]
 2126              		.loc 1 529 84 view .LVU727
 2127 0104 94ED0A7A 		vldr.32	s14, [r4, #40]
 2128              		.loc 1 529 79 view .LVU728
 2129 0108 67EE877A 		vmul.f32	s15, s15, s14
 2130              		.loc 1 529 67 view .LVU729
 2131 010c 30EE270A 		vadd.f32	s0, s0, s15
 2132              		.loc 1 529 17 view .LVU730
 2133 0110 84ED240A 		vstr.32	s0, [r4, #144]
 530:Components/Controller/controller.c **** 
 531:Components/Controller/controller.c ****     ffc->Output = float_constrain(ffc->Output, -ffc->MaxOut, ffc->MaxOut);
 2134              		.loc 1 531 5 is_stmt 1 view .LVU731
 2135              		.loc 1 531 52 is_stmt 0 view .LVU732
 2136 0114 94ED251A 		vldr.32	s2, [r4, #148]
 2137              		.loc 1 531 19 view .LVU733
 2138 0118 F1EE410A 		vneg.f32	s1, s2
 2139 011c FFF7FEFF 		bl	float_constrain
 2140              	.LVL91:
 2141              		.loc 1 531 17 view .LVU734
 2142 0120 84ED240A 		vstr.32	s0, [r4, #144]
 532:Components/Controller/controller.c **** 
 533:Components/Controller/controller.c ****     if (!isnormal(ffc->Output))
 2143              		.loc 1 533 5 is_stmt 1 view .LVU735
 2144              		.loc 1 533 10 is_stmt 0 view .LVU736
 2145 0124 B0EEC00A 		vabs.f32	s0, s0
 2146              		.loc 1 533 9 view .LVU737
 2147 0128 DFED0F7A 		vldr.32	s15, .L172
 2148 012c B4EE670A 		vcmp.f32	s0, s15
 2149 0130 F1EE10FA 		vmrs	APSR_nzcv, FPSCR
 2150 0134 8CBF     		ite	hi
 2151 0136 0123     		movhi	r3, #1
 2152 0138 0023     		movls	r3, #0
 2153 013a DFED0C7A 		vldr.32	s15, .L172+4
 2154 013e B4EE670A 		vcmp.f32	s0, s15
 2155 0142 F1EE10FA 		vmrs	APSR_nzcv, FPSCR
 2156 0146 B8BF     		it	lt
 2157 0148 43F00103 		orrlt	r3, r3, #1
 2158              		.loc 1 533 8 view .LVU738
 2159 014c 13B1     		cbz	r3, .L170
 534:Components/Controller/controller.c ****         ffc->Output = 0;
 2160              		.loc 1 534 9 is_stmt 1 view .LVU739
 2161              		.loc 1 534 21 is_stmt 0 view .LVU740
ARM GAS  C:\Users\86152\AppData\Local\Temp\ccrmPoSV.s 			page 56


 2162 014e 0023     		movs	r3, #0
 2163 0150 C4F89030 		str	r3, [r4, #144]	@ float
 2164              	.L170:
 535:Components/Controller/controller.c **** 
 536:Components/Controller/controller.c ****     ffc->Last_Ref = ffc->Ref;
 2165              		.loc 1 536 5 is_stmt 1 view .LVU741
 2166              		.loc 1 536 24 is_stmt 0 view .LVU742
 2167 0154 E368     		ldr	r3, [r4, #12]	@ float
 2168              		.loc 1 536 19 view .LVU743
 2169 0156 2361     		str	r3, [r4, #16]	@ float
 537:Components/Controller/controller.c ****     ffc->Last_Ref_dot = ffc->Ref_dot;
 2170              		.loc 1 537 5 is_stmt 1 view .LVU744
 2171              		.loc 1 537 28 is_stmt 0 view .LVU745
 2172 0158 636A     		ldr	r3, [r4, #36]	@ float
 2173              		.loc 1 537 23 view .LVU746
 2174 015a E362     		str	r3, [r4, #44]	@ float
 538:Components/Controller/controller.c **** 
 539:Components/Controller/controller.c ****     return ffc->Output;
 2175              		.loc 1 539 5 is_stmt 1 view .LVU747
 540:Components/Controller/controller.c **** }
 2176              		.loc 1 540 1 is_stmt 0 view .LVU748
 2177 015c 94ED240A 		vldr.32	s0, [r4, #144]
 2178 0160 BDEC028B 		vldm	sp!, {d8}
 2179              	.LCFI15:
 2180              		.cfi_restore 80
 2181              		.cfi_restore 81
 2182              		.cfi_def_cfa_offset 8
 2183 0164 10BD     		pop	{r4, pc}
 2184              	.LVL92:
 2185              	.L173:
 2186              		.loc 1 540 1 view .LVU749
 2187 0166 00BF     		.align	2
 2188              	.L172:
 2189 0168 FFFF7F7F 		.word	2139095039
 2190 016c 00008000 		.word	8388608
 2191              		.cfi_endproc
 2192              	.LFE182:
 2194              		.section	.text.LDOB_Init,"ax",%progbits
 2195              		.align	1
 2196              		.global	LDOB_Init
 2197              		.syntax unified
 2198              		.thumb
 2199              		.thumb_func
 2201              	LDOB_Init:
 2202              	.LVL93:
 2203              	.LFB183:
 541:Components/Controller/controller.c **** 
 542:Components/Controller/controller.c **** /*************************LINEAR DISTURBANCE OBSERVER *************************/
 543:Components/Controller/controller.c **** void LDOB_Init(
 544:Components/Controller/controller.c ****     LDOB_t *ldob,
 545:Components/Controller/controller.c ****     float max_d,
 546:Components/Controller/controller.c ****     float deadband,
 547:Components/Controller/controller.c ****     float *c,
 548:Components/Controller/controller.c ****     float lpf_rc,
 549:Components/Controller/controller.c ****     uint16_t measure_dot_ols_order,
 550:Components/Controller/controller.c ****     uint16_t measure_ddot_ols_order)
 551:Components/Controller/controller.c **** {
ARM GAS  C:\Users\86152\AppData\Local\Temp\ccrmPoSV.s 			page 57


 2204              		.loc 1 551 1 is_stmt 1 view -0
 2205              		.cfi_startproc
 2206              		@ args = 0, pretend = 0, frame = 0
 2207              		@ frame_needed = 0, uses_anonymous_args = 0
 2208              		.loc 1 551 1 is_stmt 0 view .LVU751
 2209 0000 38B5     		push	{r3, r4, r5, lr}
 2210              	.LCFI16:
 2211              		.cfi_def_cfa_offset 16
 2212              		.cfi_offset 3, -16
 2213              		.cfi_offset 4, -12
 2214              		.cfi_offset 5, -8
 2215              		.cfi_offset 14, -4
 2216 0002 0446     		mov	r4, r0
 2217 0004 1D46     		mov	r5, r3
 552:Components/Controller/controller.c ****     ldob->Max_Disturbance = max_d;
 2218              		.loc 1 552 5 is_stmt 1 view .LVU752
 2219              		.loc 1 552 27 is_stmt 0 view .LVU753
 2220 0006 80ED280A 		vstr.32	s0, [r0, #160]
 553:Components/Controller/controller.c **** 
 554:Components/Controller/controller.c ****     ldob->DeadBand = deadband;
 2221              		.loc 1 554 5 is_stmt 1 view .LVU754
 2222              		.loc 1 554 20 is_stmt 0 view .LVU755
 2223 000a C0ED060A 		vstr.32	s1, [r0, #24]
 555:Components/Controller/controller.c **** 
 556:Components/Controller/controller.c ****     // ???????????????????? ???LDOB???G??
 557:Components/Controller/controller.c ****     // set parameters of linear disturbance observer (see struct definition)
 558:Components/Controller/controller.c ****     if (c != NULL && ldob != NULL)
 2224              		.loc 1 558 5 is_stmt 1 view .LVU756
 2225              		.loc 1 558 8 is_stmt 0 view .LVU757
 2226 000e 41B1     		cbz	r1, .L175
 2227 0010 0B46     		mov	r3, r1
 2228              	.LVL94:
 2229              		.loc 1 558 19 discriminator 1 view .LVU758
 2230 0012 30B1     		cbz	r0, .L175
 559:Components/Controller/controller.c ****     {
 560:Components/Controller/controller.c ****         ldob->c[0] = c[0];
 2231              		.loc 1 560 9 is_stmt 1 view .LVU759
 2232              		.loc 1 560 23 is_stmt 0 view .LVU760
 2233 0014 0968     		ldr	r1, [r1]	@ float
 2234              	.LVL95:
 2235              		.loc 1 560 20 view .LVU761
 2236 0016 0160     		str	r1, [r0]	@ float
 561:Components/Controller/controller.c ****         ldob->c[1] = c[1];
 2237              		.loc 1 561 9 is_stmt 1 view .LVU762
 2238              		.loc 1 561 20 is_stmt 0 view .LVU763
 2239 0018 5968     		ldr	r1, [r3, #4]	@ float
 2240 001a 4160     		str	r1, [r0, #4]	@ float
 562:Components/Controller/controller.c ****         ldob->c[2] = c[2];
 2241              		.loc 1 562 9 is_stmt 1 view .LVU764
 2242              		.loc 1 562 20 is_stmt 0 view .LVU765
 2243 001c 9B68     		ldr	r3, [r3, #8]	@ float
 2244              	.LVL96:
 2245              		.loc 1 562 20 view .LVU766
 2246 001e 8360     		str	r3, [r0, #8]	@ float
 2247 0020 05E0     		b	.L176
 2248              	.LVL97:
 2249              	.L175:
ARM GAS  C:\Users\86152\AppData\Local\Temp\ccrmPoSV.s 			page 58


 563:Components/Controller/controller.c ****     }
 564:Components/Controller/controller.c ****     else
 565:Components/Controller/controller.c ****     {
 566:Components/Controller/controller.c ****         ldob->c[0] = 0;
 2250              		.loc 1 566 9 is_stmt 1 view .LVU767
 2251              		.loc 1 566 20 is_stmt 0 view .LVU768
 2252 0022 0023     		movs	r3, #0
 2253 0024 2360     		str	r3, [r4]	@ float
 567:Components/Controller/controller.c ****         ldob->c[1] = 0;
 2254              		.loc 1 567 9 is_stmt 1 view .LVU769
 2255              		.loc 1 567 20 is_stmt 0 view .LVU770
 2256 0026 6360     		str	r3, [r4, #4]	@ float
 568:Components/Controller/controller.c ****         ldob->c[2] = 0;
 2257              		.loc 1 568 9 is_stmt 1 view .LVU771
 2258              		.loc 1 568 20 is_stmt 0 view .LVU772
 2259 0028 A360     		str	r3, [r4, #8]	@ float
 569:Components/Controller/controller.c ****         ldob->Max_Disturbance = 0;
 2260              		.loc 1 569 9 is_stmt 1 view .LVU773
 2261              		.loc 1 569 31 is_stmt 0 view .LVU774
 2262 002a C4F8A030 		str	r3, [r4, #160]	@ float
 2263              	.LVL98:
 2264              	.L176:
 570:Components/Controller/controller.c ****     }
 571:Components/Controller/controller.c **** 
 572:Components/Controller/controller.c ****     // ????Q(s)????  Q(s)????????????
 573:Components/Controller/controller.c ****     // set bandwidth of Q(s)    Q(s) is chosen as a first-order low-pass form
 574:Components/Controller/controller.c ****     ldob->LPF_RC = lpf_rc;
 2265              		.loc 1 574 5 is_stmt 1 view .LVU775
 2266              		.loc 1 574 18 is_stmt 0 view .LVU776
 2267 002e 84ED091A 		vstr.32	s2, [r4, #36]
 575:Components/Controller/controller.c **** 
 576:Components/Controller/controller.c ****     // ??§³?????????????????
 577:Components/Controller/controller.c ****     // differential signal is distilled by OLS
 578:Components/Controller/controller.c ****     ldob->Measure_dot_OLS_Order = measure_dot_ols_order;
 2268              		.loc 1 578 5 is_stmt 1 view .LVU777
 2269              		.loc 1 578 33 is_stmt 0 view .LVU778
 2270 0032 A286     		strh	r2, [r4, #52]	@ movhi
 579:Components/Controller/controller.c ****     ldob->Measure_ddot_OLS_Order = measure_ddot_ols_order;
 2271              		.loc 1 579 5 is_stmt 1 view .LVU779
 2272              		.loc 1 579 34 is_stmt 0 view .LVU780
 2273 0034 A4F86450 		strh	r5, [r4, #100]	@ movhi
 580:Components/Controller/controller.c ****     if (measure_dot_ols_order > 2)
 2274              		.loc 1 580 5 is_stmt 1 view .LVU781
 2275              		.loc 1 580 8 is_stmt 0 view .LVU782
 2276 0038 022A     		cmp	r2, #2
 2277 003a 07D8     		bhi	.L180
 2278              	.LVL99:
 2279              	.L177:
 581:Components/Controller/controller.c ****         OLS_Init(&ldob->Measure_dot_OLS, measure_dot_ols_order);
 582:Components/Controller/controller.c ****     if (measure_ddot_ols_order > 2)
 2280              		.loc 1 582 5 is_stmt 1 view .LVU783
 2281              		.loc 1 582 8 is_stmt 0 view .LVU784
 2282 003c 022D     		cmp	r5, #2
 2283 003e 0BD8     		bhi	.L181
 2284              	.L178:
 583:Components/Controller/controller.c ****         OLS_Init(&ldob->Measure_ddot_OLS, measure_ddot_ols_order);
 584:Components/Controller/controller.c **** 
ARM GAS  C:\Users\86152\AppData\Local\Temp\ccrmPoSV.s 			page 59


 585:Components/Controller/controller.c ****     ldob->DWT_CNT = 0;
 2285              		.loc 1 585 5 is_stmt 1 view .LVU785
 2286              		.loc 1 585 19 is_stmt 0 view .LVU786
 2287 0040 0023     		movs	r3, #0
 2288 0042 E361     		str	r3, [r4, #28]
 586:Components/Controller/controller.c **** 
 587:Components/Controller/controller.c ****     ldob->Disturbance = 0;
 2289              		.loc 1 587 5 is_stmt 1 view .LVU787
 2290              		.loc 1 587 23 is_stmt 0 view .LVU788
 2291 0044 0023     		movs	r3, #0
 2292 0046 C4F89430 		str	r3, [r4, #148]	@ float
 588:Components/Controller/controller.c **** }
 2293              		.loc 1 588 1 view .LVU789
 2294 004a 38BD     		pop	{r3, r4, r5, pc}
 2295              	.LVL100:
 2296              	.L180:
 581:Components/Controller/controller.c ****     if (measure_ddot_ols_order > 2)
 2297              		.loc 1 581 9 is_stmt 1 view .LVU790
 2298 004c 1146     		mov	r1, r2
 2299 004e 04F13800 		add	r0, r4, #56
 2300              	.LVL101:
 581:Components/Controller/controller.c ****     if (measure_ddot_ols_order > 2)
 2301              		.loc 1 581 9 is_stmt 0 view .LVU791
 2302 0052 FFF7FEFF 		bl	OLS_Init
 2303              	.LVL102:
 581:Components/Controller/controller.c ****     if (measure_ddot_ols_order > 2)
 2304              		.loc 1 581 9 view .LVU792
 2305 0056 F1E7     		b	.L177
 2306              	.L181:
 583:Components/Controller/controller.c **** 
 2307              		.loc 1 583 9 is_stmt 1 view .LVU793
 2308 0058 2946     		mov	r1, r5
 2309 005a 04F16800 		add	r0, r4, #104
 2310 005e FFF7FEFF 		bl	OLS_Init
 2311              	.LVL103:
 2312 0062 EDE7     		b	.L178
 2313              		.cfi_endproc
 2314              	.LFE183:
 2316              		.section	.text.LDOB_Calculate,"ax",%progbits
 2317              		.align	1
 2318              		.global	LDOB_Calculate
 2319              		.syntax unified
 2320              		.thumb
 2321              		.thumb_func
 2323              	LDOB_Calculate:
 2324              	.LVL104:
 2325              	.LFB184:
 589:Components/Controller/controller.c **** 
 590:Components/Controller/controller.c **** float LDOB_Calculate(LDOB_t *ldob, float measure, float u)
 591:Components/Controller/controller.c **** {
 2326              		.loc 1 591 1 view -0
 2327              		.cfi_startproc
 2328              		@ args = 0, pretend = 0, frame = 0
 2329              		@ frame_needed = 0, uses_anonymous_args = 0
 2330              		.loc 1 591 1 is_stmt 0 view .LVU795
 2331 0000 10B5     		push	{r4, lr}
 2332              	.LCFI17:
ARM GAS  C:\Users\86152\AppData\Local\Temp\ccrmPoSV.s 			page 60


 2333              		.cfi_def_cfa_offset 8
 2334              		.cfi_offset 4, -8
 2335              		.cfi_offset 14, -4
 2336 0002 2DED028B 		vpush.64	{d8}
 2337              	.LCFI18:
 2338              		.cfi_def_cfa_offset 16
 2339              		.cfi_offset 80, -16
 2340              		.cfi_offset 81, -12
 2341 0006 0446     		mov	r4, r0
 2342 0008 B0EE408A 		vmov.f32	s16, s0
 2343 000c F0EE608A 		vmov.f32	s17, s1
 592:Components/Controller/controller.c ****     ldob->dt = DWT_GetDeltaT((void *)&ldob->DWT_CNT);
 2344              		.loc 1 592 5 is_stmt 1 view .LVU796
 2345              		.loc 1 592 16 is_stmt 0 view .LVU797
 2346 0010 1C30     		adds	r0, r0, #28
 2347              	.LVL105:
 2348              		.loc 1 592 16 view .LVU798
 2349 0012 FFF7FEFF 		bl	DWT_GetDeltaT
 2350              	.LVL106:
 2351              		.loc 1 592 14 view .LVU799
 2352 0016 84ED080A 		vstr.32	s0, [r4, #32]
 593:Components/Controller/controller.c **** 
 594:Components/Controller/controller.c ****     ldob->Measure = measure;
 2353              		.loc 1 594 5 is_stmt 1 view .LVU800
 2354              		.loc 1 594 19 is_stmt 0 view .LVU801
 2355 001a 84ED038A 		vstr.32	s16, [r4, #12]
 595:Components/Controller/controller.c **** 
 596:Components/Controller/controller.c ****     ldob->u = u;
 2356              		.loc 1 596 5 is_stmt 1 view .LVU802
 2357              		.loc 1 596 13 is_stmt 0 view .LVU803
 2358 001e C4ED058A 		vstr.32	s17, [r4, #20]
 597:Components/Controller/controller.c **** 
 598:Components/Controller/controller.c ****     // ??????????
 599:Components/Controller/controller.c ****     // calculate first derivative
 600:Components/Controller/controller.c ****     // if (ldob->Measure_dot_OLS_Order > 2)
 601:Components/Controller/controller.c ****     //     ldob->Measure_dot = OLS_Derivative(&ldob->Measure_dot_OLS, ldob->dt, ldob->Measure);
 602:Components/Controller/controller.c ****     // else
 603:Components/Controller/controller.c ****     ldob->Measure_dot = (ldob->Measure - ldob->Last_Measure) / ldob->dt;
 2359              		.loc 1 603 5 is_stmt 1 view .LVU804
 2360              		.loc 1 603 46 is_stmt 0 view .LVU805
 2361 0022 D4ED047A 		vldr.32	s15, [r4, #16]
 2362              		.loc 1 603 40 view .LVU806
 2363 0026 78EE677A 		vsub.f32	s15, s16, s15
 2364              		.loc 1 603 62 view .LVU807
 2365 002a 87EE807A 		vdiv.f32	s14, s15, s0
 2366              		.loc 1 603 23 view .LVU808
 2367 002e 84ED0A7A 		vstr.32	s14, [r4, #40]
 604:Components/Controller/controller.c **** 
 605:Components/Controller/controller.c ****     // ??????????
 606:Components/Controller/controller.c ****     // calculate second derivative
 607:Components/Controller/controller.c ****     // if (ldob->Measure_ddot_OLS_Order > 2)
 608:Components/Controller/controller.c ****     //     ldob->Measure_ddot = OLS_Derivative(&ldob->Measure_ddot_OLS, ldob->dt, ldob->Measure_dot
 609:Components/Controller/controller.c ****     // else
 610:Components/Controller/controller.c ****     ldob->Measure_ddot = (ldob->Measure_dot - ldob->Last_Measure_dot) / ldob->dt;
 2368              		.loc 1 610 5 is_stmt 1 view .LVU809
 2369              		.loc 1 610 51 is_stmt 0 view .LVU810
 2370 0032 D4ED0C7A 		vldr.32	s15, [r4, #48]
ARM GAS  C:\Users\86152\AppData\Local\Temp\ccrmPoSV.s 			page 61


 2371              		.loc 1 610 45 view .LVU811
 2372 0036 77EE677A 		vsub.f32	s15, s14, s15
 2373              		.loc 1 610 71 view .LVU812
 2374 003a C7EE800A 		vdiv.f32	s1, s15, s0
 2375              		.loc 1 610 24 view .LVU813
 2376 003e C4ED0B0A 		vstr.32	s1, [r4, #44]
 611:Components/Controller/controller.c **** 
 612:Components/Controller/controller.c ****     // ?????????
 613:Components/Controller/controller.c ****     // estimate external disturbances and internal disturbances caused by model uncertainties
 614:Components/Controller/controller.c ****     ldob->Disturbance = ldob->c[0] * ldob->Measure + ldob->c[1] * ldob->Measure_dot + ldob->c[2] * 
 2377              		.loc 1 614 5 is_stmt 1 view .LVU814
 2378              		.loc 1 614 32 is_stmt 0 view .LVU815
 2379 0042 D4ED007A 		vldr.32	s15, [r4]
 2380              		.loc 1 614 36 view .LVU816
 2381 0046 67EE887A 		vmul.f32	s15, s15, s16
 2382              		.loc 1 614 61 view .LVU817
 2383 004a D4ED016A 		vldr.32	s13, [r4, #4]
 2384              		.loc 1 614 65 view .LVU818
 2385 004e 27EE267A 		vmul.f32	s14, s14, s13
 2386              		.loc 1 614 52 view .LVU819
 2387 0052 77EE877A 		vadd.f32	s15, s15, s14
 2388              		.loc 1 614 94 view .LVU820
 2389 0056 94ED027A 		vldr.32	s14, [r4, #8]
 2390              		.loc 1 614 98 view .LVU821
 2391 005a 60EE870A 		vmul.f32	s1, s1, s14
 2392              		.loc 1 614 85 view .LVU822
 2393 005e 77EEA07A 		vadd.f32	s15, s15, s1
 2394              		.loc 1 614 119 view .LVU823
 2395 0062 77EEE80A 		vsub.f32	s1, s15, s17
 2396              		.loc 1 614 23 view .LVU824
 2397 0066 C4ED250A 		vstr.32	s1, [r4, #148]
 615:Components/Controller/controller.c ****     ldob->Disturbance = ldob->Disturbance * ldob->dt / (ldob->LPF_RC + ldob->dt) +
 2398              		.loc 1 615 5 is_stmt 1 view .LVU825
 2399              		.loc 1 615 43 is_stmt 0 view .LVU826
 2400 006a 60EE200A 		vmul.f32	s1, s0, s1
 2401              		.loc 1 615 61 view .LVU827
 2402 006e 94ED097A 		vldr.32	s14, [r4, #36]
 2403              		.loc 1 615 70 view .LVU828
 2404 0072 30EE070A 		vadd.f32	s0, s0, s14
 2405              		.loc 1 615 54 view .LVU829
 2406 0076 C0EE807A 		vdiv.f32	s15, s1, s0
 616:Components/Controller/controller.c ****                         ldob->Last_Disturbance * ldob->LPF_RC / (ldob->LPF_RC + ldob->dt);
 2407              		.loc 1 616 29 view .LVU830
 2408 007a D4ED276A 		vldr.32	s13, [r4, #156]
 2409              		.loc 1 616 48 view .LVU831
 2410 007e 27EE267A 		vmul.f32	s14, s14, s13
 2411              		.loc 1 616 63 view .LVU832
 2412 0082 C7EE006A 		vdiv.f32	s13, s14, s0
 615:Components/Controller/controller.c ****     ldob->Disturbance = ldob->Disturbance * ldob->dt / (ldob->LPF_RC + ldob->dt) +
 2413              		.loc 1 615 82 view .LVU833
 2414 0086 37EEA60A 		vadd.f32	s0, s15, s13
 615:Components/Controller/controller.c ****     ldob->Disturbance = ldob->Disturbance * ldob->dt / (ldob->LPF_RC + ldob->dt) +
 2415              		.loc 1 615 23 view .LVU834
 2416 008a 84ED250A 		vstr.32	s0, [r4, #148]
 617:Components/Controller/controller.c **** 
 618:Components/Controller/controller.c ****     ldob->Disturbance = float_constrain(ldob->Disturbance, -ldob->Max_Disturbance, ldob->Max_Distur
 2417              		.loc 1 618 5 is_stmt 1 view .LVU835
ARM GAS  C:\Users\86152\AppData\Local\Temp\ccrmPoSV.s 			page 62


 2418              		.loc 1 618 65 is_stmt 0 view .LVU836
 2419 008e 94ED281A 		vldr.32	s2, [r4, #160]
 2420              		.loc 1 618 25 view .LVU837
 2421 0092 F1EE410A 		vneg.f32	s1, s2
 2422 0096 FFF7FEFF 		bl	float_constrain
 2423              	.LVL107:
 2424              		.loc 1 618 23 view .LVU838
 2425 009a 84ED250A 		vstr.32	s0, [r4, #148]
 619:Components/Controller/controller.c **** 
 620:Components/Controller/controller.c ****     // ??????????
 621:Components/Controller/controller.c ****     // deadband of disturbance output
 622:Components/Controller/controller.c ****     if (abs(ldob->Disturbance) > ldob->DeadBand * ldob->Max_Disturbance)
 2426              		.loc 1 622 5 is_stmt 1 view .LVU839
 2427              		.loc 1 622 9 is_stmt 0 view .LVU840
 2428 009e B5EEC00A 		vcmpe.f32	s0, #0
 2429 00a2 F1EE10FA 		vmrs	APSR_nzcv, FPSCR
 2430 00a6 19DD     		ble	.L191
 2431 00a8 B0EE407A 		vmov.f32	s14, s0
 2432              	.L183:
 2433              		.loc 1 622 38 discriminator 4 view .LVU841
 2434 00ac D4ED067A 		vldr.32	s15, [r4, #24]
 2435              		.loc 1 622 55 discriminator 4 view .LVU842
 2436 00b0 D4ED286A 		vldr.32	s13, [r4, #160]
 2437              		.loc 1 622 49 discriminator 4 view .LVU843
 2438 00b4 67EEA67A 		vmul.f32	s15, s15, s13
 2439              		.loc 1 622 8 discriminator 4 view .LVU844
 2440 00b8 F4EEC77A 		vcmpe.f32	s15, s14
 2441 00bc F1EE10FA 		vmrs	APSR_nzcv, FPSCR
 2442 00c0 0FD5     		bpl	.L189
 623:Components/Controller/controller.c ****         ldob->Output = ldob->Disturbance;
 2443              		.loc 1 623 9 is_stmt 1 view .LVU845
 2444              		.loc 1 623 22 is_stmt 0 view .LVU846
 2445 00c2 84ED260A 		vstr.32	s0, [r4, #152]
 2446              	.L186:
 624:Components/Controller/controller.c ****     else
 625:Components/Controller/controller.c ****         ldob->Output = 0;
 626:Components/Controller/controller.c **** 
 627:Components/Controller/controller.c ****     ldob->Last_Measure = ldob->Measure;
 2447              		.loc 1 627 5 is_stmt 1 view .LVU847
 2448              		.loc 1 627 30 is_stmt 0 view .LVU848
 2449 00c6 E368     		ldr	r3, [r4, #12]	@ float
 2450              		.loc 1 627 24 view .LVU849
 2451 00c8 2361     		str	r3, [r4, #16]	@ float
 628:Components/Controller/controller.c ****     ldob->Last_Measure_dot = ldob->Measure_dot;
 2452              		.loc 1 628 5 is_stmt 1 view .LVU850
 2453              		.loc 1 628 34 is_stmt 0 view .LVU851
 2454 00ca A36A     		ldr	r3, [r4, #40]	@ float
 2455              		.loc 1 628 28 view .LVU852
 2456 00cc 2363     		str	r3, [r4, #48]	@ float
 629:Components/Controller/controller.c ****     ldob->Last_Disturbance = ldob->Disturbance;
 2457              		.loc 1 629 5 is_stmt 1 view .LVU853
 2458              		.loc 1 629 28 is_stmt 0 view .LVU854
 2459 00ce 84ED270A 		vstr.32	s0, [r4, #156]
 630:Components/Controller/controller.c **** 
 631:Components/Controller/controller.c ****     return ldob->Output;
 2460              		.loc 1 631 5 is_stmt 1 view .LVU855
 632:Components/Controller/controller.c **** }
ARM GAS  C:\Users\86152\AppData\Local\Temp\ccrmPoSV.s 			page 63


 2461              		.loc 1 632 1 is_stmt 0 view .LVU856
 2462 00d2 94ED260A 		vldr.32	s0, [r4, #152]
 2463 00d6 BDEC028B 		vldm	sp!, {d8}
 2464              	.LCFI19:
 2465              		.cfi_remember_state
 2466              		.cfi_restore 80
 2467              		.cfi_restore 81
 2468              		.cfi_def_cfa_offset 8
 2469              	.LVL108:
 2470              		.loc 1 632 1 view .LVU857
 2471 00da 10BD     		pop	{r4, pc}
 2472              	.LVL109:
 2473              	.L191:
 2474              	.LCFI20:
 2475              		.cfi_restore_state
 622:Components/Controller/controller.c ****         ldob->Output = ldob->Disturbance;
 2476              		.loc 1 622 9 discriminator 2 view .LVU858
 2477 00dc B1EE407A 		vneg.f32	s14, s0
 2478 00e0 E4E7     		b	.L183
 2479              	.L189:
 625:Components/Controller/controller.c **** 
 2480              		.loc 1 625 9 is_stmt 1 view .LVU859
 625:Components/Controller/controller.c **** 
 2481              		.loc 1 625 22 is_stmt 0 view .LVU860
 2482 00e2 0023     		movs	r3, #0
 2483 00e4 C4F89830 		str	r3, [r4, #152]	@ float
 2484 00e8 EDE7     		b	.L186
 2485              		.cfi_endproc
 2486              	.LFE184:
 2488              		.section	.text.TD_Init,"ax",%progbits
 2489              		.align	1
 2490              		.global	TD_Init
 2491              		.syntax unified
 2492              		.thumb
 2493              		.thumb_func
 2495              	TD_Init:
 2496              	.LVL110:
 2497              	.LFB185:
 633:Components/Controller/controller.c **** 
 634:Components/Controller/controller.c **** /*************************** Tracking Differentiator ***************************/
 635:Components/Controller/controller.c **** void TD_Init(TD_t *td, float r, float h0)
 636:Components/Controller/controller.c **** {
 2498              		.loc 1 636 1 is_stmt 1 view -0
 2499              		.cfi_startproc
 2500              		@ args = 0, pretend = 0, frame = 0
 2501              		@ frame_needed = 0, uses_anonymous_args = 0
 2502              		@ link register save eliminated.
 637:Components/Controller/controller.c ****     td->r = r;
 2503              		.loc 1 637 5 view .LVU862
 2504              		.loc 1 637 11 is_stmt 0 view .LVU863
 2505 0000 80ED020A 		vstr.32	s0, [r0, #8]
 638:Components/Controller/controller.c ****     td->h0 = h0;
 2506              		.loc 1 638 5 is_stmt 1 view .LVU864
 2507              		.loc 1 638 12 is_stmt 0 view .LVU865
 2508 0004 C0ED010A 		vstr.32	s1, [r0, #4]
 639:Components/Controller/controller.c **** 
 640:Components/Controller/controller.c ****     td->x = 0;
ARM GAS  C:\Users\86152\AppData\Local\Temp\ccrmPoSV.s 			page 64


 2509              		.loc 1 640 5 is_stmt 1 view .LVU866
 2510              		.loc 1 640 11 is_stmt 0 view .LVU867
 2511 0008 0023     		movs	r3, #0
 2512 000a C360     		str	r3, [r0, #12]	@ float
 641:Components/Controller/controller.c ****     td->dx = 0;
 2513              		.loc 1 641 5 is_stmt 1 view .LVU868
 2514              		.loc 1 641 12 is_stmt 0 view .LVU869
 2515 000c 0361     		str	r3, [r0, #16]	@ float
 642:Components/Controller/controller.c ****     td->ddx = 0;
 2516              		.loc 1 642 5 is_stmt 1 view .LVU870
 2517              		.loc 1 642 13 is_stmt 0 view .LVU871
 2518 000e 4361     		str	r3, [r0, #20]	@ float
 643:Components/Controller/controller.c ****     td->last_dx = 0;
 2519              		.loc 1 643 5 is_stmt 1 view .LVU872
 2520              		.loc 1 643 17 is_stmt 0 view .LVU873
 2521 0010 8361     		str	r3, [r0, #24]	@ float
 644:Components/Controller/controller.c ****     td->last_ddx = 0;
 2522              		.loc 1 644 5 is_stmt 1 view .LVU874
 2523              		.loc 1 644 18 is_stmt 0 view .LVU875
 2524 0012 C361     		str	r3, [r0, #28]	@ float
 645:Components/Controller/controller.c **** }
 2525              		.loc 1 645 1 view .LVU876
 2526 0014 7047     		bx	lr
 2527              		.cfi_endproc
 2528              	.LFE185:
 2530              		.global	__aeabi_f2d
 2531              		.global	__aeabi_d2f
 2532              		.section	.text.TD_Calculate,"ax",%progbits
 2533              		.align	1
 2534              		.global	TD_Calculate
 2535              		.syntax unified
 2536              		.thumb
 2537              		.thumb_func
 2539              	TD_Calculate:
 2540              	.LVL111:
 2541              	.LFB186:
 646:Components/Controller/controller.c **** float TD_Calculate(TD_t *td, float input)
 647:Components/Controller/controller.c **** {
 2542              		.loc 1 647 1 is_stmt 1 view -0
 2543              		.cfi_startproc
 2544              		@ args = 0, pretend = 0, frame = 0
 2545              		@ frame_needed = 0, uses_anonymous_args = 0
 2546              		.loc 1 647 1 is_stmt 0 view .LVU878
 2547 0000 F8B5     		push	{r3, r4, r5, r6, r7, lr}
 2548              	.LCFI21:
 2549              		.cfi_def_cfa_offset 24
 2550              		.cfi_offset 3, -24
 2551              		.cfi_offset 4, -20
 2552              		.cfi_offset 5, -16
 2553              		.cfi_offset 6, -12
 2554              		.cfi_offset 7, -8
 2555              		.cfi_offset 14, -4
 2556 0002 2DED068B 		vpush.64	{d8, d9, d10}
 2557              	.LCFI22:
 2558              		.cfi_def_cfa_offset 48
 2559              		.cfi_offset 80, -48
 2560              		.cfi_offset 81, -44
ARM GAS  C:\Users\86152\AppData\Local\Temp\ccrmPoSV.s 			page 65


 2561              		.cfi_offset 82, -40
 2562              		.cfi_offset 83, -36
 2563              		.cfi_offset 84, -32
 2564              		.cfi_offset 85, -28
 2565 0006 0446     		mov	r4, r0
 2566 0008 B0EE408A 		vmov.f32	s16, s0
 648:Components/Controller/controller.c ****     static float d, a0, y, a1, a2, a, fhan;
 2567              		.loc 1 648 5 is_stmt 1 view .LVU879
 649:Components/Controller/controller.c **** 
 650:Components/Controller/controller.c ****     td->dt = DWT_GetDeltaT((void *)&td->DWT_CNT);
 2568              		.loc 1 650 5 view .LVU880
 2569              		.loc 1 650 14 is_stmt 0 view .LVU881
 2570 000c 2030     		adds	r0, r0, #32
 2571              	.LVL112:
 2572              		.loc 1 650 14 view .LVU882
 2573 000e FFF7FEFF 		bl	DWT_GetDeltaT
 2574              	.LVL113:
 2575              		.loc 1 650 12 view .LVU883
 2576 0012 84ED090A 		vstr.32	s0, [r4, #36]
 651:Components/Controller/controller.c **** 
 652:Components/Controller/controller.c ****     if (td->dt > 0.5f)
 2577              		.loc 1 652 5 is_stmt 1 view .LVU884
 2578              		.loc 1 652 8 is_stmt 0 view .LVU885
 2579 0016 F6EE007A 		vmov.f32	s15, #5.0e-1
 2580 001a B4EEE70A 		vcmpe.f32	s0, s15
 2581 001e F1EE10FA 		vmrs	APSR_nzcv, FPSCR
 2582 0022 00F3FB80 		bgt	.L196
 653:Components/Controller/controller.c ****         return 0;
 654:Components/Controller/controller.c **** 
 655:Components/Controller/controller.c ****     td->Input = input;
 2583              		.loc 1 655 5 is_stmt 1 view .LVU886
 2584              		.loc 1 655 15 is_stmt 0 view .LVU887
 2585 0026 84ED008A 		vstr.32	s16, [r4]
 656:Components/Controller/controller.c **** 
 657:Components/Controller/controller.c ****     d = td->r * td->h0 * td->h0;
 2586              		.loc 1 657 5 is_stmt 1 view .LVU888
 2587              		.loc 1 657 11 is_stmt 0 view .LVU889
 2588 002a 94ED027A 		vldr.32	s14, [r4, #8]
 2589              		.loc 1 657 19 view .LVU890
 2590 002e D4ED017A 		vldr.32	s15, [r4, #4]
 2591              		.loc 1 657 15 view .LVU891
 2592 0032 27EE277A 		vmul.f32	s14, s14, s15
 2593              		.loc 1 657 24 view .LVU892
 2594 0036 27EE877A 		vmul.f32	s14, s15, s14
 2595              		.loc 1 657 7 view .LVU893
 2596 003a 7A4B     		ldr	r3, .L199
 2597 003c 83ED007A 		vstr.32	s14, [r3]
 658:Components/Controller/controller.c ****     a0 = td->dx * td->h0;
 2598              		.loc 1 658 5 is_stmt 1 view .LVU894
 2599              		.loc 1 658 12 is_stmt 0 view .LVU895
 2600 0040 94ED040A 		vldr.32	s0, [r4, #16]
 2601              		.loc 1 658 17 view .LVU896
 2602 0044 67EE807A 		vmul.f32	s15, s15, s0
 2603              		.loc 1 658 8 view .LVU897
 2604 0048 774B     		ldr	r3, .L199+4
 2605 004a C3ED007A 		vstr.32	s15, [r3]
 659:Components/Controller/controller.c ****     y = td->x - td->Input + a0;
ARM GAS  C:\Users\86152\AppData\Local\Temp\ccrmPoSV.s 			page 66


 2606              		.loc 1 659 5 is_stmt 1 view .LVU898
 2607              		.loc 1 659 11 is_stmt 0 view .LVU899
 2608 004e 94ED030A 		vldr.32	s0, [r4, #12]
 2609              		.loc 1 659 15 view .LVU900
 2610 0052 30EE480A 		vsub.f32	s0, s0, s16
 2611              		.loc 1 659 27 view .LVU901
 2612 0056 37EE800A 		vadd.f32	s0, s15, s0
 2613              		.loc 1 659 7 view .LVU902
 2614 005a 744B     		ldr	r3, .L199+8
 2615 005c 83ED000A 		vstr.32	s0, [r3]
 660:Components/Controller/controller.c ****     a1 = sqrt(d * (d + 8 * abs(y)));
 2616              		.loc 1 660 5 is_stmt 1 view .LVU903
 2617              		.loc 1 660 28 is_stmt 0 view .LVU904
 2618 0060 B5EEC00A 		vcmpe.f32	s0, #0
 2619 0064 F1EE10FA 		vmrs	APSR_nzcv, FPSCR
 2620 0068 40F3D580 		ble	.L198
 2621              	.L195:
 2622              		.loc 1 660 26 discriminator 4 view .LVU905
 2623 006c F2EE007A 		vmov.f32	s15, #8.0e+0
 2624 0070 20EE270A 		vmul.f32	s0, s0, s15
 2625              		.loc 1 660 22 discriminator 4 view .LVU906
 2626 0074 37EE000A 		vadd.f32	s0, s14, s0
 2627              		.loc 1 660 10 discriminator 4 view .LVU907
 2628 0078 67EE007A 		vmul.f32	s15, s14, s0
 2629 007c 17EE900A 		vmov	r0, s15
 2630 0080 FFF7FEFF 		bl	__aeabi_f2d
 2631              	.LVL114:
 2632 0084 41EC100B 		vmov	d0, r0, r1
 2633 0088 FFF7FEFF 		bl	sqrt
 2634              	.LVL115:
 2635 008c 51EC100B 		vmov	r0, r1, d0
 2636 0090 FFF7FEFF 		bl	__aeabi_d2f
 2637              	.LVL116:
 2638              		.loc 1 660 8 discriminator 4 view .LVU908
 2639 0094 664F     		ldr	r7, .L199+12
 2640 0096 3860     		str	r0, [r7]	@ float
 661:Components/Controller/controller.c ****     a2 = a0 + sign(y) * (a1 - d) / 2;
 2641              		.loc 1 661 5 is_stmt 1 discriminator 4 view .LVU909
 2642              		.loc 1 661 15 is_stmt 0 discriminator 4 view .LVU910
 2643 0098 644E     		ldr	r6, .L199+8
 2644 009a 96ED000A 		vldr.32	s0, [r6]
 2645 009e FFF7FEFF 		bl	sign
 2646              	.LVL117:
 2647              		.loc 1 661 29 discriminator 4 view .LVU911
 2648 00a2 604D     		ldr	r5, .L199
 2649 00a4 D5ED006A 		vldr.32	s13, [r5]
 2650 00a8 97ED007A 		vldr.32	s14, [r7]
 2651 00ac 37EE667A 		vsub.f32	s14, s14, s13
 2652              		.loc 1 661 23 discriminator 4 view .LVU912
 2653 00b0 20EE077A 		vmul.f32	s14, s0, s14
 2654              		.loc 1 661 34 discriminator 4 view .LVU913
 2655 00b4 B6EE009A 		vmov.f32	s18, #5.0e-1
 2656 00b8 27EE097A 		vmul.f32	s14, s14, s18
 2657              		.loc 1 661 13 discriminator 4 view .LVU914
 2658 00bc 5A4B     		ldr	r3, .L199+4
 2659 00be D3ED007A 		vldr.32	s15, [r3]
 2660 00c2 37EE277A 		vadd.f32	s14, s14, s15
ARM GAS  C:\Users\86152\AppData\Local\Temp\ccrmPoSV.s 			page 67


 2661              		.loc 1 661 8 discriminator 4 view .LVU915
 2662 00c6 5B4F     		ldr	r7, .L199+16
 2663 00c8 87ED007A 		vstr.32	s14, [r7]
 662:Components/Controller/controller.c ****     a = (a0 + y) * (sign(y + d) - sign(y - d)) / 2 + a2 * (1 - (sign(y + d) - sign(y - d)) / 2);
 2664              		.loc 1 662 5 is_stmt 1 discriminator 4 view .LVU916
 2665              		.loc 1 662 13 is_stmt 0 discriminator 4 view .LVU917
 2666 00cc 96ED000A 		vldr.32	s0, [r6]
 2667 00d0 37EE808A 		vadd.f32	s16, s15, s0
 2668              	.LVL118:
 2669              		.loc 1 662 21 discriminator 4 view .LVU918
 2670 00d4 36EE800A 		vadd.f32	s0, s13, s0
 2671 00d8 FFF7FEFF 		bl	sign
 2672              	.LVL119:
 2673 00dc F0EE408A 		vmov.f32	s17, s0
 2674              		.loc 1 662 35 discriminator 4 view .LVU919
 2675 00e0 96ED000A 		vldr.32	s0, [r6]
 2676 00e4 D5ED007A 		vldr.32	s15, [r5]
 2677 00e8 30EE670A 		vsub.f32	s0, s0, s15
 2678 00ec FFF7FEFF 		bl	sign
 2679              	.LVL120:
 2680              		.loc 1 662 33 discriminator 4 view .LVU920
 2681 00f0 78EEC07A 		vsub.f32	s15, s17, s0
 2682              		.loc 1 662 18 discriminator 4 view .LVU921
 2683 00f4 68EE277A 		vmul.f32	s15, s16, s15
 2684              		.loc 1 662 48 discriminator 4 view .LVU922
 2685 00f8 27EE898A 		vmul.f32	s16, s15, s18
 2686              		.loc 1 662 65 discriminator 4 view .LVU923
 2687 00fc 96ED000A 		vldr.32	s0, [r6]
 2688 0100 D5ED007A 		vldr.32	s15, [r5]
 2689 0104 30EE270A 		vadd.f32	s0, s0, s15
 2690 0108 FFF7FEFF 		bl	sign
 2691              	.LVL121:
 2692 010c F0EE408A 		vmov.f32	s17, s0
 2693              		.loc 1 662 79 discriminator 4 view .LVU924
 2694 0110 96ED000A 		vldr.32	s0, [r6]
 2695 0114 D5ED007A 		vldr.32	s15, [r5]
 2696 0118 30EE670A 		vsub.f32	s0, s0, s15
 2697 011c FFF7FEFF 		bl	sign
 2698              	.LVL122:
 2699              		.loc 1 662 77 discriminator 4 view .LVU925
 2700 0120 78EEC07A 		vsub.f32	s15, s17, s0
 2701              		.loc 1 662 92 discriminator 4 view .LVU926
 2702 0124 67EE897A 		vmul.f32	s15, s15, s18
 2703              		.loc 1 662 62 discriminator 4 view .LVU927
 2704 0128 F7EE009A 		vmov.f32	s19, #1.0e+0
 2705 012c 79EEE77A 		vsub.f32	s15, s19, s15
 2706              		.loc 1 662 57 discriminator 4 view .LVU928
 2707 0130 97ED000A 		vldr.32	s0, [r7]
 2708 0134 67EE807A 		vmul.f32	s15, s15, s0
 2709              		.loc 1 662 52 discriminator 4 view .LVU929
 2710 0138 78EE277A 		vadd.f32	s15, s16, s15
 2711              		.loc 1 662 7 discriminator 4 view .LVU930
 2712 013c 3E4E     		ldr	r6, .L199+20
 2713 013e C6ED007A 		vstr.32	s15, [r6]
 663:Components/Controller/controller.c ****     fhan = -td->r * a / d * (sign(a + d) - sign(a - d)) / 2 -
 2714              		.loc 1 663 5 is_stmt 1 discriminator 4 view .LVU931
 2715              		.loc 1 663 15 is_stmt 0 discriminator 4 view .LVU932
ARM GAS  C:\Users\86152\AppData\Local\Temp\ccrmPoSV.s 			page 68


 2716 0142 94ED027A 		vldr.32	s14, [r4, #8]
 2717              		.loc 1 663 19 discriminator 4 view .LVU933
 2718 0146 27EE677A 		vnmul.f32	s14, s14, s15
 2719              		.loc 1 663 23 discriminator 4 view .LVU934
 2720 014a 95ED000A 		vldr.32	s0, [r5]
 2721 014e C7EE008A 		vdiv.f32	s17, s14, s0
 2722              		.loc 1 663 30 discriminator 4 view .LVU935
 2723 0152 37EE800A 		vadd.f32	s0, s15, s0
 2724 0156 FFF7FEFF 		bl	sign
 2725              	.LVL123:
 2726 015a B0EE408A 		vmov.f32	s16, s0
 2727              		.loc 1 663 44 discriminator 4 view .LVU936
 2728 015e 96ED000A 		vldr.32	s0, [r6]
 2729 0162 D5ED007A 		vldr.32	s15, [r5]
 2730 0166 30EE670A 		vsub.f32	s0, s0, s15
 2731 016a FFF7FEFF 		bl	sign
 2732              	.LVL124:
 2733              		.loc 1 663 42 discriminator 4 view .LVU937
 2734 016e 38EE408A 		vsub.f32	s16, s16, s0
 2735              		.loc 1 663 27 discriminator 4 view .LVU938
 2736 0172 28EE888A 		vmul.f32	s16, s17, s16
 2737              		.loc 1 663 57 discriminator 4 view .LVU939
 2738 0176 28EE09AA 		vmul.f32	s20, s16, s18
 664:Components/Controller/controller.c ****            td->r * sign(a) * (1 - (sign(a + d) - sign(a - d)) / 2);
 2739              		.loc 1 664 14 discriminator 4 view .LVU940
 2740 017a D4ED028A 		vldr.32	s17, [r4, #8]
 2741              		.loc 1 664 20 discriminator 4 view .LVU941
 2742 017e 96ED000A 		vldr.32	s0, [r6]
 2743 0182 FFF7FEFF 		bl	sign
 2744              	.LVL125:
 2745              		.loc 1 664 18 discriminator 4 view .LVU942
 2746 0186 68EE808A 		vmul.f32	s17, s17, s0
 2747              		.loc 1 664 36 discriminator 4 view .LVU943
 2748 018a 96ED000A 		vldr.32	s0, [r6]
 2749 018e D5ED007A 		vldr.32	s15, [r5]
 2750 0192 30EE270A 		vadd.f32	s0, s0, s15
 2751 0196 FFF7FEFF 		bl	sign
 2752              	.LVL126:
 2753 019a B0EE408A 		vmov.f32	s16, s0
 2754              		.loc 1 664 50 discriminator 4 view .LVU944
 2755 019e 96ED000A 		vldr.32	s0, [r6]
 2756 01a2 D5ED007A 		vldr.32	s15, [r5]
 2757 01a6 30EE670A 		vsub.f32	s0, s0, s15
 2758 01aa FFF7FEFF 		bl	sign
 2759              	.LVL127:
 2760              		.loc 1 664 48 discriminator 4 view .LVU945
 2761 01ae 38EE408A 		vsub.f32	s16, s16, s0
 2762              		.loc 1 664 63 discriminator 4 view .LVU946
 2763 01b2 28EE098A 		vmul.f32	s16, s16, s18
 2764              		.loc 1 664 33 discriminator 4 view .LVU947
 2765 01b6 39EEC88A 		vsub.f32	s16, s19, s16
 2766              		.loc 1 664 28 discriminator 4 view .LVU948
 2767 01ba 68EE888A 		vmul.f32	s17, s17, s16
 663:Components/Controller/controller.c ****     fhan = -td->r * a / d * (sign(a + d) - sign(a - d)) / 2 -
 2768              		.loc 1 663 61 discriminator 4 view .LVU949
 2769 01be 3AEE688A 		vsub.f32	s16, s20, s17
 663:Components/Controller/controller.c ****     fhan = -td->r * a / d * (sign(a + d) - sign(a - d)) / 2 -
ARM GAS  C:\Users\86152\AppData\Local\Temp\ccrmPoSV.s 			page 69


 2770              		.loc 1 663 10 discriminator 4 view .LVU950
 2771 01c2 1E4B     		ldr	r3, .L199+24
 2772 01c4 83ED008A 		vstr.32	s16, [r3]
 665:Components/Controller/controller.c **** 
 666:Components/Controller/controller.c ****     td->ddx = fhan;
 2773              		.loc 1 666 5 is_stmt 1 discriminator 4 view .LVU951
 2774              		.loc 1 666 13 is_stmt 0 discriminator 4 view .LVU952
 2775 01c8 84ED058A 		vstr.32	s16, [r4, #20]
 667:Components/Controller/controller.c ****     td->dx += (td->ddx + td->last_ddx) * td->dt / 2;
 2776              		.loc 1 667 5 is_stmt 1 discriminator 4 view .LVU953
 2777              		.loc 1 667 28 is_stmt 0 discriminator 4 view .LVU954
 2778 01cc D4ED077A 		vldr.32	s15, [r4, #28]
 2779              		.loc 1 667 24 discriminator 4 view .LVU955
 2780 01d0 78EE277A 		vadd.f32	s15, s16, s15
 2781              		.loc 1 667 44 discriminator 4 view .LVU956
 2782 01d4 94ED090A 		vldr.32	s0, [r4, #36]
 2783              		.loc 1 667 40 discriminator 4 view .LVU957
 2784 01d8 67EE807A 		vmul.f32	s15, s15, s0
 2785              		.loc 1 667 49 discriminator 4 view .LVU958
 2786 01dc 67EE897A 		vmul.f32	s15, s15, s18
 2787              		.loc 1 667 12 discriminator 4 view .LVU959
 2788 01e0 94ED047A 		vldr.32	s14, [r4, #16]
 2789 01e4 77EE877A 		vadd.f32	s15, s15, s14
 2790 01e8 C4ED047A 		vstr.32	s15, [r4, #16]
 668:Components/Controller/controller.c ****     td->x += (td->dx + td->last_dx) * td->dt / 2;
 2791              		.loc 1 668 5 is_stmt 1 discriminator 4 view .LVU960
 2792              		.loc 1 668 26 is_stmt 0 discriminator 4 view .LVU961
 2793 01ec 94ED067A 		vldr.32	s14, [r4, #24]
 2794              		.loc 1 668 22 discriminator 4 view .LVU962
 2795 01f0 37EE877A 		vadd.f32	s14, s15, s14
 2796              		.loc 1 668 37 discriminator 4 view .LVU963
 2797 01f4 20EE070A 		vmul.f32	s0, s0, s14
 2798              		.loc 1 668 46 discriminator 4 view .LVU964
 2799 01f8 20EE090A 		vmul.f32	s0, s0, s18
 2800              		.loc 1 668 11 discriminator 4 view .LVU965
 2801 01fc 94ED039A 		vldr.32	s18, [r4, #12]
 2802 0200 30EE090A 		vadd.f32	s0, s0, s18
 2803 0204 84ED030A 		vstr.32	s0, [r4, #12]
 669:Components/Controller/controller.c **** 
 670:Components/Controller/controller.c ****     td->last_ddx = td->ddx;
 2804              		.loc 1 670 5 is_stmt 1 discriminator 4 view .LVU966
 2805              		.loc 1 670 18 is_stmt 0 discriminator 4 view .LVU967
 2806 0208 84ED078A 		vstr.32	s16, [r4, #28]
 671:Components/Controller/controller.c ****     td->last_dx = td->dx;
 2807              		.loc 1 671 5 is_stmt 1 discriminator 4 view .LVU968
 2808              		.loc 1 671 17 is_stmt 0 discriminator 4 view .LVU969
 2809 020c C4ED067A 		vstr.32	s15, [r4, #24]
 672:Components/Controller/controller.c **** 
 673:Components/Controller/controller.c ****     return td->x;
 2810              		.loc 1 673 5 is_stmt 1 discriminator 4 view .LVU970
 2811              	.L193:
 674:Components/Controller/controller.c **** }
 2812              		.loc 1 674 1 is_stmt 0 view .LVU971
 2813 0210 BDEC068B 		vldm	sp!, {d8-d10}
 2814              	.LCFI23:
 2815              		.cfi_remember_state
 2816              		.cfi_restore 84
ARM GAS  C:\Users\86152\AppData\Local\Temp\ccrmPoSV.s 			page 70


 2817              		.cfi_restore 85
 2818              		.cfi_restore 82
 2819              		.cfi_restore 83
 2820              		.cfi_restore 80
 2821              		.cfi_restore 81
 2822              		.cfi_def_cfa_offset 24
 2823 0214 F8BD     		pop	{r3, r4, r5, r6, r7, pc}
 2824              	.LVL128:
 2825              	.L198:
 2826              	.LCFI24:
 2827              		.cfi_restore_state
 660:Components/Controller/controller.c ****     a2 = a0 + sign(y) * (a1 - d) / 2;
 2828              		.loc 1 660 28 discriminator 2 view .LVU972
 2829 0216 B1EE400A 		vneg.f32	s0, s0
 2830 021a 27E7     		b	.L195
 2831              	.L196:
 653:Components/Controller/controller.c **** 
 2832              		.loc 1 653 16 view .LVU973
 2833 021c 9FED080A 		vldr.32	s0, .L199+28
 2834 0220 F6E7     		b	.L193
 2835              	.L200:
 2836 0222 00BF     		.align	2
 2837              	.L199:
 2838 0224 00000000 		.word	.LANCHOR5
 2839 0228 00000000 		.word	.LANCHOR6
 2840 022c 00000000 		.word	.LANCHOR7
 2841 0230 00000000 		.word	.LANCHOR8
 2842 0234 00000000 		.word	.LANCHOR9
 2843 0238 00000000 		.word	.LANCHOR10
 2844 023c 00000000 		.word	.LANCHOR11
 2845 0240 00000000 		.word	0
 2846              		.cfi_endproc
 2847              	.LFE186:
 2849              		.section	.text.ThirdOrder_TD_Init,"ax",%progbits
 2850              		.align	1
 2851              		.global	ThirdOrder_TD_Init
 2852              		.syntax unified
 2853              		.thumb
 2854              		.thumb_func
 2856              	ThirdOrder_TD_Init:
 2857              	.LVL129:
 2858              	.LFB187:
 675:Components/Controller/controller.c **** 
 676:Components/Controller/controller.c **** /************** Second Order System based Tracking Differentiator **************/
 677:Components/Controller/controller.c **** void ThirdOrder_TD_Init(ThirdOrderTD_t *td, float omega)
 678:Components/Controller/controller.c **** {
 2859              		.loc 1 678 1 is_stmt 1 view -0
 2860              		.cfi_startproc
 2861              		@ args = 0, pretend = 0, frame = 0
 2862              		@ frame_needed = 0, uses_anonymous_args = 0
 2863              		@ link register save eliminated.
 679:Components/Controller/controller.c ****     td->Omega = omega;
 2864              		.loc 1 679 5 view .LVU975
 2865              		.loc 1 679 15 is_stmt 0 view .LVU976
 2866 0000 80ED010A 		vstr.32	s0, [r0, #4]
 680:Components/Controller/controller.c **** 
 681:Components/Controller/controller.c ****     td->x = 0;
ARM GAS  C:\Users\86152\AppData\Local\Temp\ccrmPoSV.s 			page 71


 2867              		.loc 1 681 5 is_stmt 1 view .LVU977
 2868              		.loc 1 681 11 is_stmt 0 view .LVU978
 2869 0004 0023     		movs	r3, #0
 2870 0006 8360     		str	r3, [r0, #8]	@ float
 682:Components/Controller/controller.c ****     td->dx = 0;
 2871              		.loc 1 682 5 is_stmt 1 view .LVU979
 2872              		.loc 1 682 12 is_stmt 0 view .LVU980
 2873 0008 C360     		str	r3, [r0, #12]	@ float
 683:Components/Controller/controller.c ****     td->ddx = 0;
 2874              		.loc 1 683 5 is_stmt 1 view .LVU981
 2875              		.loc 1 683 13 is_stmt 0 view .LVU982
 2876 000a 0361     		str	r3, [r0, #16]	@ float
 684:Components/Controller/controller.c ****     td->last_dx = 0;
 2877              		.loc 1 684 5 is_stmt 1 view .LVU983
 2878              		.loc 1 684 17 is_stmt 0 view .LVU984
 2879 000c 8361     		str	r3, [r0, #24]	@ float
 685:Components/Controller/controller.c ****     td->last_ddx = 0;
 2880              		.loc 1 685 5 is_stmt 1 view .LVU985
 2881              		.loc 1 685 18 is_stmt 0 view .LVU986
 2882 000e C361     		str	r3, [r0, #28]	@ float
 686:Components/Controller/controller.c ****     td->last_dddx = 0;
 2883              		.loc 1 686 5 is_stmt 1 view .LVU987
 2884              		.loc 1 686 19 is_stmt 0 view .LVU988
 2885 0010 0362     		str	r3, [r0, #32]	@ float
 687:Components/Controller/controller.c **** }
 2886              		.loc 1 687 1 view .LVU989
 2887 0012 7047     		bx	lr
 2888              		.cfi_endproc
 2889              	.LFE187:
 2891              		.section	.text.ThirdOrder_TD_Calculate,"ax",%progbits
 2892              		.align	1
 2893              		.global	ThirdOrder_TD_Calculate
 2894              		.syntax unified
 2895              		.thumb
 2896              		.thumb_func
 2898              	ThirdOrder_TD_Calculate:
 2899              	.LVL130:
 2900              	.LFB188:
 688:Components/Controller/controller.c **** 
 689:Components/Controller/controller.c **** float ThirdOrder_TD_Calculate(ThirdOrderTD_t *td, float input)
 690:Components/Controller/controller.c **** {
 2901              		.loc 1 690 1 is_stmt 1 view -0
 2902              		.cfi_startproc
 2903              		@ args = 0, pretend = 0, frame = 0
 2904              		@ frame_needed = 0, uses_anonymous_args = 0
 2905              		.loc 1 690 1 is_stmt 0 view .LVU991
 2906 0000 10B5     		push	{r4, lr}
 2907              	.LCFI25:
 2908              		.cfi_def_cfa_offset 8
 2909              		.cfi_offset 4, -8
 2910              		.cfi_offset 14, -4
 2911 0002 2DED028B 		vpush.64	{d8}
 2912              	.LCFI26:
 2913              		.cfi_def_cfa_offset 16
 2914              		.cfi_offset 80, -16
 2915              		.cfi_offset 81, -12
 2916 0006 0446     		mov	r4, r0
ARM GAS  C:\Users\86152\AppData\Local\Temp\ccrmPoSV.s 			page 72


 2917 0008 B0EE408A 		vmov.f32	s16, s0
 691:Components/Controller/controller.c ****     td->dt = DWT_GetDeltaT((void *)&td->DWT_CNT);
 2918              		.loc 1 691 5 is_stmt 1 view .LVU992
 2919              		.loc 1 691 14 is_stmt 0 view .LVU993
 2920 000c 2430     		adds	r0, r0, #36
 2921              	.LVL131:
 2922              		.loc 1 691 14 view .LVU994
 2923 000e FFF7FEFF 		bl	DWT_GetDeltaT
 2924              	.LVL132:
 2925              		.loc 1 691 12 view .LVU995
 2926 0012 84ED0A0A 		vstr.32	s0, [r4, #40]
 692:Components/Controller/controller.c **** 
 693:Components/Controller/controller.c ****     td->Input = input;
 2927              		.loc 1 693 5 is_stmt 1 view .LVU996
 2928              		.loc 1 693 15 is_stmt 0 view .LVU997
 2929 0016 84ED008A 		vstr.32	s16, [r4]
 694:Components/Controller/controller.c **** 
 695:Components/Controller/controller.c ****     td->dddx = td->Omega * td->Omega * td->Omega * (td->Input - td->x) -
 2930              		.loc 1 695 5 is_stmt 1 view .LVU998
 2931              		.loc 1 695 18 is_stmt 0 view .LVU999
 2932 001a 94ED017A 		vldr.32	s14, [r4, #4]
 2933              		.loc 1 695 26 view .LVU1000
 2934 001e 67EE077A 		vmul.f32	s15, s14, s14
 2935              		.loc 1 695 38 view .LVU1001
 2936 0022 67EE277A 		vmul.f32	s15, s14, s15
 2937              		.loc 1 695 67 view .LVU1002
 2938 0026 94ED025A 		vldr.32	s10, [r4, #8]
 2939              		.loc 1 695 63 view .LVU1003
 2940 002a 38EE458A 		vsub.f32	s16, s16, s10
 2941              	.LVL133:
 2942              		.loc 1 695 50 view .LVU1004
 2943 002e 67EE887A 		vmul.f32	s15, s15, s16
 696:Components/Controller/controller.c ****                3 * td->Omega * td->Omega * td->dx -
 2944              		.loc 1 696 18 view .LVU1005
 2945 0032 F0EE085A 		vmov.f32	s11, #3.0e+0
 2946 0036 67EE255A 		vmul.f32	s11, s14, s11
 2947              		.loc 1 696 30 view .LVU1006
 2948 003a 27EE257A 		vmul.f32	s14, s14, s11
 2949              		.loc 1 696 46 view .LVU1007
 2950 003e 94ED036A 		vldr.32	s12, [r4, #12]
 2951              		.loc 1 696 42 view .LVU1008
 2952 0042 27EE067A 		vmul.f32	s14, s14, s12
 695:Components/Controller/controller.c ****                3 * td->Omega * td->Omega * td->dx -
 2953              		.loc 1 695 72 view .LVU1009
 2954 0046 77EEC77A 		vsub.f32	s15, s15, s14
 697:Components/Controller/controller.c ****                3 * td->Omega * td->ddx;
 2955              		.loc 1 697 34 view .LVU1010
 2956 004a D4ED046A 		vldr.32	s13, [r4, #16]
 2957              		.loc 1 697 30 view .LVU1011
 2958 004e 65EEA65A 		vmul.f32	s11, s11, s13
 696:Components/Controller/controller.c ****                3 * td->Omega * td->Omega * td->dx -
 2959              		.loc 1 696 51 view .LVU1012
 2960 0052 77EEE57A 		vsub.f32	s15, s15, s11
 695:Components/Controller/controller.c ****                3 * td->Omega * td->Omega * td->dx -
 2961              		.loc 1 695 14 view .LVU1013
 2962 0056 C4ED057A 		vstr.32	s15, [r4, #20]
 698:Components/Controller/controller.c **** 
ARM GAS  C:\Users\86152\AppData\Local\Temp\ccrmPoSV.s 			page 73


 699:Components/Controller/controller.c ****     // Trapezoid intergral
 700:Components/Controller/controller.c ****     td->ddx += (td->last_dddx + td->dddx) * td->dt / 2;
 2963              		.loc 1 700 5 is_stmt 1 view .LVU1014
 2964              		.loc 1 700 19 is_stmt 0 view .LVU1015
 2965 005a 94ED087A 		vldr.32	s14, [r4, #32]
 2966              		.loc 1 700 31 view .LVU1016
 2967 005e 37EE877A 		vadd.f32	s14, s15, s14
 2968              		.loc 1 700 43 view .LVU1017
 2969 0062 20EE077A 		vmul.f32	s14, s0, s14
 2970              		.loc 1 700 52 view .LVU1018
 2971 0066 F6EE005A 		vmov.f32	s11, #5.0e-1
 2972 006a 27EE257A 		vmul.f32	s14, s14, s11
 2973              		.loc 1 700 13 view .LVU1019
 2974 006e 76EE876A 		vadd.f32	s13, s13, s14
 2975 0072 C4ED046A 		vstr.32	s13, [r4, #16]
 701:Components/Controller/controller.c ****     td->dx += (td->last_ddx + td->ddx) * td->dt / 2;
 2976              		.loc 1 701 5 is_stmt 1 view .LVU1020
 2977              		.loc 1 701 18 is_stmt 0 view .LVU1021
 2978 0076 94ED077A 		vldr.32	s14, [r4, #28]
 2979              		.loc 1 701 29 view .LVU1022
 2980 007a 36EE877A 		vadd.f32	s14, s13, s14
 2981              		.loc 1 701 40 view .LVU1023
 2982 007e 20EE077A 		vmul.f32	s14, s0, s14
 2983              		.loc 1 701 49 view .LVU1024
 2984 0082 27EE257A 		vmul.f32	s14, s14, s11
 2985              		.loc 1 701 12 view .LVU1025
 2986 0086 36EE077A 		vadd.f32	s14, s12, s14
 2987 008a 84ED037A 		vstr.32	s14, [r4, #12]
 702:Components/Controller/controller.c ****     td->x += (td->last_dx + td->dx) * td->dt / 2;
 2988              		.loc 1 702 5 is_stmt 1 view .LVU1026
 2989              		.loc 1 702 17 is_stmt 0 view .LVU1027
 2990 008e 94ED066A 		vldr.32	s12, [r4, #24]
 2991              		.loc 1 702 27 view .LVU1028
 2992 0092 37EE066A 		vadd.f32	s12, s14, s12
 2993              		.loc 1 702 37 view .LVU1029
 2994 0096 20EE060A 		vmul.f32	s0, s0, s12
 2995              		.loc 1 702 46 view .LVU1030
 2996 009a 20EE250A 		vmul.f32	s0, s0, s11
 2997              		.loc 1 702 11 view .LVU1031
 2998 009e 35EE000A 		vadd.f32	s0, s10, s0
 2999 00a2 84ED020A 		vstr.32	s0, [r4, #8]
 703:Components/Controller/controller.c **** 
 704:Components/Controller/controller.c ****     td->last_dx = td->dx;
 3000              		.loc 1 704 5 is_stmt 1 view .LVU1032
 3001              		.loc 1 704 17 is_stmt 0 view .LVU1033
 3002 00a6 84ED067A 		vstr.32	s14, [r4, #24]
 705:Components/Controller/controller.c ****     td->last_ddx = td->ddx;
 3003              		.loc 1 705 5 is_stmt 1 view .LVU1034
 3004              		.loc 1 705 18 is_stmt 0 view .LVU1035
 3005 00aa C4ED076A 		vstr.32	s13, [r4, #28]
 706:Components/Controller/controller.c ****     td->last_dddx = td->dddx;
 3006              		.loc 1 706 5 is_stmt 1 view .LVU1036
 3007              		.loc 1 706 19 is_stmt 0 view .LVU1037
 3008 00ae C4ED087A 		vstr.32	s15, [r4, #32]
 707:Components/Controller/controller.c **** 
 708:Components/Controller/controller.c ****     return td->x;
 3009              		.loc 1 708 5 is_stmt 1 view .LVU1038
ARM GAS  C:\Users\86152\AppData\Local\Temp\ccrmPoSV.s 			page 74


 709:Components/Controller/controller.c **** }
 3010              		.loc 1 709 1 is_stmt 0 view .LVU1039
 3011 00b2 BDEC028B 		vldm	sp!, {d8}
 3012              	.LCFI27:
 3013              		.cfi_restore 80
 3014              		.cfi_restore 81
 3015              		.cfi_def_cfa_offset 8
 3016 00b6 10BD     		pop	{r4, pc}
 3017              		.loc 1 709 1 view .LVU1040
 3018              		.cfi_endproc
 3019              	.LFE188:
 3021              		.section	.bss.a.1,"aw",%nobits
 3022              		.align	2
 3023              		.set	.LANCHOR10,. + 0
 3026              	a.1:
 3027 0000 00000000 		.space	4
 3028              		.section	.bss.a0.5,"aw",%nobits
 3029              		.align	2
 3030              		.set	.LANCHOR6,. + 0
 3033              	a0.5:
 3034 0000 00000000 		.space	4
 3035              		.section	.bss.a1.3,"aw",%nobits
 3036              		.align	2
 3037              		.set	.LANCHOR8,. + 0
 3040              	a1.3:
 3041 0000 00000000 		.space	4
 3042              		.section	.bss.a2.2,"aw",%nobits
 3043              		.align	2
 3044              		.set	.LANCHOR9,. + 0
 3047              	a2.2:
 3048 0000 00000000 		.space	4
 3049              		.section	.bss.d.6,"aw",%nobits
 3050              		.align	2
 3051              		.set	.LANCHOR5,. + 0
 3054              	d.6:
 3055 0000 00000000 		.space	4
 3056              		.section	.bss.fhan.0,"aw",%nobits
 3057              		.align	2
 3058              		.set	.LANCHOR11,. + 0
 3061              	fhan.0:
 3062 0000 00000000 		.space	4
 3063              		.section	.bss.temp_Iout.8,"aw",%nobits
 3064              		.align	2
 3065              		.set	.LANCHOR0,. + 0
 3068              	temp_Iout.8:
 3069 0000 00000000 		.space	4
 3070              		.section	.bss.temp_Output.7,"aw",%nobits
 3071              		.align	2
 3072              		.set	.LANCHOR1,. + 0
 3075              	temp_Output.7:
 3076 0000 00000000 		.space	4
 3077              		.section	.bss.y.4,"aw",%nobits
 3078              		.align	2
 3079              		.set	.LANCHOR7,. + 0
 3082              	y.4:
 3083 0000 00000000 		.space	4
 3084              		.section	.data.FuzzyRuleKdRAW,"aw"
ARM GAS  C:\Users\86152\AppData\Local\Temp\ccrmPoSV.s 			page 75


 3085              		.align	2
 3086              		.set	.LANCHOR4,. + 0
 3089              	FuzzyRuleKdRAW:
 3090 0000 0000803F 		.word	1065353216
 3091 0004 0000803F 		.word	1065353216
 3092 0008 00004040 		.word	1077936128
 3093 000c 00004040 		.word	1077936128
 3094 0010 00004040 		.word	1077936128
 3095 0014 00000040 		.word	1073741824
 3096 0018 0000803F 		.word	1065353216
 3097 001c 0000803F 		.word	1065353216
 3098 0020 0000803F 		.word	1065353216
 3099 0024 00004040 		.word	1077936128
 3100 0028 00000040 		.word	1073741824
 3101 002c 00000040 		.word	1073741824
 3102 0030 0000803F 		.word	1065353216
 3103 0034 00000000 		.word	0
 3104 0038 00000000 		.word	0
 3105 003c 0000803F 		.word	1065353216
 3106 0040 00000040 		.word	1073741824
 3107 0044 00000040 		.word	1073741824
 3108 0048 0000803F 		.word	1065353216
 3109 004c 0000803F 		.word	1065353216
 3110 0050 00000000 		.word	0
 3111 0054 00000000 		.word	0
 3112 0058 0000803F 		.word	1065353216
 3113 005c 0000803F 		.word	1065353216
 3114 0060 0000803F 		.word	1065353216
 3115 0064 0000803F 		.word	1065353216
 3116 0068 0000803F 		.word	1065353216
 3117 006c 00000000 		.word	0
 3118 0070 00000000 		.word	0
 3119 0074 00000000 		.word	0
 3120 0078 00000000 		.word	0
 3121 007c 00000000 		.word	0
 3122 0080 00000000 		.word	0
 3123 0084 00000000 		.word	0
 3124 0088 00000000 		.word	0
 3125 008c 00004040 		.word	1077936128
 3126 0090 0000803F 		.word	1065353216
 3127 0094 0000803F 		.word	1065353216
 3128 0098 0000803F 		.word	1065353216
 3129 009c 0000803F 		.word	1065353216
 3130 00a0 0000803F 		.word	1065353216
 3131 00a4 00004040 		.word	1077936128
 3132 00a8 00004040 		.word	1077936128
 3133 00ac 00000040 		.word	1073741824
 3134 00b0 00000040 		.word	1073741824
 3135 00b4 00000040 		.word	1073741824
 3136 00b8 0000803F 		.word	1065353216
 3137 00bc 0000803F 		.word	1065353216
 3138 00c0 00004040 		.word	1077936128
 3139              		.section	.data.FuzzyRuleKiRAW,"aw"
 3140              		.align	2
 3141              		.set	.LANCHOR3,. + 0
 3144              	FuzzyRuleKiRAW:
 3145 0000 00004040 		.word	1077936128
ARM GAS  C:\Users\86152\AppData\Local\Temp\ccrmPoSV.s 			page 76


 3146 0004 00004040 		.word	1077936128
 3147 0008 00000040 		.word	1073741824
 3148 000c 00000040 		.word	1073741824
 3149 0010 0000803F 		.word	1065353216
 3150 0014 00000000 		.word	0
 3151 0018 00000000 		.word	0
 3152 001c 00004040 		.word	1077936128
 3153 0020 00004040 		.word	1077936128
 3154 0024 00000040 		.word	1073741824
 3155 0028 0000803F 		.word	1065353216
 3156 002c 0000803F 		.word	1065353216
 3157 0030 00000000 		.word	0
 3158 0034 00000000 		.word	0
 3159 0038 00004040 		.word	1077936128
 3160 003c 00000040 		.word	1073741824
 3161 0040 00000040 		.word	1073741824
 3162 0044 0000803F 		.word	1065353216
 3163 0048 00000000 		.word	0
 3164 004c 0000803F 		.word	1065353216
 3165 0050 0000803F 		.word	1065353216
 3166 0054 00000040 		.word	1073741824
 3167 0058 00000040 		.word	1073741824
 3168 005c 0000803F 		.word	1065353216
 3169 0060 00000000 		.word	0
 3170 0064 0000803F 		.word	1065353216
 3171 0068 00000040 		.word	1073741824
 3172 006c 00000040 		.word	1073741824
 3173 0070 0000803F 		.word	1065353216
 3174 0074 0000803F 		.word	1065353216
 3175 0078 00000000 		.word	0
 3176 007c 0000803F 		.word	1065353216
 3177 0080 0000803F 		.word	1065353216
 3178 0084 00000040 		.word	1073741824
 3179 0088 00004040 		.word	1077936128
 3180 008c 00000000 		.word	0
 3181 0090 00000000 		.word	0
 3182 0094 0000803F 		.word	1065353216
 3183 0098 0000803F 		.word	1065353216
 3184 009c 00000040 		.word	1073741824
 3185 00a0 00004040 		.word	1077936128
 3186 00a4 00004040 		.word	1077936128
 3187 00a8 00000000 		.word	0
 3188 00ac 00000000 		.word	0
 3189 00b0 0000803F 		.word	1065353216
 3190 00b4 00000040 		.word	1073741824
 3191 00b8 00000040 		.word	1073741824
 3192 00bc 00004040 		.word	1077936128
 3193 00c0 00004040 		.word	1077936128
 3194              		.section	.data.FuzzyRuleKpRAW,"aw"
 3195              		.align	2
 3196              		.set	.LANCHOR2,. + 0
 3199              	FuzzyRuleKpRAW:
 3200 0000 000040C0 		.word	-1069547520
 3201 0004 000040C0 		.word	-1069547520
 3202 0008 00000040 		.word	1073741824
 3203 000c 00000040 		.word	1073741824
 3204 0010 0000803F 		.word	1065353216
ARM GAS  C:\Users\86152\AppData\Local\Temp\ccrmPoSV.s 			page 77


 3205 0014 00000000 		.word	0
 3206 0018 00000000 		.word	0
 3207 001c 000040C0 		.word	-1069547520
 3208 0020 000040C0 		.word	-1069547520
 3209 0024 00000040 		.word	1073741824
 3210 0028 0000803F 		.word	1065353216
 3211 002c 0000803F 		.word	1065353216
 3212 0030 00000000 		.word	0
 3213 0034 0000803F 		.word	1065353216
 3214 0038 000000C0 		.word	-1073741824
 3215 003c 000000C0 		.word	-1073741824
 3216 0040 00000040 		.word	1073741824
 3217 0044 0000803F 		.word	1065353216
 3218 0048 00000000 		.word	0
 3219 004c 0000803F 		.word	1065353216
 3220 0050 0000803F 		.word	1065353216
 3221 0054 000000C0 		.word	-1073741824
 3222 0058 000000C0 		.word	-1073741824
 3223 005c 0000803F 		.word	1065353216
 3224 0060 00000000 		.word	0
 3225 0064 0000803F 		.word	1065353216
 3226 0068 00000040 		.word	1073741824
 3227 006c 00000040 		.word	1073741824
 3228 0070 000080BF 		.word	-1082130432
 3229 0074 000080BF 		.word	-1082130432
 3230 0078 00000000 		.word	0
 3231 007c 0000803F 		.word	1065353216
 3232 0080 0000803F 		.word	1065353216
 3233 0084 00000040 		.word	1073741824
 3234 0088 00000040 		.word	1073741824
 3235 008c 000080BF 		.word	-1082130432
 3236 0090 00000000 		.word	0
 3237 0094 0000803F 		.word	1065353216
 3238 0098 00000040 		.word	1073741824
 3239 009c 00000040 		.word	1073741824
 3240 00a0 00000040 		.word	1073741824
 3241 00a4 00004040 		.word	1077936128
 3242 00a8 00000000 		.word	0
 3243 00ac 00000000 		.word	0
 3244 00b0 00000040 		.word	1073741824
 3245 00b4 00000040 		.word	1073741824
 3246 00b8 00000040 		.word	1073741824
 3247 00bc 00004040 		.word	1077936128
 3248 00c0 00004040 		.word	1077936128
 3249              		.text
 3250              	.Letext0:
 3251              		.file 2 "c:\\program files (x86)\\gnu arm embedded toolchain\\10 2021.10\\arm-none-eabi\\include\\
 3252              		.file 3 "c:\\program files (x86)\\gnu arm embedded toolchain\\10 2021.10\\arm-none-eabi\\include\\
 3253              		.file 4 "Components/user_lib.h"
 3254              		.file 5 "Components/Controller/controller.h"
 3255              		.file 6 "Bsp/bsp_dwt.h"
 3256              		.file 7 "c:\\program files (x86)\\gnu arm embedded toolchain\\10 2021.10\\arm-none-eabi\\include\\
ARM GAS  C:\Users\86152\AppData\Local\Temp\ccrmPoSV.s 			page 78

